BL51 BANKED LINKER/LOCATER V6.22                                                        11/06/2015  11:37:23  PAGE 1


BL51 BANKED LINKER/LOCATER V6.22, INVOKED BY:
C:\KEIL\C51\BIN\BL51.EXE .\OBJ\STARTUP.obj, .\OBJ\UART.obj, .\OBJ\BusCtrl.obj, .\OBJ\CommandShell.obj, .\OBJ\Main.obj, .
>> \OBJ\OSD_Graph.obj, .\OBJ\OSDAction .obj, .\OBJ\OSDCtrl.obj, .\OBJ\Timer.obj, .\OBJ\TW28xx_Audio.obj, .\OBJ\TW28xx_Vi
>> deo.obj, .\OBJ\TW2835_Init.obj, .\OBJ\NED.obj TO .\OBJ\NED_5MCMOS_v0_9_f_XXXX_20151106 PRINT (.\OBJ\NED_5MCMOS_v0_9_f
>> _XXXX_20151106.m51) RAMSIZE (256) CODE (0X0000-0XFFFF)


MEMORY MODEL: LARGE


INPUT MODULES INCLUDED:
  .\OBJ\STARTUP.obj (?C_STARTUP)
  .\OBJ\UART.obj (UART)
  .\OBJ\BusCtrl.obj (BUSCTRL)
  .\OBJ\CommandShell.obj (COMMANDSHELL)
  .\OBJ\Main.obj (MAIN)
  .\OBJ\OSD_Graph.obj (OSD_GRAPH)
  .\OBJ\OSDAction .obj (OSDACTION_)
  .\OBJ\OSDCtrl.obj (OSDCTRL)
  .\OBJ\Timer.obj (TIMER)
  .\OBJ\TW28xx_Audio.obj (TW28XX_AUDIO)
  .\OBJ\TW28xx_Video.obj (TW28XX_VIDEO)
  .\OBJ\TW2835_Init.obj (TW2835_INIT)
  .\OBJ\NED.obj (NED)
  C:\KEIL\C51\LIB\C51L.LIB (?C_INIT)
  C:\KEIL\C51\LIB\C51L.LIB (?C?COPY)
  C:\KEIL\C51\LIB\C51L.LIB (?C?CLDPTR)
  C:\KEIL\C51\LIB\C51L.LIB (?C?CLDOPTR)
  C:\KEIL\C51\LIB\C51L.LIB (?C?CSTPTR)
  C:\KEIL\C51\LIB\C51L.LIB (?C?IMUL)
  C:\KEIL\C51\LIB\C51L.LIB (?C?UIDIV)
  C:\KEIL\C51\LIB\C51L.LIB (?C?IILDX)
  C:\KEIL\C51\LIB\C51L.LIB (?C?ILDIX)
  C:\KEIL\C51\LIB\C51L.LIB (?C?ILDPTR)
  C:\KEIL\C51\LIB\C51L.LIB (?C?IILDOPTR)
  C:\KEIL\C51\LIB\C51L.LIB (?C?LMUL)
  C:\KEIL\C51\LIB\C51L.LIB (?C?ULDIV)
  C:\KEIL\C51\LIB\C51L.LIB (?C?SLDIV)
  C:\KEIL\C51\LIB\C51L.LIB (?C?ULCMP)
  C:\KEIL\C51\LIB\C51L.LIB (?C?ULSHR)
  C:\KEIL\C51\LIB\C51L.LIB (?C?LSTXDATA)
  C:\KEIL\C51\LIB\C51L.LIB (?C?LSTKXDATA)
  C:\KEIL\C51\LIB\C51L.LIB (?C?PLDPTR)
  C:\KEIL\C51\LIB\C51L.LIB (?C?PSTPTR)
  C:\KEIL\C51\LIB\C51L.LIB (?C?CCASE)
  C:\KEIL\C51\LIB\C51L.LIB (?C?ICASE)
  C:\KEIL\C51\LIB\C51L.LIB (PRINTF)
  C:\KEIL\C51\LIB\C51L.LIB (PUTS)
  C:\KEIL\C51\LIB\C51L.LIB (SCANF)
  C:\KEIL\C51\LIB\C51L.LIB (?C?STRCMP)
  C:\KEIL\C51\LIB\C51L.LIB (STRLEN)
  C:\KEIL\C51\LIB\C51L.LIB (ATOI)
  C:\KEIL\C51\LIB\C51L.LIB (?C?ISTPTR)
  C:\KEIL\C51\LIB\C51L.LIB (?C?LNEG)
  C:\KEIL\C51\LIB\C51L.LIB (?C?LSTPTR)
  C:\KEIL\C51\LIB\C51L.LIB (?C?PLDIDATA)
  C:\KEIL\C51\LIB\C51L.LIB (?C?PSTIDATA)
  C:\KEIL\C51\LIB\C51L.LIB (?C?PLDXDATA)
BL51 BANKED LINKER/LOCATER V6.22                                                      11/06/2015  11:37:23  PAGE 2


  C:\KEIL\C51\LIB\C51L.LIB (?C?PLDIXDATA)
  C:\KEIL\C51\LIB\C51L.LIB (?C?PILDXDATA)
  C:\KEIL\C51\LIB\C51L.LIB (?C?PSTXDATA)
  C:\KEIL\C51\LIB\C51L.LIB (?C?PLDPDATA)
  C:\KEIL\C51\LIB\C51L.LIB (?C?PSTPDATA)
  C:\KEIL\C51\LIB\C51L.LIB (?C?PLDCODE)
  C:\KEIL\C51\LIB\C51L.LIB (PUTCHAR)
  C:\KEIL\C51\LIB\C51L.LIB (GETCHAR)
  C:\KEIL\C51\LIB\C51L.LIB (UNGETC)
  C:\KEIL\C51\LIB\C51L.LIB (ISDIGIT)
  C:\KEIL\C51\LIB\C51L.LIB (ISSPACE)
  C:\KEIL\C51\LIB\C51L.LIB (?C?LSTIDATA)
  C:\KEIL\C51\LIB\C51L.LIB (?C?LSTPDATA)
  C:\KEIL\C51\LIB\C51L.LIB (_GETKEY)


LINK MAP OF MODULE:  .\OBJ\NED_5MCMOS_v0_9_f_XXXX_20151106 (?C_STARTUP)


            TYPE    BASE      LENGTH    RELOCATION   SEGMENT NAME
            -----------------------------------------------------

            * * * * * * *   D A T A   M E M O R Y   * * * * * * *
            REG     0000H     0008H     ABSOLUTE     "REG BANK 0"
            DATA    0008H     000AH     UNIT         ?DT?_MONIAUDIOMIXING?COMMANDSHELL
            DATA    0012H     000AH     UNIT         ?DT?_MONIAUDIOGAIN?COMMANDSHELL
            DATA    001CH     0004H     UNIT         ?DT?_MONIREADASICBYTE?COMMANDSHELL
            DATA    0020H     0001H     BIT_ADDR     ?BA?MAIN
            DATA    0021H     0001H     BIT_ADDR     ?BA?OSDACTION_
            DATA    0022H     0001H     BIT_ADDR     ?BA?OSDCTRL
            BIT     0023H.0   0001H.1   UNIT         ?BI?PRINTF?PRINTF
            BIT     0024H.1   0000H.6   UNIT         _BIT_GROUP_
            BIT     0024H.7   0000H.2   UNIT         ?BI?MAIN
            BIT     0025H.1   0000H.1   UNIT         ?BI?_ATOI?ATOI
            BIT     0025H.2   0000H.1   UNIT         ?BI?GETCHAR
                    0025H.3   0000H.5                *** GAP ***
            DATA    0026H     000AH     UNIT         ?DT?_MONIVIDEOMIXATTR?COMMANDSHELL
            DATA    0030H     0009H     UNIT         _DATA_GROUP_
            DATA    0039H     0008H     UNIT         ?DT?_MONISETVIDEOFORMAT?COMMANDSHELL
            DATA    0041H     0006H     UNIT         ?DT?TIMER
            DATA    0047H     0005H     UNIT         ?DT?PRINTF?PRINTF
            DATA    004CH     0003H     UNIT         ?DT?_MONIREADPAGEBUFFER?COMMANDSHELL
            DATA    004FH     0003H     UNIT         ?DT?_MONIWRITEONEBUFFER?COMMANDSHELL
            DATA    0052H     0003H     UNIT         ?DT?_PCT_WRITEOSDFNTX?OSDCTRL
            DATA    0055H     0002H     UNIT         ?DT?_MONIREADONEBUFFER?COMMANDSHELL
            DATA    0057H     0002H     UNIT         ?DT?MONIREGISTERDUMP?COMMANDSHELL
            DATA    0059H     0002H     UNIT         ?DT?_MONIVIDEOMIXWIN?COMMANDSHELL
            DATA    005BH     0002H     UNIT         ?DT?_MONISHOWSODSTR?COMMANDSHELL
            DATA    005DH     0002H     UNIT         ?DT?PCT_AUDIOACTIONFORHS?COMMANDSHELL
            DATA    005FH     0002H     UNIT         ?DT?OSDCTRL
            DATA    0061H     0002H     UNIT         ?DT?_PCT_WRITEOSDFNTY?OSDCTRL
            DATA    0063H     0001H     UNIT         ?DT?_MONIAUDIOLIVE?COMMANDSHELL
            DATA    0064H     0001H     UNIT         ?DT?_PUTSP?MAIN
            DATA    0065H     0001H     UNIT         ?DT?PCT_SHOWVLOSS?OSDACTION_
            DATA    0066H     0001H     UNIT         ?DT?_PCT_AUDIOMIXMUTE?TW28XX_AUDIO
            DATA    0067H     0001H     UNIT         ?DT?PCT_VIDEOLASTMODIFY?TW28XX_VIDEO
            IDATA   0068H     0001H     UNIT         ?STACK
BL51 BANKED LINKER/LOCATER V6.22                                                      11/06/2015  11:37:23  PAGE 3



            * * * * * * *  X D A T A   M E M O R Y  * * * * * * *
            XDATA   0000H     020BH     UNIT         _XDATA_GROUP_
            XDATA   020BH     0081H     UNIT         ?XD?NED
            XDATA   028CH     0066H     UNIT         ?XD?UART
            XDATA   02F2H     0045H     UNIT         ?XD?MAIN
            XDATA   0337H     0028H     UNIT         ?XD?PRINTF?PRINTF
            XDATA   035FH     001FH     UNIT         ?XD?_PCT_WRITEOSDFNTY?OSDCTRL
            XDATA   037EH     001AH     UNIT         ?XD?COMMANDSHELL
            XDATA   0398H     0013H     UNIT         ?XD?_PCT_WRITEOSDFNTX?OSDCTRL
            XDATA   03ABH     0007H     UNIT         ?XD?_PCT_SHOWOSDSTRING?OSDCTRL
            XDATA   03B2H     0006H     UNIT         ?XD?_MONIAUDIOMIXING?COMMANDSHELL
            XDATA   03B8H     0006H     UNIT         ?XD?_MONIAUDIOGAIN?COMMANDSHELL
            XDATA   03BEH     0006H     UNIT         ?XD?_MONIVIDEOMIXATTR?COMMANDSHELL
            XDATA   03C4H     0006H     UNIT         ?XD?_MONISETVIDEOFORMAT?COMMANDSHELL
            XDATA   03CAH     0006H     UNIT         ?XD?_MONISHOWSODSTR?COMMANDSHELL
            XDATA   03D0H     0006H     UNIT         ?XD?_TW2835_GET?NED
            XDATA   03D6H     0005H     UNIT         ?XD?_ATOI?ATOI
            XDATA   03DBH     0004H     UNIT         ?XD?_PCT_WRITEOSDDATABUFFERX?OSDCTRL
            XDATA   03DFH     0004H     UNIT         ?XD?_PCT_WRITEOSDDATABUFFERY?OSDCTRL
            XDATA   03E3H     0004H     UNIT         ?XD?_PCT_AUDIOMIXCTRL?TW28XX_AUDIO
            XDATA   03E7H     0004H     UNIT         ?XD?_CHECK_STARTUP?NED
            XDATA   03EBH     0003H     UNIT         ?XD?_PUTSP?MAIN
            XDATA   03EEH     0003H     UNIT         ?XD?_CHKSTARTCOMMSHELL?MAIN
            XDATA   03F1H     0003H     UNIT         ?XD?_PCT_SHOWSPEAKICON?OSDACTION_
            XDATA   03F4H     0003H     UNIT         ?XD?_PCT_AUDIOGAINCTRL?TW28XX_AUDIO
            XDATA   03F7H     0003H     UNIT         ?XD?_PCT_WINATTRCLEAR?TW28XX_VIDEO
            XDATA   03FAH     0003H     UNIT         ?XD?ADT75_INIT?NED
            XDATA   03FDH     0002H     UNIT         ?XD?_PCT_AUDIOMIXMUTE?TW28XX_AUDIO
            XDATA   03FFH     0002H     UNIT         ?XD?_PCT_SETVIDEOFORMAT?TW28XX_VIDEO
            XDATA   0401H     0002H     UNIT         ?XD?_GET_CAMERA_IRD?NED
            XDATA   0403H     0001H     UNIT         ?XD?OSD_GRAPH
            XDATA   0404H     0001H     UNIT         ?XD?OSDACTION_
            XDATA   0405H     0001H     UNIT         ?XD?_PCT_AUDIOSELLIVE?TW28XX_AUDIO
            XDATA   0406H     0001H     UNIT         ?XD?_PCT_WINPOPUPCTRL?TW28XX_VIDEO
            XDATA   0407H     0001H     UNIT         ?XD?_READI2C2?NED
            XDATA   0408H     0001H     UNIT         ?XD?_WRITEI2CWORD?NED
            XDATA   0409H     0001H     UNIT         ?XD?_SET_CHANNEL?NED
            XDATA   040AH     0001H     UNIT         ?XD?SEND_CAMERA_VER?NED
            XDATA   040BH     0001H     UNIT         ?XD?SENT_DVR_VER?NED
            XDATA   040CH     0001H     UNIT         ?XD?SENT_DVR_YEAR?NED
            XDATA   040DH     0001H     UNIT         ?XD?_COMMAND_CHECK?NED
            XDATA   040EH     0001H     UNIT         ?XD?_GET_DATA?NED
            XDATA   040FH     0001H     UNIT         ?XD?_ENABLETRANSMIT?NED
            XDATA   0410H     0001H     UNIT         ?XD?_PEEK?NED
            XDATA   0411H     0001H     UNIT         ?XD?_SET_INT?NED
            XDATA   0412H     0001H     UNIT         ?XD?GETCHAR

            * * * * * * *   C O D E   M E M O R Y   * * * * * * *
            CODE    0000H     0003H     ABSOLUTE     
            CODE    0003H     0008H     UNIT         ?PR?_RS_TX?UART
            CODE    000BH     0003H     ABSOLUTE     
            CODE    000EH     0015H     UNIT         ?PR?_READI2C2?NED
            CODE    0023H     0003H     ABSOLUTE     
            CODE    0026H     0005H     UNIT         ?PR?MONIHSCOMMDISSCROLL?COMMANDSHELL
            CODE    002BH     0003H     ABSOLUTE     
            CODE    002EH     16CAH     UNIT         ?CO?OSD_GRAPH
BL51 BANKED LINKER/LOCATER V6.22                                                      11/06/2015  11:37:23  PAGE 4


            CODE    16F8H     0EA0H     UNIT         ?CO?OSDCTRL
            CODE    2598H     0703H     UNIT         ?C?LIB_CODE
            CODE    2C9BH     0584H     UNIT         ?PR?PCT_SHOWVLOSS?OSDACTION_
            CODE    321FH     04DEH     UNIT         ?PR?_PCT_SHOWMIRRORICON?OSDACTION_
            CODE    36FDH     04AAH     UNIT         ?PR?_PCT_SHOWSPEAKICON?OSDACTION_
            CODE    3BA7H     0459H     UNIT         ?CO?TW28XX_VIDEO
            CODE    4000H     0400H     UNIT         ?CO?TW2835_INIT
            CODE    4400H     03AEH     UNIT         ?PR?_PCT_OSD_ACTIONPTHX?OSDACTION_
            CODE    47AEH     0365H     UNIT         ?PR?PRINTF?PRINTF
            CODE    4B13H     0322H     UNIT         ?PR?SCANF?SCANF
            CODE    4E35H     0320H     UNIT         ?PR?_MONITOR_SET?MAIN
            CODE    5155H     02F8H     UNIT         ?PR?_PCT_SETVIDEOHDELAY?TW28XX_VIDEO
            CODE    544DH     027EH     UNIT         ?CO?COMMANDSHELL
            CODE    56CBH     021FH     UNIT         ?PR?COMMANDSHELL
            CODE    58EAH     0217H     UNIT         ?PR?_MONIVIDEOMIXATTR?COMMANDSHELL
            CODE    5B01H     01DAH     UNIT         ?CO?MAIN
            CODE    5CDBH     01D9H     UNIT         ?PR?PCT_AUDIOREGLIST?TW28XX_AUDIO
            CODE    5EB4H     01D9H     UNIT         ?PR?_SC16_SENDDATASELECT?NED
            CODE    608DH     01D7H     UNIT         ?PR?_SC16_BCC_CHECK?NED
            CODE    6264H     01A3H     UNIT         ?PR?_PCT_SETXVIDEOMIXING?TW28XX_VIDEO
            CODE    6407H     01A2H     UNIT         ?PR?_PCT_OSD16X16GRAPHX?OSD_GRAPH
            CODE    65A9H     017CH     UNIT         ?PR?_PCT_WRITEOSDDATABUFFERX?OSDCTRL
            CODE    6725H     0178H     UNIT         ?PR?_MONIAUDIOMIXING?COMMANDSHELL
            CODE    689DH     016AH     UNIT         ?PR?OSDCTRL
            CODE    6A07H     0169H     UNIT         ?PR?NED
            CODE    6B70H     0166H     UNIT         ?PR?_PCT_SHOWINDICATEICON?OSDACTION_
            CODE    6CD6H     0163H     UNIT         ?PR?MAIN?MAIN
            CODE    6E39H     015FH     UNIT         ?C_INITSEG
            CODE    6F98H     014EH     UNIT         ?PR?_MONIHSCOMM?COMMANDSHELL
            CODE    70E6H     0144H     UNIT         ?PR?_MONIAUDIOGAIN?COMMANDSHELL
            CODE    722AH     0141H     UNIT         ?PR?_PCT_RECOMPENSEYHDELAY?TW28XX_VIDEO
            CODE    736BH     013AH     UNIT         ?PR?PCT_INITOSDCOLOR?OSDCTRL
            CODE    74A5H     0124H     UNIT         ?PR?_PCT_WRITEOSDFNTX?OSDCTRL
            CODE    75C9H     0124H     UNIT         ?PR?_PCT_WRITEOSDDATABUFFERY?OSDCTRL
            CODE    76EDH     011EH     UNIT         ?PR?PRESS_CHECK?MAIN
            CODE    780BH     011DH     UNIT         ?PR?_MONISETVIDEOFORMAT?COMMANDSHELL
            CODE    7928H     011BH     UNIT         ?PR?TW28XX_VIDEO
            CODE    7A43H     00F2H     UNIT         ?PR?_PCT_WRITEOSDFNTY?OSDCTRL
            CODE    7B35H     00EFH     UNIT         ?PR?_PCT_RUNCOMMSHELL?COMMANDSHELL
            CODE    7C24H     00DDH     UNIT         ?PR?TIMER2_INTERRUPT?TIMER
            CODE    7D01H     00DBH     UNIT         ?PR?_ATOI?ATOI
            CODE    7DDCH     00D9H     UNIT         ?PR?COMMANDSHELL?MAIN
            CODE    7EB5H     00CFH     UNIT         ?PR?MAIN
            CODE    7F84H     00CEH     UNIT         ?PR?_SET_PWM_OUTPUT?MAIN
            CODE    8052H     00BAH     UNIT         ?PR?_SETBAUDRATE?NED
            CODE    810CH     00B8H     UNIT         ?PR?OSDACTION_
            CODE    81C4H     00B6H     UNIT         ?PR?_PCT_CLEARWORDSPATHX?OSDCTRL
            CODE    827AH     00ADH     UNIT         ?PR?_SC16_COMCHECK?NED
            CODE    8327H     00AAH     UNIT         ?PR?_PCT_FULLCOLORONOSD?OSDCTRL
            CODE    83D1H     00A9H     UNIT         ?PR?_TW2835_GET?NED
            CODE    847AH     0099H     UNIT         ?PR?_PCT_SETCHANELSCALE?TW28XX_VIDEO
            CODE    8513H     0099H     UNIT         ?PR?CAMERA_MOVE?NED
            CODE    85ACH     0098H     UNIT         ?PR?_CHECK_STARTUP?NED
            CODE    8644H     0096H     UNIT         ?PR?CHECK_OTHER_COM?NED
            CODE    86DAH     008EH     UNIT         ?PR?PCT_VIDEOLASTMODIFY?TW28XX_VIDEO
            CODE    8768H     008CH     UNIT         ?C_C51STARTUP
            CODE    87F4H     008CH     UNIT         ?PR?_PCT_READASICBYTE?BUSCTRL
BL51 BANKED LINKER/LOCATER V6.22                                                      11/06/2015  11:37:23  PAGE 5


            CODE    8880H     0081H     UNIT         ?PR?_PCT_WRITEASICTABLE?BUSCTRL
            CODE    8901H     0080H     UNIT         ?PR?SC16_INIT?NED
            CODE    8981H     007BH     UNIT         ?PR?_SET_CHANNEL?NED
            CODE    89FCH     0079H     UNIT         ?PR?_I2CWRITEDATA?NED
            CODE    8A75H     0073H     UNIT         ?PR?_BOUND_SET?NED
            CODE    8AE8H     0071H     UNIT         ?PR?_PCT_AUDIOMIXCTRL?TW28XX_AUDIO
            CODE    8B59H     0070H     UNIT         ?PR?_PCT_GETFIRSTSTR?COMMANDSHELL
            CODE    8BC9H     006BH     UNIT         ?PR?_PCT_AUDIOGAINCTRL?TW28XX_AUDIO
            CODE    8C34H     006AH     UNIT         ?PR?_I2CWRITEDATA2?NED
            CODE    8C9EH     0069H     UNIT         ?PR?PCT_CHECKSYSTEM?COMMANDSHELL
            CODE    8D07H     0069H     UNIT         ?PR?_GET_DATA?NED
            CODE    8D70H     0067H     UNIT         ?PR?PCT_TW2835_INITIAL?TW2835_INIT
            CODE    8DD7H     0067H     UNIT         ?PR?_SETLINE?NED
            CODE    8E3EH     0064H     UNIT         ?PR?_PCT_WRITEASICBYTE?BUSCTRL
            CODE    8EA2H     0064H     UNIT         ?PR?_PCT_CHANGESYSTEMTYPE?TW2835_INIT
            CODE    8F06H     0063H     UNIT         ?PR?GPIO_CHECK?NED
            CODE    8F69H     0061H     UNIT         ?PR?_MONISHOWSODSTR?COMMANDSHELL
            CODE    8FCAH     0061H     UNIT         ?PR?CAMERA_VERSION_CHECK?MAIN
            CODE    902BH     0061H     UNIT         ?PR?_PCT_SHOWGRAPHSTRING?OSD_GRAPH
            CODE    908CH     005EH     UNIT         ?PR?_PCT_SHOWOSDSTRING?OSDCTRL
            CODE    90EAH     0059H     UNIT         ?PR?_PCT_SETOSDCOLOR?OSDCTRL
            CODE    9143H     0056H     UNIT         ?PR?_MONIVIDEOMIXWIN?COMMANDSHELL
            CODE    9199H     0055H     UNIT         ?PR?VERSION_CHECK?MAIN
            CODE    91EEH     0052H     UNIT         ?PR?_PCT_WRITESTABLE?BUSCTRL
            CODE    9240H     0051H     UNIT         ?PR?TEMP_CHECK?MAIN
            CODE    9291H     0050H     UNIT         ?PR?_WAIT_MS?MAIN
            CODE    92E1H     004DH     UNIT         ?PR?_MONIWRITEASICBYTE?COMMANDSHELL
            CODE    932EH     004CH     UNIT         ?PR?PCT_INITIALOSD?OSDACTION_
            CODE    937AH     004BH     UNIT         ?PR?MONIREGISTERDUMP?COMMANDSHELL
            CODE    93C5H     004BH     UNIT         ?PR?_PCT_DETECTVIDEOFORMAT?TW28XX_VIDEO
            CODE    9410H     004AH     UNIT         ?PR?INITIALMPU?MAIN
            CODE    945AH     004AH     UNIT         ?PR?I2C_ACK2?NED
            CODE    94A4H     004AH     UNIT         ?PR?_SET_CAMERA_SPEED?NED
            CODE    94EEH     0048H     UNIT         ?PR?_PCT_CHECKVMIXTYPE?COMMANDSHELL
            CODE    9536H     0048H     UNIT         ?PR?_MONIREADASICBYTE?COMMANDSHELL
            CODE    957EH     0047H     UNIT         ?PR?_MONIREADPAGEBUFFER?COMMANDSHELL
            CODE    95C5H     0047H     UNIT         ?PR?PCT_AUDIOACTIONFORHS?COMMANDSHELL
            CODE    960CH     0047H     UNIT         ?PR?PCT_GETVIDEOSIGNALSTATUS?OSDACTION_
            CODE    9653H     0047H     UNIT         ?PR?SEND_CAMERA_VER?NED
            CODE    969AH     0047H     UNIT         ?PR?SENT_CAMERA_ANG?NED
            CODE    96E1H     0047H     UNIT         ?PR?SENT_CAMERA_RANG?NED
            CODE    9728H     0047H     UNIT         ?PR?SENT_DVR_VER?NED
            CODE    976FH     0046H     UNIT         ?PR?SEND_CAMERA_PRESS?NED
            CODE    97B5H     0046H     UNIT         ?PR?SENT_DVR_YEAR?NED
            CODE    97FBH     0045H     UNIT         ?PR?PCT_SHOWMODEICON?OSDACTION_
            CODE    9840H     0045H     UNIT         ?PR?_GET_CAMERA_IRD?NED
            CODE    9885H     0044H     UNIT         ?C?LDIV
            CODE    98C9H     0043H     UNIT         ?PR?PCT_INITIALTW2835?TW2835_INIT
            CODE    990CH     0041H     UNIT         ?PR?_SC16_DATA_RESET?NED
            CODE    994DH     0040H     UNIT         ?CO?TW28XX_AUDIO
            CODE    998DH     0040H     UNIT         ?PR?_PCT_WINATTRCLEAR?TW28XX_VIDEO
            CODE    99CDH     003DH     UNIT         ?PR?_PCT_STRTOCOMMCODE?COMMANDSHELL
            CODE    9A0AH     003CH     UNIT         ?PR?BUSCTRL
            CODE    9A46H     003CH     UNIT         ?PR?_PCT_WINATTRCTRLY?TW28XX_VIDEO
            CODE    9A82H     003AH     UNIT         ?PR?MONIVIDEOAUTODETECT?COMMANDSHELL
            CODE    9ABCH     003AH     UNIT         ?PR?SENT_DVR_TEMP?NED
            CODE    9AF6H     0039H     UNIT         ?PR?SEND_CAMERA_TEMP?NED
BL51 BANKED LINKER/LOCATER V6.22                                                      11/06/2015  11:37:23  PAGE 6


            CODE    9B2FH     0038H     UNIT         ?PR?OSD_GRAPH
            CODE    9B67H     0037H     UNIT         ?PR?_MONIREADONEBUFFER?COMMANDSHELL
            CODE    9B9EH     0037H     UNIT         ?PR?TW28XX_AUDIO
            CODE    9BD5H     0037H     UNIT         ?PR?_READI2CWORD?NED
            CODE    9C0CH     0036H     UNIT         ?PR?_PCT_ENSHOWOSDPAGE?OSDCTRL
            CODE    9C42H     0036H     UNIT         ?PR?_PCT_AUDIOMIXMUTE?TW28XX_AUDIO
            CODE    9C78H     0036H     UNIT         ?CO?NED
            CODE    9CAEH     0035H     UNIT         ?PR?_PUTSP?MAIN
            CODE    9CE3H     0035H     UNIT         ?PR?_PCT_WINATTRCTRL?TW28XX_VIDEO
            CODE    9D18H     0034H     UNIT         ?PR?_MONIWRITEONEBUFFER?COMMANDSHELL
            CODE    9D4CH     0034H     UNIT         ?PR?_PCT_DISSHOWOSDPAGE?OSDCTRL
            CODE    9D80H     0032H     UNIT         ?PR?REPEAT_PWM_COM?NED
            CODE    9DB2H     0032H     UNIT         ?PR?SC16_DATACHECK?NED
            CODE    9DE4H     0030H     UNIT         ?PR?_PCT_AUDIOSELLIVE?TW28XX_AUDIO
            CODE    9E14H     002EH     UNIT         ?PR?_PCT_SETVIDEOFORMAT?TW28XX_VIDEO
            CODE    9E42H     002EH     UNIT         ?PR?I2CREADDATAWITHACK2?NED
            CODE    9E70H     002DH     UNIT         ?PR?RS_INTERRUPT?UART
            CODE    9E9DH     002DH     UNIT         ?PR?_PWM_SET?MAIN
            CODE    9ECAH     002CH     UNIT         ?PR?_CHKSTARTCOMMSHELL?MAIN
            CODE    9EF6H     002CH     UNIT         ?PR?GET_CAMERA_VER?NED
            CODE    9F22H     002CH     UNIT         ?PR?GET_CAMERA_ANG?NED
            CODE    9F4EH     002CH     UNIT         ?PR?GET_CAMERA_RANG?NED
            CODE    9F7AH     002CH     UNIT         ?PR?GET_DVR_TEMP?NED
            CODE    9FA6H     002CH     UNIT         ?PR?GET_DVR_VER?NED
            CODE    9FD2H     002CH     UNIT         ?PR?GET_DVR_YEAR?NED
            CODE    9FFEH     002CH     UNIT         ?PR?GET_DVR_MD?NED
            CODE    A02AH     002CH     UNIT         ?PR?GET_DVR_HS?NED
            CODE    A056H     002BH     UNIT         ?PR?I2CREADDATAWITHACK?NED
            CODE    A081H     002AH     UNIT         ?PR?_BCC_CAL?NED
            CODE    A0ABH     002AH     UNIT         ?PR?_PUTS?PUTS
            CODE    A0D5H     0029H     UNIT         ?PR?ADT75_INIT?NED
            CODE    A0FEH     0028H     UNIT         ?PR?I2CREADDATA2?NED
            CODE    A126H     0027H     UNIT         ?PR?PUTCHAR?PUTCHAR
            CODE    A14DH     0026H     UNIT         ?PR?RESETCOMMSELL?MAIN
            CODE    A173H     0026H     UNIT         ?PR?PCT_OSDACTIONFORHS?OSDACTION_
            CODE    A199H     0026H     UNIT         ?PR?_PCT_WINPOPUPCTRL?TW28XX_VIDEO
            CODE    A1BFH     0025H     UNIT         ?PR?I2CREADDATA?NED
            CODE    A1E4H     0021H     UNIT         ?PR?_SC16_SENDDATA?NED
            CODE    A205H     0020H     UNIT         ?CO?OSDACTION_
            CODE    A225H     0020H     UNIT         ?PR?_ADC_READ?NED
            CODE    A245H     001FH     UNIT         ?PR?_PCT_SETOSDDRAWPAGE?OSDCTRL
            CODE    A264H     001FH     UNIT         ?PR?_PING?NED
            CODE    A283H     001EH     UNIT         ?PR?_ENABLETRANSMIT?NED
            CODE    A2A1H     001DH     UNIT         ?PR?INITIALTIMER2?TIMER
            CODE    A2BEH     001DH     UNIT         ?PR?_WRITEI2CWORD?NED
            CODE    A2DBH     001CH     UNIT         ?PR?_READI2C?NED
            CODE    A2F7H     001AH     UNIT         ?PR?_PCT_CLEAROSDPAGEX?OSDCTRL
            CODE    A311H     0019H     UNIT         ?PR?RS_RX?UART
            CODE    A32AH     0019H     UNIT         ?PR?TW2835_INIT
            CODE    A343H     0018H     UNIT         ?PR?_WRITEI2C?NED
            CODE    A35BH     0018H     UNIT         ?PR?_SET_INT?NED
            CODE    A373H     0016H     UNIT         ?PR?INITIALUART?UART
            CODE    A389H     0016H     UNIT         ?PR?_MONIHSCOMMSJMODE?COMMANDSHELL
            CODE    A39FH     0016H     UNIT         ?PR?_PARITY?NED
            CODE    A3B5H     0015H     UNIT         ?PR?_STRLEN?STRLEN
            CODE    A3CAH     0014H     UNIT         ?PR?_MONIAUDIOLIVE?COMMANDSHELL
            CODE    A3DEH     0014H     UNIT         ?PR?_PCT_SETYVIDEOMIXING?TW28XX_VIDEO
BL51 BANKED LINKER/LOCATER V6.22                                                      11/06/2015  11:37:23  PAGE 7


            CODE    A3F2H     0014H     UNIT         ?PR?I2C_100KHZ?NED
            CODE    A406H     0014H     UNIT         ?PR?GETCHAR?GETCHAR
            CODE    A41AH     0014H     UNIT         ?PR?_ISSPACE?ISSPACE
            CODE    A42EH     0013H     UNIT         ?PR?MONIHSCOMMVERSION?COMMANDSHELL
            CODE    A441H     0013H     UNIT         ?PR?PCT_TW2835RESETN?TW2835_INIT
            CODE    A454H     0012H     UNIT         ?PR?_MONIYVIDEOMIX?COMMANDSHELL
            CODE    A466H     0012H     UNIT         ?PR?I2CSTART?NED
            CODE    A478H     0012H     UNIT         ?PR?I2CSTART2?NED
            CODE    A48AH     0010H     UNIT         ?PR?RS_RXREADY?UART
            CODE    A49AH     0010H     UNIT         ?PR?_POWER_ONOFF?NED
            CODE    A4AAH     000FH     UNIT         ?PR?MONIAUDIOMUTE?COMMANDSHELL
            CODE    A4B9H     000FH     UNIT         ?PR?PWM_INIT?MAIN
            CODE    A4C8H     000FH     UNIT         ?PR?I2CDELAY?NED
            CODE    A4D7H     000FH     UNIT         ?PR?I2CDELAY2?NED
            CODE    A4E6H     000FH     UNIT         ?PR?_SENT_CAMERA_IRD?NED
            CODE    A4F5H     000FH     UNIT         ?PR?_RESETDEVICE?NED
            CODE    A504H     000FH     UNIT         ?PR?_ISDIGIT?ISDIGIT
            CODE    A513H     000DH     UNIT         ?PR?TIMER0_INTERRUPT?TIMER
            CODE    A520H     000DH     UNIT         ?PR?I2CSTOP?NED
            CODE    A52DH     000DH     UNIT         ?PR?I2CSTOP2?NED
            CODE    A53AH     000DH     UNIT         ?PR?_READBYTE?NED
            CODE    A547H     000CH     UNIT         ?PR?INITIALCOMMSHELL?MAIN
            CODE    A553H     000BH     UNIT         ?PR?UART
            CODE    A55EH     000BH     UNIT         ?PR?_WRITEI2C2?NED
            CODE    A569H     000BH     UNIT         ?PR?_FLUSH?NED
            CODE    A574H     000AH     UNIT         ?PR?_PEEK?NED
            CODE    A57EH     000AH     UNIT         ?PR?_GETKEY?_GETKEY
            CODE    A588H     0009H     UNIT         ?PR?NEWLINE?MAIN
            CODE    A591H     0009H     UNIT         ?PR?_PCT_FLASHOSDCTRL?MAIN
            CODE    A59AH     0009H     UNIT         ?PR?INITIALTIMER0?TIMER
            CODE    A5A3H     0009H     UNIT         ?PR?I2C_ACK?NED
            CODE    A5ACH     0009H     UNIT         ?PR?_GPIOSETPORTMODE?NED
            CODE    A5B5H     0009H     UNIT         ?PR?_GPIOSETPORTSTATE?NED
            CODE    A5BEH     0009H     UNIT         ?PR?_WRITEBYTE?NED
            CODE    A5C7H     0009H     UNIT         ?PR?MCTRL_SET?NED
            CODE    A5D0H     0008H     UNIT         ?PR?PCT_ENFALSHVLOSS?OSDACTION_
            CODE    A5D8H     0008H     UNIT         ?PR?GETCHAR?UNGETCHAR
            CODE    A5E0H     0006H     UNIT         ?PR?PCT_CLEARGRAPHATTR?OSD_GRAPH
            CODE    A5E6H     0006H     UNIT         ?PR?_PCT_PRESETGRAPHATTR?OSD_GRAPH
            CODE    A5ECH     0006H     UNIT         ?PR?_COMMAND_CHECK?NED
            CODE    A5F2H     0006H     UNIT         ?PR?_GPIOGETPORTSTATE?NED
            CODE    A5F8H     0006H     UNIT         ?PR?_FIFOAVAILABLEDATA?NED
            CODE    A5FEH     0006H     UNIT         ?PR?_FIFOAVAILABLESPACE?NED
            CODE    A604H     0003H     UNIT         ?PR?_PCT_PRESETFOREGROUNDCOLOR?OSDCTRL
            CODE    A607H     0003H     UNIT         ?PR?_PCT_PRESETBACKGROUNDCOLOR?OSDCTRL
            CODE    A60AH     0001H     UNIT         ?PR?PTC_SWITCHTOI2CMODE?BUSCTRL
            CODE    A60BH     0001H     UNIT         ?PR?PCT_SENDACK?COMMANDSHELL
            CODE    A60CH     0001H     UNIT         ?PR?SENT_DVR_MDR?NED
            CODE    A60DH     0001H     UNIT         ?PR?SENT_DVR_HS?NED



OVERLAY MAP OF MODULE:   .\OBJ\NED_5MCMOS_v0_9_f_XXXX_20151106 (?C_STARTUP)


SEGMENT                                            BIT_GROUP          DATA_GROUP          XDATA_GROUP
  +--> CALLED SEGMENT                           START    LENGTH     START    LENGTH     START    LENGTH
BL51 BANKED LINKER/LOCATER V6.22                                                      11/06/2015  11:37:23  PAGE 8


-------------------------------------------------------------------------------------------------------
?C_C51STARTUP                                   -----    -----      -----    -----      -----    -----
  +--> ?PR?MAIN?MAIN
  +--> ?C_INITSEG

?PR?MAIN?MAIN                                   -----    -----      -----    -----      0000H    0006H
  +--> ?PR?MAIN
  +--> ?PR?INITIALMPU?MAIN
  +--> ?PR?PWM_INIT?MAIN
  +--> ?PR?INITIALCOMMSHELL?MAIN
  +--> ?PR?RESETCOMMSELL?MAIN
  +--> ?PR?_POWER_ONOFF?NED
  +--> ?PR?SC16_INIT?NED
  +--> ?PR?_MONITOR_SET?MAIN
  +--> ?PR?_GPIOGETPORTSTATE?NED
  +--> ?PR?COMMANDSHELL?MAIN
  +--> ?PR?_PCT_RUNCOMMSHELL?COMMANDSHELL
  +--> ?PR?PCT_CHECKSYSTEM?COMMANDSHELL
  +--> ?PR?RS_RXREADY?UART
  +--> ?PR?PCT_GETVIDEOSIGNALSTATUS?OSDACTION_
  +--> ?PR?GPIO_CHECK?NED
  +--> ?PR?CAMERA_MOVE?NED
  +--> ?PR?_SC16_DATA_RESET?NED
  +--> ?PR?SC16_DATACHECK?NED
  +--> ?PR?_SET_CAMERA_SPEED?NED

?PR?INITIALMPU?MAIN                             -----    -----      -----    -----      -----    -----
  +--> ?PR?INITIALUART?UART
  +--> ?PR?INITIALTIMER0?TIMER
  +--> ?PR?INITIALTIMER2?TIMER

?PR?RESETCOMMSELL?MAIN                          -----    -----      -----    -----      -----    -----
  +--> ?PR?MAIN

?PR?_POWER_ONOFF?NED                            -----    -----      -----    -----      -----    -----
  +--> ?PR?_WAIT_MS?MAIN

?PR?_WAIT_MS?MAIN                               -----    -----      -----    -----      01D5H    0004H

?PR?SC16_INIT?NED                               -----    -----      -----    -----      0006H    0001H
  +--> ?PR?_WAIT_MS?MAIN
  +--> ?PR?NED
  +--> ?PR?_RESETDEVICE?NED
  +--> ?PR?_SETBAUDRATE?NED
  +--> ?PR?_SETLINE?NED
  +--> ?PR?_WRITEI2C?NED
  +--> ?PR?_GPIOSETPORTMODE?NED
  +--> ?PR?_GPIOSETPORTSTATE?NED

?PR?NED                                         -----    -----      -----    -----      -----    -----
  +--> ?PR?I2CDELAY?NED
  +--> ?PR?I2CDELAY2?NED
  +--> ?PR?I2CSTART?NED
  +--> ?PR?_I2CWRITEDATA?NED
  +--> ?PR?_WRITEI2C?NED
  +--> ?PR?_READI2C?NED

BL51 BANKED LINKER/LOCATER V6.22                                                      11/06/2015  11:37:23  PAGE 9


?PR?I2CSTART?NED                                -----    -----      -----    -----      -----    -----
  +--> ?PR?I2CDELAY?NED

?PR?_I2CWRITEDATA?NED                           -----    -----      -----    -----      -----    -----
  +--> ?PR?I2CSTART?NED
  +--> ?PR?I2CDELAY?NED

?PR?_WRITEI2C?NED                               -----    -----      -----    -----      -----    -----
  +--> ?PR?I2CSTOP?NED

?PR?I2CSTOP?NED                                 -----    -----      -----    -----      -----    -----
  +--> ?PR?I2CDELAY?NED

?PR?_READI2C?NED                                -----    -----      -----    -----      -----    -----
  +--> ?PR?_I2CWRITEDATA?NED
  +--> ?PR?I2CREADDATA?NED
  +--> ?PR?I2CSTOP?NED

?PR?I2CREADDATA?NED                             -----    -----      -----    -----      -----    -----
  +--> ?PR?I2CDELAY?NED

?PR?_RESETDEVICE?NED                            -----    -----      -----    -----      -----    -----
  +--> ?PR?NED
  +--> ?PR?_WRITEI2C?NED

?PR?_SETBAUDRATE?NED                            -----    -----      -----    -----      0007H    000AH
  +--> ?PR?_READI2C?NED
  +--> ?PR?_WRITEI2C?NED

?PR?_SETLINE?NED                                -----    -----      -----    -----      0007H    0004H
  +--> ?PR?NED
  +--> ?PR?_WRITEI2C?NED

?PR?_GPIOSETPORTMODE?NED                        -----    -----      -----    -----      -----    -----
  +--> ?PR?_WRITEI2C?NED

?PR?_GPIOSETPORTSTATE?NED                       -----    -----      -----    -----      -----    -----
  +--> ?PR?_WRITEI2C?NED

?PR?_MONITOR_SET?MAIN                           -----    -----      -----    -----      0006H    01CFH
  +--> ?CO?MAIN
  +--> ?PR?MAIN
  +--> ?PR?PCT_INITIALTW2835?TW2835_INIT
  +--> ?PR?_PCT_RUNCOMMSHELL?COMMANDSHELL
  +--> ?PR?_PCT_WRITEASICBYTE?BUSCTRL
  +--> ?PR?_BOUND_SET?NED

?PR?PCT_INITIALTW2835?TW2835_INIT               -----    -----      -----    -----      -----    -----
  +--> ?PR?PCT_TW2835RESETN?TW2835_INIT
  +--> ?PR?_PCT_READASICBYTE?BUSCTRL
  +--> ?PR?_PCT_DETECTVIDEOFORMAT?TW28XX_VIDEO
  +--> ?PR?_WAIT_MS?MAIN
  +--> ?PR?PCT_TW2835_INITIAL?TW2835_INIT
  +--> ?PR?PCT_INITIALOSD?OSDACTION_

?PR?_PCT_READASICBYTE?BUSCTRL                   -----    -----      -----    -----      01F2H    0004H
  +--> ?PR?MCTRL_SET?NED
BL51 BANKED LINKER/LOCATER V6.22                                                      11/06/2015  11:37:23  PAGE 10


  +--> ?PR?BUSCTRL

?PR?_PCT_DETECTVIDEOFORMAT?TW28XX_VIDEO         -----    -----      -----    -----      01D5H    0002H
  +--> ?PR?_PCT_READASICBYTE?BUSCTRL

?PR?PCT_TW2835_INITIAL?TW2835_INIT              -----    -----      -----    -----      01D5H    0002H
  +--> ?PR?TW2835_INIT
  +--> ?CO?TW2835_INIT
  +--> ?PR?_PCT_WRITEASICTABLE?BUSCTRL

?PR?TW2835_INIT                                 -----    -----      -----    -----      -----    -----
  +--> ?CO?TW2835_INIT

?PR?_PCT_WRITEASICTABLE?BUSCTRL                 -----    -----      -----    -----      01D7H    0007H
  +--> ?PR?BUSCTRL
  +--> ?PR?MCTRL_SET?NED

?PR?PCT_INITIALOSD?OSDACTION_                   -----    -----      0030H    0001H      -----    -----
  +--> ?PR?PCT_INITOSDCOLOR?OSDCTRL
  +--> ?PR?PCT_CLEARGRAPHATTR?OSD_GRAPH
  +--> ?PR?_PCT_PRESETFOREGROUNDCOLOR?OSDCTRL
  +--> ?PR?_PCT_PRESETBACKGROUNDCOLOR?OSDCTRL
  +--> ?PR?_PCT_ENSHOWOSDPAGE?OSDCTRL
  +--> ?PR?_PCT_SETOSDDRAWPAGE?OSDCTRL
  +--> ?PR?_PCT_FULLCOLORONOSD?OSDCTRL

?PR?PCT_INITOSDCOLOR?OSDCTRL                    -----    -----      -----    -----      -----    -----
  +--> ?PR?_PCT_WRITEASICBYTE?BUSCTRL
  +--> ?PR?OSDCTRL
  +--> ?PR?_PCT_SETOSDCOLOR?OSDCTRL

?PR?_PCT_WRITEASICBYTE?BUSCTRL                  -----    -----      -----    -----      01F2H    0004H
  +--> ?PR?BUSCTRL
  +--> ?PR?MCTRL_SET?NED

?PR?OSDCTRL                                     -----    -----      -----    -----      -----    -----
  +--> ?CO?OSDCTRL

?PR?_PCT_SETOSDCOLOR?OSDCTRL                    -----    -----      -----    -----      01D5H    0005H
  +--> ?PR?_PCT_WRITEASICBYTE?BUSCTRL

?PR?_PCT_ENSHOWOSDPAGE?OSDCTRL                  -----    -----      -----    -----      01DDH    0001H
  +--> ?PR?OSDCTRL
  +--> ?PR?_PCT_WRITEASICBYTE?BUSCTRL
  +--> ?PR?_PCT_READASICBYTE?BUSCTRL

?PR?_PCT_SETOSDDRAWPAGE?OSDCTRL                 -----    -----      -----    -----      01DDH    0001H
  +--> ?PR?OSDCTRL
  +--> ?PR?_PCT_READASICBYTE?BUSCTRL
  +--> ?PR?_PCT_WRITEASICBYTE?BUSCTRL

?PR?_PCT_FULLCOLORONOSD?OSDCTRL                 -----    -----      -----    -----      01DDH    0006H
  +--> ?PR?OSDCTRL
  +--> ?PR?_PCT_WRITEASICBYTE?BUSCTRL
  +--> ?PR?_PCT_READASICBYTE?BUSCTRL

?PR?_PCT_RUNCOMMSHELL?COMMANDSHELL              -----    -----      -----    -----      01D5H    0008H
BL51 BANKED LINKER/LOCATER V6.22                                                      11/06/2015  11:37:23  PAGE 11


  +--> ?PR?COMMANDSHELL
  +--> ?PR?_PCT_GETFIRSTSTR?COMMANDSHELL
  +--> ?PR?_PCT_STRTOCOMMCODE?COMMANDSHELL
  +--> ?CO?COMMANDSHELL
  +--> ?PR?_MONIWRITEASICBYTE?COMMANDSHELL
  +--> ?PR?_MONIYVIDEOMIX?COMMANDSHELL
  +--> ?PR?_MONIHSCOMM?COMMANDSHELL
  +--> ?PR?PCT_OSDACTIONFORHS?OSDACTION_
  +--> ?PR?_PCT_FLASHOSDCTRL?MAIN
  +--> ?PR?_MONIHSCOMMSJMODE?COMMANDSHELL
  +--> ?PR?REPEAT_PWM_COM?NED
  +--> ?PR?_PWM_SET?MAIN

?PR?COMMANDSHELL                                -----    -----      -----    -----      -----    -----
  +--> ?CO?COMMANDSHELL
  +--> ?PR?PCT_SENDACK?COMMANDSHELL

?PR?_PCT_GETFIRSTSTR?COMMANDSHELL               -----    -----      -----    -----      01DDH    0006H
  +--> ?PR?COMMANDSHELL

?PR?_PCT_STRTOCOMMCODE?COMMANDSHELL             -----    -----      0030H    0002H      01DDH    0003H
  +--> ?PR?COMMANDSHELL

?PR?_MONIWRITEASICBYTE?COMMANDSHELL             -----    -----      0030H    0004H      -----    -----
  +--> ?PR?COMMANDSHELL
  +--> ?CO?COMMANDSHELL
  +--> ?PR?SCANF?SCANF
  +--> ?PR?_PCT_WRITEASICBYTE?BUSCTRL

?PR?SCANF?SCANF                                 0024H.1  0000H.6    0034H    0005H      01DDH    002EH
  +--> ?PR?GETCHAR?UNGETCHAR
  +--> ?PR?_ISSPACE?ISSPACE
  +--> ?PR?GETCHAR?GETCHAR

?PR?GETCHAR?GETCHAR                             -----    -----      -----    -----      -----    -----
  +--> ?PR?_GETKEY?_GETKEY
  +--> ?PR?PUTCHAR?PUTCHAR

?PR?_MONIYVIDEOMIX?COMMANDSHELL                 -----    -----      0030H    0001H      -----    -----
  +--> ?PR?COMMANDSHELL
  +--> ?PR?SCANF?SCANF
  +--> ?PR?_PCT_SETYVIDEOMIXING?TW28XX_VIDEO

?PR?_PCT_SETYVIDEOMIXING?TW28XX_VIDEO           -----    -----      -----    -----      -----    -----
  +--> ?CO?TW28XX_VIDEO
  +--> ?PR?_PCT_WRITESTABLE?BUSCTRL

?PR?_PCT_WRITESTABLE?BUSCTRL                    -----    -----      -----    -----      01E4H    0003H
  +--> ?PR?BUSCTRL
  +--> ?PR?_PCT_READASICBYTE?BUSCTRL
  +--> ?PR?_PCT_WRITEASICBYTE?BUSCTRL

?PR?_MONIHSCOMM?COMMANDSHELL                    -----    -----      0030H    0003H      -----    -----
  +--> ?PR?COMMANDSHELL
  +--> ?CO?COMMANDSHELL
  +--> ?PR?SCANF?SCANF
  +--> ?PR?_PCT_WINATTRCTRLY?TW28XX_VIDEO
BL51 BANKED LINKER/LOCATER V6.22                                                      11/06/2015  11:37:23  PAGE 12


  +--> ?PR?_PCT_RECOMPENSEYHDELAY?TW28XX_VIDEO
  +--> ?PR?_PCT_SETVIDEOHDELAY?TW28XX_VIDEO
  +--> ?PR?_PCT_SETXVIDEOMIXING?TW28XX_VIDEO
  +--> ?PR?_PCT_WINATTRCTRL?TW28XX_VIDEO
  +--> ?PR?_PCT_FLASHOSDCTRL?MAIN
  +--> ?PR?_PCT_CHECKVMIXTYPE?COMMANDSHELL
  +--> ?PR?_PCT_DISSHOWOSDPAGE?OSDCTRL
  +--> ?PR?_PCT_CLEAROSDPAGEX?OSDCTRL
  +--> ?PR?PCT_SHOWMODEICON?OSDACTION_
  +--> ?PR?_PCT_OSD_ACTIONPTHX?OSDACTION_

?PR?_PCT_WINATTRCTRLY?TW28XX_VIDEO              -----    -----      -----    -----      01DDH    0003H
  +--> ?PR?TW28XX_VIDEO
  +--> ?PR?_PCT_READASICBYTE?BUSCTRL
  +--> ?PR?_PCT_WRITEASICBYTE?BUSCTRL

?PR?TW28XX_VIDEO                                -----    -----      -----    -----      -----    -----
  +--> ?CO?TW28XX_VIDEO

?PR?_PCT_RECOMPENSEYHDELAY?TW28XX_VIDEO         -----    -----      -----    -----      01DDH    0003H
  +--> ?PR?TW28XX_VIDEO
  +--> ?PR?_PCT_READASICBYTE?BUSCTRL
  +--> ?CO?TW28XX_VIDEO
  +--> ?PR?_PCT_WRITEASICBYTE?BUSCTRL

?PR?_PCT_SETVIDEOHDELAY?TW28XX_VIDEO            -----    -----      -----    -----      01DDH    0008H
  +--> ?PR?TW28XX_VIDEO
  +--> ?PR?_PCT_READASICBYTE?BUSCTRL
  +--> ?PR?_PCT_WRITEASICBYTE?BUSCTRL
  +--> ?CO?TW28XX_VIDEO

?PR?_PCT_SETXVIDEOMIXING?TW28XX_VIDEO           -----    -----      -----    -----      01DDH    0007H
  +--> ?PR?TW28XX_VIDEO
  +--> ?PR?_PCT_WRITEASICBYTE?BUSCTRL
  +--> ?CO?TW28XX_VIDEO
  +--> ?PR?_PCT_SETCHANELSCALE?TW28XX_VIDEO
  +--> ?PR?_PCT_WRITESTABLE?BUSCTRL

?PR?_PCT_SETCHANELSCALE?TW28XX_VIDEO            -----    -----      -----    -----      01E4H    0008H
  +--> ?PR?TW28XX_VIDEO
  +--> ?CO?TW28XX_VIDEO
  +--> ?PR?_PCT_WRITEASICBYTE?BUSCTRL

?PR?_PCT_WINATTRCTRL?TW28XX_VIDEO               -----    -----      -----    -----      01DDH    0003H
  +--> ?PR?TW28XX_VIDEO
  +--> ?PR?_PCT_READASICBYTE?BUSCTRL
  +--> ?PR?_PCT_WRITEASICBYTE?BUSCTRL

?PR?_PCT_CHECKVMIXTYPE?COMMANDSHELL             -----    -----      0033H    0001H      -----    -----
  +--> ?PR?COMMANDSHELL

?PR?_PCT_DISSHOWOSDPAGE?OSDCTRL                 -----    -----      -----    -----      01DDH    0003H
  +--> ?PR?OSDCTRL
  +--> ?PR?_PCT_READASICBYTE?BUSCTRL
  +--> ?PR?_PCT_WRITEASICBYTE?BUSCTRL

?PR?_PCT_CLEAROSDPAGEX?OSDCTRL                  -----    -----      -----    -----      -----    -----
BL51 BANKED LINKER/LOCATER V6.22                                                      11/06/2015  11:37:23  PAGE 13


  +--> ?PR?_PCT_SETOSDDRAWPAGE?OSDCTRL
  +--> ?PR?_PCT_PRESETBACKGROUNDCOLOR?OSDCTRL
  +--> ?PR?_PCT_FULLCOLORONOSD?OSDCTRL

?PR?PCT_SHOWMODEICON?OSDACTION_                 -----    -----      -----    -----      -----    -----
  +--> ?PR?_PCT_SETOSDDRAWPAGE?OSDCTRL
  +--> ?PR?OSDACTION_
  +--> ?CO?OSDACTION_
  +--> ?PR?_PCT_SHOWGRAPHSTRING?OSD_GRAPH
  +--> ?PR?_PCT_PRESETBACKGROUNDCOLOR?OSDCTRL
  +--> ?PR?_PCT_PRESETFOREGROUNDCOLOR?OSDCTRL

?PR?OSDACTION_                                  -----    -----      -----    -----      -----    -----
  +--> ?CO?OSDACTION_

?PR?_PCT_SHOWGRAPHSTRING?OSD_GRAPH              -----    -----      -----    -----      01E0H    0007H
  +--> ?PR?OSD_GRAPH
  +--> ?PR?_STRLEN?STRLEN
  +--> ?PR?_PCT_OSD16X16GRAPHX?OSD_GRAPH
  +--> ?PR?PTC_SWITCHTOI2CMODE?BUSCTRL

?PR?_PCT_OSD16X16GRAPHX?OSD_GRAPH               -----    -----      -----    -----      01E7H    000BH
  +--> ?CO?OSD_GRAPH
  +--> ?PR?OSD_GRAPH
  +--> ?PR?_PCT_WRITEASICBYTE?BUSCTRL
  +--> ?PR?_PCT_READASICBYTE?BUSCTRL

?PR?_PCT_OSD_ACTIONPTHX?OSDACTION_              -----    -----      -----    -----      01DDH    0003H
  +--> ?PR?OSDACTION_
  +--> ?PR?_PCT_PRESETFOREGROUNDCOLOR?OSDCTRL
  +--> ?PR?_PCT_PRESETBACKGROUNDCOLOR?OSDCTRL
  +--> ?PR?_PCT_SHOWGRAPHSTRING?OSD_GRAPH

?PR?PCT_OSDACTIONFORHS?OSDACTION_               -----    -----      -----    -----      -----    -----
  +--> ?PR?_PCT_SETOSDDRAWPAGE?OSDCTRL
  +--> ?PR?_PCT_SHOWMIRRORICON?OSDACTION_
  +--> ?PR?_PCT_SHOWINDICATEICON?OSDACTION_
  +--> ?PR?PCT_ENFALSHVLOSS?OSDACTION_
  +--> ?PR?_PCT_ENSHOWOSDPAGE?OSDCTRL

?PR?_PCT_SHOWMIRRORICON?OSDACTION_              -----    -----      -----    -----      01DDH    0003H
  +--> ?PR?OSDACTION_
  +--> ?PR?_PCT_PRESETFOREGROUNDCOLOR?OSDCTRL
  +--> ?PR?_PCT_CLEARWORDSPATHX?OSDCTRL
  +--> ?PR?_PCT_SHOWGRAPHSTRING?OSD_GRAPH
  +--> ?CO?OSDACTION_

?PR?_PCT_CLEARWORDSPATHX?OSDCTRL                -----    -----      -----    -----      01E0H    0007H
  +--> ?PR?OSDCTRL
  +--> ?PR?_PCT_WRITEASICBYTE?BUSCTRL
  +--> ?PR?_PCT_READASICBYTE?BUSCTRL

?PR?_PCT_SHOWINDICATEICON?OSDACTION_            -----    -----      0030H    0001H      01DDH    0003H
  +--> ?PR?OSDACTION_
  +--> ?PR?_PCT_PRESETFOREGROUNDCOLOR?OSDCTRL
  +--> ?PR?_PCT_SHOWGRAPHSTRING?OSD_GRAPH
  +--> ?PR?_PCT_CLEARWORDSPATHX?OSDCTRL
BL51 BANKED LINKER/LOCATER V6.22                                                      11/06/2015  11:37:23  PAGE 14


  +--> ?CO?OSDACTION_

?PR?_MONIHSCOMMSJMODE?COMMANDSHELL              -----    -----      -----    -----      -----    -----
  +--> ?PR?COMMANDSHELL
  +--> ?CO?COMMANDSHELL
  +--> ?PR?SCANF?SCANF

?PR?REPEAT_PWM_COM?NED                          -----    -----      -----    -----      -----    -----
  +--> ?PR?_WRITEBYTE?NED

?PR?_WRITEBYTE?NED                              -----    -----      -----    -----      -----    -----
  +--> ?PR?_WRITEI2C?NED

?PR?_PWM_SET?MAIN                               -----    -----      -----    -----      -----    -----
  +--> ?PR?MAIN
  +--> ?PR?_SET_PWM_OUTPUT?MAIN

?PR?_SET_PWM_OUTPUT?MAIN                        -----    -----      -----    -----      01DDH    0008H
  +--> ?CO?MAIN
  +--> ?PR?MAIN

?PR?_BOUND_SET?NED                              -----    -----      -----    -----      01D5H    0004H
  +--> ?CO?NED
  +--> ?PR?NED
  +--> ?PR?_PCT_WRITEASICBYTE?BUSCTRL

?PR?_GPIOGETPORTSTATE?NED                       -----    -----      -----    -----      -----    -----
  +--> ?PR?_READI2C?NED

?PR?COMMANDSHELL?MAIN                           -----    -----      0030H    0001H      -----    -----
  +--> ?PR?RS_RXREADY?UART
  +--> ?PR?RS_RX?UART
  +--> ?PR?MAIN
  +--> ?PR?_SC16_BCC_CHECK?NED
  +--> ?PR?RESETCOMMSELL?MAIN

?PR?RS_RX?UART                                  -----    -----      -----    -----      -----    -----
  +--> ?PR?UART

?PR?_SC16_BCC_CHECK?NED                         -----    -----      -----    -----      0006H    0006H
  +--> ?PR?NED
  +--> ?PR?_RS_TX?UART
  +--> ?PR?_WRITEBYTE?NED
  +--> ?PR?SEND_CAMERA_TEMP?NED
  +--> ?PR?SEND_CAMERA_PRESS?NED
  +--> ?PR?SENT_CAMERA_ANG?NED
  +--> ?PR?SENT_CAMERA_RANG?NED
  +--> ?PR?_SENT_CAMERA_IRD?NED
  +--> ?PR?SENT_DVR_TEMP?NED
  +--> ?PR?VERSION_CHECK?MAIN
  +--> ?PR?CAMERA_VERSION_CHECK?MAIN
  +--> ?PR?CHECK_OTHER_COM?NED
  +--> ?PR?_SC16_SENDDATA?NED

?PR?SEND_CAMERA_TEMP?NED                        -----    -----      -----    -----      000CH    0001H
  +--> ?PR?NED
  +--> ?PR?_BCC_CAL?NED
BL51 BANKED LINKER/LOCATER V6.22                                                      11/06/2015  11:37:23  PAGE 15


  +--> ?PR?_RS_TX?UART

?PR?_BCC_CAL?NED                                -----    -----      -----    -----      000DH    0002H

?PR?SEND_CAMERA_PRESS?NED                       -----    -----      -----    -----      000CH    0001H
  +--> ?PR?NED
  +--> ?PR?_BCC_CAL?NED
  +--> ?PR?_RS_TX?UART

?PR?SENT_CAMERA_ANG?NED                         -----    -----      -----    -----      000CH    0001H
  +--> ?PR?NED
  +--> ?PR?_BCC_CAL?NED
  +--> ?PR?_RS_TX?UART

?PR?SENT_CAMERA_RANG?NED                        -----    -----      -----    -----      000CH    0001H
  +--> ?PR?NED
  +--> ?PR?_BCC_CAL?NED
  +--> ?PR?_RS_TX?UART

?PR?_SENT_CAMERA_IRD?NED                        -----    -----      -----    -----      000CH    0003H
  +--> ?PR?_RS_TX?UART

?PR?SENT_DVR_TEMP?NED                           -----    -----      -----    -----      000CH    0001H
  +--> ?PR?NED
  +--> ?PR?_BCC_CAL?NED
  +--> ?PR?_RS_TX?UART

?PR?VERSION_CHECK?MAIN                          -----    -----      -----    -----      000CH    0001H
  +--> ?PR?MAIN
  +--> ?PR?_RS_TX?UART

?PR?CAMERA_VERSION_CHECK?MAIN                   -----    -----      -----    -----      000CH    0001H
  +--> ?PR?MAIN
  +--> ?PR?_RS_TX?UART

?PR?CHECK_OTHER_COM?NED                         -----    -----      -----    -----      -----    -----
  +--> ?PR?_RS_TX?UART

?PR?_SC16_SENDDATA?NED                          -----    -----      -----    -----      000CH    0002H
  +--> ?PR?_WRITEBYTE?NED

?PR?PCT_CHECKSYSTEM?COMMANDSHELL                -----    -----      -----    -----      -----    -----
  +--> ?PR?_PCT_DETECTVIDEOFORMAT?TW28XX_VIDEO
  +--> ?PR?_PCT_ENSHOWOSDPAGE?OSDCTRL
  +--> ?PR?_PCT_CHANGESYSTEMTYPE?TW2835_INIT
  +--> ?PR?_PCT_RECOMPENSEYHDELAY?TW28XX_VIDEO
  +--> ?PR?COMMANDSHELL
  +--> ?PR?_PCT_SETVIDEOHDELAY?TW28XX_VIDEO
  +--> ?PR?_PCT_SETXVIDEOMIXING?TW28XX_VIDEO
  +--> ?PR?_PCT_CLEAROSDPAGEX?OSDCTRL
  +--> ?PR?PCT_SHOWMODEICON?OSDACTION_
  +--> ?PR?_PCT_OSD_ACTIONPTHX?OSDACTION_
  +--> ?PR?PCT_OSDACTIONFORHS?OSDACTION_

?PR?_PCT_CHANGESYSTEMTYPE?TW2835_INIT           -----    -----      -----    -----      0006H    0002H
  +--> ?PR?TW2835_INIT
  +--> ?CO?TW2835_INIT
BL51 BANKED LINKER/LOCATER V6.22                                                      11/06/2015  11:37:23  PAGE 16


  +--> ?PR?_PCT_WRITEASICTABLE?BUSCTRL

?PR?PCT_GETVIDEOSIGNALSTATUS?OSDACTION_         -----    -----      -----    -----      -----    -----
  +--> ?PR?_PCT_READASICBYTE?BUSCTRL
  +--> ?PR?_PCT_WRITEASICBYTE?BUSCTRL
  +--> ?PR?_PCT_PRESETFOREGROUNDCOLOR?OSDCTRL
  +--> ?PR?_PCT_PRESETGRAPHATTR?OSD_GRAPH
  +--> ?PR?PCT_CLEARGRAPHATTR?OSD_GRAPH

?PR?GPIO_CHECK?NED                              -----    -----      -----    -----      0006H    0002H
  +--> ?PR?_GPIOGETPORTSTATE?NED

?PR?CAMERA_MOVE?NED                             -----    -----      -----    -----      0006H    000DH
  +--> ?CO?NED
  +--> ?PR?NED
  +--> ?PR?_WRITEBYTE?NED

?PR?_SC16_DATA_RESET?NED                        -----    -----      -----    -----      -----    -----
  +--> ?PR?TEMP_CHECK?MAIN
  +--> ?PR?PRESS_CHECK?MAIN
  +--> ?PR?GET_CAMERA_ANG?NED
  +--> ?PR?GET_CAMERA_RANG?NED
  +--> ?PR?GET_DVR_TEMP?NED
  +--> ?PR?GET_CAMERA_VER?NED

?PR?TEMP_CHECK?MAIN                             -----    -----      -----    -----      -----    -----
  +--> ?PR?_READI2CWORD?NED

?PR?_READI2CWORD?NED                            -----    -----      -----    -----      0006H    0002H
  +--> ?PR?_I2CWRITEDATA?NED
  +--> ?PR?I2CREADDATAWITHACK?NED
  +--> ?PR?I2CREADDATA?NED
  +--> ?PR?I2CSTOP?NED

?PR?I2CREADDATAWITHACK?NED                      -----    -----      -----    -----      -----    -----
  +--> ?PR?NED
  +--> ?PR?I2CDELAY?NED

?PR?PRESS_CHECK?MAIN                            -----    -----      -----    -----      0006H    0007H
  +--> ?PR?MAIN
  +--> ?PR?_ADC_READ?NED

?PR?GET_CAMERA_ANG?NED                          -----    -----      -----    -----      -----    -----
  +--> ?PR?_WRITEBYTE?NED

?PR?GET_CAMERA_RANG?NED                         -----    -----      -----    -----      -----    -----
  +--> ?PR?_WRITEBYTE?NED

?PR?GET_DVR_TEMP?NED                            -----    -----      -----    -----      -----    -----
  +--> ?PR?_WRITEBYTE?NED

?PR?GET_CAMERA_VER?NED                          -----    -----      -----    -----      -----    -----
  +--> ?PR?_WRITEBYTE?NED

?PR?SC16_DATACHECK?NED                          -----    -----      -----    -----      0006H    0003H
  +--> ?PR?_SC16_SENDDATASELECT?NED

BL51 BANKED LINKER/LOCATER V6.22                                                      11/06/2015  11:37:23  PAGE 17


?PR?_SC16_SENDDATASELECT?NED                    -----    -----      -----    -----      0009H    0009H
  +--> ?PR?NED
  +--> ?PR?_READI2C?NED
  +--> ?PR?_READBYTE?NED
  +--> ?PR?_RS_TX?UART
  +--> ?PR?_SC16_COMCHECK?NED

?PR?_READBYTE?NED                               -----    -----      -----    -----      0012H    0001H
  +--> ?PR?_READI2C?NED

?PR?_SC16_COMCHECK?NED                          -----    -----      -----    -----      0012H    0002H
  +--> ?PR?NED

?PR?_SET_CAMERA_SPEED?NED                       -----    -----      -----    -----      -----    -----
  +--> ?PR?_WRITEBYTE?NED

*** NEW ROOT ***************************************************

?PR?RS_INTERRUPT?UART                           -----    -----      -----    -----      -----    -----
  +--> ?PR?UART



SYMBOL TABLE OF MODULE:  .\OBJ\NED_5MCMOS_v0_9_f_XXXX_20151106 (?C_STARTUP)

  VALUE           TYPE          NAME
  ----------------------------------

  -------         MODULE        ?C_STARTUP
  C:8768H         SEGMENT       ?C_C51STARTUP
  I:0068H         SEGMENT       ?STACK
  C:0000H         PUBLIC        ?C_STARTUP
  D:00E0H         SYMBOL        ACC
  D:00F0H         SYMBOL        B
  D:0083H         SYMBOL        DPH
  D:0082H         SYMBOL        DPL
  N:0000H         SYMBOL        IBPSTACK
  N:0100H         SYMBOL        IBPSTACKTOP
  N:0080H         SYMBOL        IDATALEN
  C:876BH         SYMBOL        IDATALOOP
  N:0000H         SYMBOL        PBPSTACK
  N:0100H         SYMBOL        PBPSTACKTOP
  N:0000H         SYMBOL        PDATALEN
  N:0000H         SYMBOL        PDATASTART
  N:0000H         SYMBOL        PPAGE
  N:0000H         SYMBOL        PPAGEENABLE
  D:00A0H         SYMBOL        PPAGE_SFR
  D:0081H         SYMBOL        SP
  C:8768H         SYMBOL        STARTUP1
  N:0000H         SYMBOL        XBPSTACK
  N:0000H         SYMBOL        XBPSTACKTOP
  N:0000H         SYMBOL        XDATALEN
  N:0000H         SYMBOL        XDATASTART
  C:0000H         LINE#         126
  C:8768H         LINE#         133
  C:876AH         LINE#         134
  C:876BH         LINE#         135
BL51 BANKED LINKER/LOCATER V6.22                                                      11/06/2015  11:37:23  PAGE 18


  C:876CH         LINE#         136
  C:876EH         LINE#         185
  C:8771H         LINE#         196
  -------         ENDMOD        ?C_STARTUP

  -------         MODULE        UART
  C:0000H         SYMBOL        _ICE_DUMMY_
  D:0080H         PUBLIC        P0
  D:0090H         PUBLIC        P1
  D:00A0H         PUBLIC        P2
  D:00C0H         PUBLIC        XICON
  D:00B0H         PUBLIC        P3
  D:00E8H         PUBLIC        P4
  C:A373H         PUBLIC        InitialUART
  D:00A8H         PUBLIC        IE
  X:028CH         PUBLIC        RS_RECVBUF
  B:00A8H.4       PUBLIC        ES
  D:00B8H         PUBLIC        IP
  B:0098H.0       PUBLIC        RI
  B:0098H.1       PUBLIC        TI
  B:00B8H.4       PUBLIC        PS
  D:00D8H         PUBLIC        CCON
  D:0099H         PUBLIC        SBUF
  D:00C0H         PUBLIC        WDTC
  D:0098H         PUBLIC        SCON
  D:0088H         PUBLIC        TCON
  C:A48AH         PUBLIC        RS_RxReady
  D:008DH         PUBLIC        TH1
  D:008BH         PUBLIC        TL1
  X:02F0H         PUBLIC        RsRxRp
  B:0088H.6       PUBLIC        TR1
  X:02F1H         PUBLIC        RsRxWp
  D:00F8H         PUBLIC        IPA
  D:00C8H         PUBLIC        T2CON
  C:A311H         PUBLIC        RS_rx
  C:0003H         PUBLIC        _RS_tx
  C:9E70H         PUBLIC        RS_interrupt
  D:00D0H         PUBLIC        PSW
  C:A553H         SYMBOL        Com000E
  C:A553H         SYMBOL        L?0015
  -------         PROC          COM000E
  -------         ENDPROC       COM000E
  -------         PROC          INITIALUART
  C:A373H         LINE#         75
  C:A373H         LINE#         76
  C:A373H         LINE#         79
  C:A375H         LINE#         80
  C:A377H         LINE#         84
  C:A37AH         LINE#         99
  C:A37DH         LINE#         103
  C:A380H         LINE#         104
  C:A382H         LINE#         106
  C:A386H         LINE#         107
  C:A388H         LINE#         108
  -------         ENDPROC       INITIALUART
  -------         PROC          RS_RXREADY
  C:A48AH         LINE#         114
BL51 BANKED LINKER/LOCATER V6.22                                                      11/06/2015  11:37:23  PAGE 19


  C:A48AH         LINE#         115
  C:A48AH         LINE#         116
  C:A497H         LINE#         117
  C:A499H         LINE#         118
  -------         ENDPROC       RS_RXREADY
  -------         PROC          RS_RX
  -------         DO            
  D:0007H         SYMBOL        ret
  -------         ENDDO         
  C:A311H         LINE#         124
  C:A311H         LINE#         125
  C:A311H         LINE#         131
  C:A319H         LINE#         132
  C:A31FH         LINE#         133
  C:A325H         LINE#         134
  C:A327H         LINE#         138
  C:A329H         LINE#         140
  C:A329H         LINE#         141
  -------         ENDPROC       RS_RX
  -------         PROC          _RS_TX
  D:0007H         SYMBOL        tx_buf
  C:0003H         LINE#         147
  C:0003H         LINE#         148
  C:0003H         LINE#         166
  C:0003H         LINE#         167
  C:0003H         LINE#         169
  C:0006H         LINE#         178
  C:0008H         LINE#         179
  C:000AH         LINE#         180
  C:000AH         LINE#         181
  C:000AH         LINE#         182
  C:000AH         LINE#         185
  -------         ENDPROC       _RS_TX
  -------         PROC          RS_INTERRUPT
  C:9E70H         LINE#         193
  C:9E78H         LINE#         196
  C:9E7BH         LINE#         197
  C:9E7DH         LINE#         206
  C:9E86H         LINE#         210
  C:9E8CH         LINE#         211
  C:9E94H         LINE#         218
  C:9E94H         LINE#         221
  -------         ENDPROC       RS_INTERRUPT
  -------         ENDMOD        UART

  -------         MODULE        BUSCTRL
  C:0000H         SYMBOL        _ICE_DUMMY_
  D:0080H         PUBLIC        P0
  D:0090H         PUBLIC        P1
  D:00A0H         PUBLIC        P2
  D:00C0H         PUBLIC        XICON
  D:00B0H         PUBLIC        P3
  D:00E8H         PUBLIC        P4
  B:00A8H.7       PUBLIC        EA
  D:00A8H         PUBLIC        IE
  C:91EEH         PUBLIC        _PCT_WriteSTable
  D:00B8H         PUBLIC        IP
BL51 BANKED LINKER/LOCATER V6.22                                                      11/06/2015  11:37:23  PAGE 20


  B:00A0H.3       PUBLIC        HALE
  B:00A0H.2       PUBLIC        HRDB
  D:00D8H         PUBLIC        CCON
  D:00C0H         PUBLIC        WDTC
  B:00A0H.1       PUBLIC        HWRB
  D:0098H         PUBLIC        SCON
  D:0088H         PUBLIC        TCON
  C:8880H         PUBLIC        _PCT_WriteAsicTable
  C:A60AH         PUBLIC        PTC_SwitchToI2CMode
  B:00B0H.6       PUBLIC        HCSB0
  B:00B0H.7       PUBLIC        HCSB1
  D:00F8H         PUBLIC        IPA
  C:87F4H         PUBLIC        _PCT_ReadAsicByte
  D:00C8H         PUBLIC        T2CON
  C:8E3EH         PUBLIC        _PCT_WriteAsicByte
  D:00D0H         PUBLIC        PSW
  C:9A0AH         SYMBOL        Com0038
  C:9A0AH         SYMBOL        L?0057
  C:9A0DH         SYMBOL        L?0058
  C:9A0FH         SYMBOL        L?0059
  C:9A17H         SYMBOL        L?0060
  C:9A17H         SYMBOL        L?0061
  C:9A1FH         SYMBOL        L?0062
  C:9A1FH         SYMBOL        L?0063
  C:9A26H         SYMBOL        L?0064
  C:9A32H         SYMBOL        L?0065
  C:9A3CH         SYMBOL        L?0066
  -------         PROC          COM0038
  -------         ENDPROC       COM0038
  -------         PROC          _PCT_WRITEASICBYTE
  D:0007H         SYMBOL        _dvc
  X:01F3H         SYMBOL        _pg
  X:01F4H         SYMBOL        _addr
  X:01F5H         SYMBOL        _wdat
  C:8E3EH         LINE#         63
  C:8E41H         LINE#         64
  C:8E41H         LINE#         65
  C:8E41H         LINE#         67
  C:8E44H         LINE#         70
  C:8E47H         LINE#         75
  C:8E54H         LINE#         76
  C:8E5EH         LINE#         77
  C:8E66H         LINE#         78
  C:8E69H         LINE#         79
  C:8E69H         LINE#         82
  C:8E7CH         LINE#         84
  C:8E7EH         LINE#         85
  C:8E84H         LINE#         86
  C:8E86H         LINE#         89
  C:8E99H         LINE#         92
  C:8E9BH         LINE#         96
  C:8E9EH         LINE#         101
  C:8E9EH         LINE#         102
  C:8E9EH         LINE#         103
  C:8E9EH         LINE#         104
  C:8EA1H         LINE#         105
  -------         ENDPROC       _PCT_WRITEASICBYTE
BL51 BANKED LINKER/LOCATER V6.22                                                      11/06/2015  11:37:23  PAGE 21


  -------         PROC          _PCT_WRITEASICTABLE
  D:0007H         SYMBOL        _dvc
  X:01D8H         SYMBOL        _pg
  X:01D9H         SYMBOL        _addr
  X:01DAH         SYMBOL        _tbl_ptr
  X:01DDH         SYMBOL        _tbl_cnt
  C:8880H         LINE#         111
  C:8883H         LINE#         112
  C:8883H         LINE#         113
  C:8883H         LINE#         115
  C:8886H         LINE#         119
  C:8889H         LINE#         124
  C:8896H         LINE#         125
  C:88A0H         LINE#         126
  C:88A8H         LINE#         128
  C:88A8H         LINE#         129
  C:88B1H         LINE#         130
  C:88B1H         LINE#         133
  C:88C4H         LINE#         136
  C:88C6H         LINE#         138
  C:88DBH         LINE#         139
  C:88DDH         LINE#         142
  C:88F0H         LINE#         145
  C:88F2H         LINE#         146
  C:88FAH         LINE#         150
  C:88FDH         LINE#         155
  C:88FDH         LINE#         156
  C:88FDH         LINE#         157
  C:88FDH         LINE#         158
  C:8900H         LINE#         159
  -------         ENDPROC       _PCT_WRITEASICTABLE
  -------         PROC          _PCT_READASICBYTE
  X:01F2H         SYMBOL        _dvc
  X:01F3H         SYMBOL        _pg
  X:01F4H         SYMBOL        _addr
  -------         DO            
  X:01F5H         SYMBOL        _rdat_
  -------         ENDDO         
  C:87F4H         LINE#         165
  C:87FFH         LINE#         166
  C:87FFH         LINE#         169
  C:8801H         LINE#         173
  C:8804H         LINE#         178
  C:8809H         LINE#         179
  C:8814H         LINE#         180
  C:881EH         LINE#         181
  C:8826H         LINE#         183
  C:8829H         LINE#         184
  C:8829H         LINE#         186
  C:883CH         LINE#         189
  C:883EH         LINE#         190
  C:8841H         LINE#         192
  C:8854H         LINE#         196
  C:8856H         LINE#         197
  C:885CH         LINE#         201
  C:886FH         LINE#         204
  C:8871H         LINE#         208
BL51 BANKED LINKER/LOCATER V6.22                                                      11/06/2015  11:37:23  PAGE 22


  C:8874H         LINE#         213
  C:8876H         LINE#         214
  C:8878H         LINE#         215
  C:887AH         LINE#         216
  C:887FH         LINE#         217
  -------         ENDPROC       _PCT_READASICBYTE
  -------         PROC          _PCT_WRITESTABLE
  D:0007H         SYMBOL        _dvc
  X:01E4H         SYMBOL        _tbl_ptr
  C:91EEH         LINE#         224
  C:91F9H         LINE#         225
  C:91F9H         LINE#         229
  C:91F9H         LINE#         230
  C:9207H         LINE#         231
  C:9221H         LINE#         232
  C:9221H         LINE#         233
  C:9233H         LINE#         234
  C:9233H         LINE#         235
  C:923DH         LINE#         236
  C:923FH         LINE#         237
  -------         ENDPROC       _PCT_WRITESTABLE
  -------         PROC          PTC_SWITCHTOI2CMODE
  C:A60AH         LINE#         243
  C:A60AH         LINE#         244
  C:A60AH         LINE#         254
  -------         ENDPROC       PTC_SWITCHTOI2CMODE
  -------         ENDMOD        BUSCTRL

  -------         MODULE        COMMANDSHELL
  C:0000H         SYMBOL        _ICE_DUMMY_
  D:0080H         PUBLIC        P0
  D:0090H         PUBLIC        P1
  D:00A0H         PUBLIC        P2
  D:00C0H         PUBLIC        XICON
  D:00B0H         PUBLIC        P3
  D:00E8H         PUBLIC        P4
  C:A389H         PUBLIC        _MoniHSCommSJmode
  C:9A82H         PUBLIC        MoniVideoAutoDetect
  C:7B35H         PUBLIC        _PCT_RunCommShell
  C:70E6H         PUBLIC        _MoniAudioGain
  D:00A8H         PUBLIC        IE
  C:9B67H         PUBLIC        _MoniReadOneBuffer
  D:00B8H         PUBLIC        IP
  C:A454H         PUBLIC        _MoniYVideoMix
  X:037EH         PUBLIC        sysdat
  C:A3CAH         PUBLIC        _MoniAudioLive
  D:00D8H         PUBLIC        CCON
  C:A60BH         PUBLIC        PCT_SendACK
  C:9D18H         PUBLIC        _MoniWriteOneBuffer
  C:A4AAH         PUBLIC        MoniAudioMute
  C:A42EH         PUBLIC        MoniHSCommVersion
  C:780BH         PUBLIC        _MoniSetVideoFormat
  C:9536H         PUBLIC        _MoniReadAsicByte
  C:8B59H         PUBLIC        _PCT_GetFirstStr
  C:8C9EH         PUBLIC        PCT_CheckSystem
  D:00C0H         PUBLIC        WDTC
  D:0098H         PUBLIC        SCON
BL51 BANKED LINKER/LOCATER V6.22                                                      11/06/2015  11:37:23  PAGE 23


  D:0088H         PUBLIC        TCON
  C:92E1H         PUBLIC        _MoniWriteAsicByte
  C:6F98H         PUBLIC        _MoniHSComm
  X:038FH         PUBLIC        msg
  C:99CDH         PUBLIC        _PCT_StrToCommCode
  C:94EEH         PUBLIC        _PCT_CheckVMixType
  C:0026H         PUBLIC        MoniHSCommDisScroll
  D:00F8H         PUBLIC        IPA
  C:8F69H         PUBLIC        _MoniShowSODStr
  C:58EAH         PUBLIC        _MoniVideoMixAttr
  C:95C5H         PUBLIC        PCT_AudioActionForHS
  D:00C8H         PUBLIC        T2CON
  C:9143H         PUBLIC        _MoniVideoMixWin
  C:957EH         PUBLIC        _MoniReadPageBuffer
  X:0397H         PUBLIC        Original_selwintype
  C:937AH         PUBLIC        MoniRegisterDump
  D:00D0H         PUBLIC        PSW
  C:6725H         PUBLIC        _MoniAudioMixing
  C:56CBH         SYMBOL        Com00B2
  C:56CBH         SYMBOL        L?0179
  C:56CCH         SYMBOL        L?0180
  C:5702H         SYMBOL        L?0181
  C:5709H         SYMBOL        L?0182
  C:570AH         SYMBOL        L?0183
  C:5740H         SYMBOL        L?0184
  C:5747H         SYMBOL        L?0185
  C:5748H         SYMBOL        L?0186
  C:5768H         SYMBOL        L?0187
  C:576FH         SYMBOL        L?0188
  C:5770H         SYMBOL        L?0189
  C:5774H         SYMBOL        L?0190
  C:577DH         SYMBOL        L?0191
  C:577DH         SYMBOL        L?0192
  C:5789H         SYMBOL        L?0193
  C:5790H         SYMBOL        L?0194
  C:57A0H         SYMBOL        L?0195
  C:57A7H         SYMBOL        L?0196
  C:57B7H         SYMBOL        L?0197
  C:57BEH         SYMBOL        L?0198
  C:57CEH         SYMBOL        L?0199
  C:57D5H         SYMBOL        L?0200
  C:57E1H         SYMBOL        L?0201
  C:57E8H         SYMBOL        L?0202
  C:57F4H         SYMBOL        L?0203
  C:57FBH         SYMBOL        L?0204
  C:5800H         SYMBOL        L?0205
  C:5807H         SYMBOL        L?0206
  C:580CH         SYMBOL        L?0207
  C:5813H         SYMBOL        L?0208
  C:5813H         SYMBOL        L?0209
  C:581BH         SYMBOL        L?0210
  C:581BH         SYMBOL        L?0211
  C:5823H         SYMBOL        L?0212
  C:582BH         SYMBOL        L?0213
  C:5837H         SYMBOL        L?0214
  C:5838H         SYMBOL        L?0215
  C:583FH         SYMBOL        L?0216
BL51 BANKED LINKER/LOCATER V6.22                                                      11/06/2015  11:37:23  PAGE 24


  C:5846H         SYMBOL        L?0219
  C:584DH         SYMBOL        L?0222
  C:5854H         SYMBOL        L?0224
  C:585BH         SYMBOL        L?0228
  C:5862H         SYMBOL        L?0229
  C:5863H         SYMBOL        L?0230
  C:5870H         SYMBOL        L?0232
  C:5880H         SYMBOL        L?0233
  C:5887H         SYMBOL        L?0235
  C:588EH         SYMBOL        L?0237
  C:5895H         SYMBOL        L?0242
  C:5895H         SYMBOL        L?0243
  C:5896H         SYMBOL        L?0244
  C:589EH         SYMBOL        L?0245
  C:589EH         SYMBOL        L?0246
  C:58A8H         SYMBOL        L?0247
  C:58B3H         SYMBOL        L?0249
  C:58BAH         SYMBOL        L?0250
  C:58BAH         SYMBOL        L?0251
  C:58C1H         SYMBOL        L?0252
  C:58C1H         SYMBOL        L?0253
  C:58CAH         SYMBOL        L?0255
  C:58D6H         SYMBOL        L?0258
  C:58D6H         SYMBOL        L?0259
  C:58DCH         SYMBOL        L?0260
  C:58E3H         SYMBOL        L?0261
  C:58E3H         SYMBOL        L?0262
  -------         PROC          COM00B2
  -------         ENDPROC       COM00B2
  -------         PROC          _PCT_GETFIRSTSTR
  X:01DDH         SYMBOL        tagStr
  X:01E0H         SYMBOL        sourceStr
  C:8B59H         LINE#         88
  C:8B5FH         LINE#         89
  C:8B5FH         LINE#         90
  C:8B6AH         LINE#         91
  C:8B81H         LINE#         92
  C:8B99H         LINE#         93
  C:8B9BH         LINE#         94
  C:8B9BH         LINE#         95
  C:8BA8H         LINE#         96
  C:8BACH         LINE#         97
  C:8BB5H         LINE#         98
  C:8BB8H         LINE#         99
  C:8BBBH         LINE#         100
  C:8BBEH         LINE#         101
  C:8BC7H         LINE#         102
  -------         ENDPROC       _PCT_GETFIRSTSTR
  -------         PROC          _PCT_STRTOCOMMCODE
  X:01DDH         SYMBOL        Str
  -------         DO            
  D:0030H         SYMBOL        ret
  -------         ENDDO         
  C:99CDH         LINE#         112
  C:99D3H         LINE#         113
  C:99D3H         LINE#         114
  C:99D8H         LINE#         116
BL51 BANKED LINKER/LOCATER V6.22                                                      11/06/2015  11:37:23  PAGE 25


  C:9A05H         LINE#         117
  C:9A09H         LINE#         118
  -------         ENDPROC       _PCT_STRTOCOMMCODE
  -------         PROC          PCT_SENDACK
  C:A60BH         LINE#         124
  C:A60BH         LINE#         125
  C:A60BH         LINE#         131
  -------         ENDPROC       PCT_SENDACK
  -------         PROC          _PCT_CHECKVMIXTYPE
  D:0007H         SYMBOL        _typ
  -------         DO            
  D:0033H         SYMBOL        tmplktp
  -------         ENDDO         
  C:94EEH         LINE#         143
  C:94EEH         LINE#         144
  C:94EEH         LINE#         145
  C:94F1H         LINE#         147
  C:94F7H         LINE#         148
  C:94FEH         LINE#         149
  C:9504H         LINE#         150
  C:9510H         LINE#         152
  C:951EH         LINE#         153
  C:9524H         LINE#         155
  C:9524H         LINE#         156
  C:952AH         LINE#         157
  C:9530H         LINE#         158
  C:9535H         LINE#         159
  -------         ENDPROC       _PCT_CHECKVMIXTYPE
  -------         PROC          _MONIREADPAGEBUFFER
  D:0001H         SYMBOL        szParam
  -------         DO            
  D:004CH         SYMBOL        page
  D:004DH         SYMBOL        start
  D:004EH         SYMBOL        end
  -------         ENDDO         
  C:957EH         LINE#         170
  C:957EH         LINE#         171
  C:957EH         LINE#         174
  C:95A3H         LINE#         176
  C:95A3H         LINE#         177
  C:95BDH         LINE#         178
  C:95BFH         LINE#         179
  C:95C4H         LINE#         180
  -------         ENDPROC       _MONIREADPAGEBUFFER
  -------         PROC          _MONIREADONEBUFFER
  D:0001H         SYMBOL        szParam
  -------         DO            
  D:0055H         SYMBOL        page
  D:0056H         SYMBOL        addr
  -------         ENDDO         
  C:9B67H         LINE#         186
  C:9B67H         LINE#         187
  C:9B67H         LINE#         190
  C:9B84H         LINE#         192
  -------         ENDPROC       _MONIREADONEBUFFER
  -------         PROC          _MONIWRITEONEBUFFER
  D:0001H         SYMBOL        szParam
BL51 BANKED LINKER/LOCATER V6.22                                                      11/06/2015  11:37:23  PAGE 26


  -------         DO            
  D:004FH         SYMBOL        page
  D:0050H         SYMBOL        addr
  D:0051H         SYMBOL        dat
  -------         ENDDO         
  C:9D18H         LINE#         199
  C:9D18H         LINE#         200
  C:9D18H         LINE#         203
  C:9D3DH         LINE#         204
  -------         ENDPROC       _MONIWRITEONEBUFFER
  -------         PROC          _MONIWRITEASICBYTE
  D:0001H         SYMBOL        szParam
  -------         DO            
  D:0030H         SYMBOL        _dev
  D:0031H         SYMBOL        _pg
  D:0032H         SYMBOL        _addr
  D:0033H         SYMBOL        _wdat
  -------         ENDDO         
  C:92E1H         LINE#         211
  C:92E1H         LINE#         212
  C:92E1H         LINE#         213
  C:92E4H         LINE#         214
  C:92E6H         LINE#         215
  C:92E8H         LINE#         216
  C:92EAH         LINE#         218
  C:931FH         LINE#         219
  -------         ENDPROC       _MONIWRITEASICBYTE
  -------         PROC          _MONIREADASICBYTE
  D:0001H         SYMBOL        szParam
  -------         DO            
  D:001CH         SYMBOL        _dev
  D:001DH         SYMBOL        _pg
  D:001EH         SYMBOL        _addr
  D:001FH         SYMBOL        _rdat
  -------         ENDDO         
  C:9536H         LINE#         226
  C:9536H         LINE#         227
  C:9536H         LINE#         228
  C:9539H         LINE#         229
  C:953BH         LINE#         230
  C:953DH         LINE#         231
  C:953FH         LINE#         233
  C:9564H         LINE#         234
  C:956FH         LINE#         235
  -------         ENDPROC       _MONIREADASICBYTE
  C:684EH         SYMBOL        L?0217
  C:6864H         SYMBOL        L?0225
  C:687AH         SYMBOL        L?0227
  -------         PROC          _MONIAUDIOMIXING
  X:03B2H         SYMBOL        szParam
  -------         DO            
  D:0008H         SYMBOL        selch0
  D:0009H         SYMBOL        selch1
  D:000AH         SYMBOL        selch2
  D:000BH         SYMBOL        selch3
  D:000CH         SYMBOL        selch4
  D:000DH         SYMBOL        valch0
BL51 BANKED LINKER/LOCATER V6.22                                                      11/06/2015  11:37:23  PAGE 27


  D:000EH         SYMBOL        valch1
  D:000FH         SYMBOL        valch2
  D:0010H         SYMBOL        valch3
  D:0011H         SYMBOL        valch4
  X:03B5H         SYMBOL        getStr
  C:56C6H         SYMBOL        chaddr
  -------         ENDDO         
  C:6725H         LINE#         243
  C:6728H         LINE#         244
  C:6728H         LINE#         255
  C:673BH         LINE#         257
  C:6743H         LINE#         263
  C:676AH         LINE#         264
  C:676AH         LINE#         265
  C:677BH         LINE#         266
  C:6784H         LINE#         267
  C:678AH         LINE#         268
  C:678DH         LINE#         270
  C:678DH         LINE#         271
  C:67ABH         LINE#         273
  C:67ABH         LINE#         274
  C:67AEH         LINE#         275
  C:67B1H         LINE#         276
  C:67B4H         LINE#         278
  C:67B4H         LINE#         279
  C:67C8H         LINE#         281
  C:67C8H         LINE#         282
  C:67CBH         LINE#         283
  C:67CFH         LINE#         284
  C:67D2H         LINE#         285
  C:67D5H         LINE#         287
  C:67D5H         LINE#         288
  C:67ECH         LINE#         290
  C:67ECH         LINE#         291
  C:67ECH         LINE#         292
  C:67ECH         LINE#         293
  C:67EFH         LINE#         295
  C:67F7H         LINE#         296
  C:67FAH         LINE#         298
  C:67FAH         LINE#         299
  C:6822H         LINE#         301
  C:6822H         LINE#         302
  C:6822H         LINE#         303
  C:6822H         LINE#         304
  C:682AH         LINE#         305
  C:6833H         LINE#         307
  C:684DH         LINE#         308
  C:684DH         LINE#         310
  C:684DH         LINE#         311
  C:684DH         LINE#         312
  C:684DH         LINE#         313
  -------         ENDPROC       _MONIAUDIOMIXING
  -------         PROC          MONIAUDIOMUTE
  C:A4AAH         LINE#         320
  C:A4AAH         LINE#         321
  C:A4AAH         LINE#         322
  C:A4B2H         LINE#         327
BL51 BANKED LINKER/LOCATER V6.22                                                      11/06/2015  11:37:23  PAGE 28


  -------         ENDPROC       MONIAUDIOMUTE
  C:71F5H         SYMBOL        L?0221
  C:720FH         SYMBOL        L?0248
  C:7220H         SYMBOL        L?0263
  -------         PROC          _MONIAUDIOGAIN
  X:03B8H         SYMBOL        szParam
  -------         DO            
  D:0012H         SYMBOL        selch0
  D:0013H         SYMBOL        selch1
  D:0014H         SYMBOL        selch2
  D:0015H         SYMBOL        selch3
  D:0016H         SYMBOL        selch4
  D:0017H         SYMBOL        ch0val
  D:0018H         SYMBOL        ch1val
  D:0019H         SYMBOL        ch2val
  D:001AH         SYMBOL        ch3val
  D:001BH         SYMBOL        ch4val
  X:03BBH         SYMBOL        getStr
  -------         ENDDO         
  C:70E6H         LINE#         335
  C:70E9H         LINE#         336
  C:70E9H         LINE#         341
  C:70FCH         LINE#         343
  C:7123H         LINE#         344
  C:7123H         LINE#         345
  C:7139H         LINE#         346
  C:713DH         LINE#         347
  C:7140H         LINE#         349
  C:7140H         LINE#         350
  C:7163H         LINE#         352
  C:7163H         LINE#         353
  C:7166H         LINE#         354
  C:7169H         LINE#         356
  C:7169H         LINE#         357
  C:7181H         LINE#         359
  C:7181H         LINE#         360
  C:7181H         LINE#         361
  C:7184H         LINE#         362
  C:7187H         LINE#         364
  C:7187H         LINE#         365
  C:71A2H         LINE#         367
  C:71A2H         LINE#         368
  C:71A2H         LINE#         369
  C:71A5H         LINE#         370
  C:71A8H         LINE#         371
  C:71ABH         LINE#         373
  C:71ABH         LINE#         374
  C:71D7H         LINE#         376
  C:71D7H         LINE#         377
  C:71DFH         LINE#         378
  C:71E3H         LINE#         379
  C:71EBH         LINE#         380
  C:71F4H         LINE#         381
  C:71F4H         LINE#         383
  C:71F4H         LINE#         384
  C:71F4H         LINE#         385
  C:71F4H         LINE#         386
BL51 BANKED LINKER/LOCATER V6.22                                                      11/06/2015  11:37:23  PAGE 29


  -------         ENDPROC       _MONIAUDIOGAIN
  -------         PROC          _MONIAUDIOLIVE
  D:0001H         SYMBOL        szParam
  -------         DO            
  D:0063H         SYMBOL        chan
  -------         ENDDO         
  C:A3CAH         LINE#         393
  C:A3CAH         LINE#         394
  C:A3CAH         LINE#         397
  C:A3D7H         LINE#         399
  -------         ENDPROC       _MONIAUDIOLIVE
  -------         PROC          MONIREGISTERDUMP
  -------         DO            
  D:0057H         SYMBOL        addr
  D:0058H         SYMBOL        page
  -------         ENDDO         
  C:937AH         LINE#         406
  C:937AH         LINE#         407
  C:937AH         LINE#         411
  C:937DH         LINE#         412
  C:938CH         LINE#         413
  C:938FH         LINE#         414
  C:938FH         LINE#         415
  C:93A6H         LINE#         416
  C:93A8H         LINE#         417
  C:93B7H         LINE#         418
  C:93BBH         LINE#         419
  C:93C4H         LINE#         420
  -------         ENDPROC       MONIREGISTERDUMP
  -------         PROC          _MONIVIDEOMIXWIN
  D:0001H         SYMBOL        szParam
  -------         DO            
  D:0059H         SYMBOL        chose
  D:005AH         SYMBOL        wintp
  -------         ENDDO         
  C:9143H         LINE#         426
  C:9143H         LINE#         427
  C:9143H         LINE#         430
  C:9185H         LINE#         432
  C:9192H         LINE#         433
  -------         ENDPROC       _MONIVIDEOMIXWIN
  C:5ABFH         SYMBOL        L?0220
  C:5AC6H         SYMBOL        L?0223
  C:5ACDH         SYMBOL        L?0226
  C:5AD4H         SYMBOL        L?0234
  C:5ADBH         SYMBOL        L?0236
  C:5AE2H         SYMBOL        L?0239
  C:5AF3H         SYMBOL        L?0241
  C:5AFAH         SYMBOL        L?0254
  -------         PROC          _MONIVIDEOMIXATTR
  X:03BEH         SYMBOL        szParam
  -------         DO            
  D:0026H         SYMBOL        chose
  D:0028H         SYMBOL        attrsel
  D:0029H         SYMBOL        setval
  D:002AH         SYMBOL        winNm
  D:002EH         SYMBOL        wincnt
BL51 BANKED LINKER/LOCATER V6.22                                                      11/06/2015  11:37:23  PAGE 30


  D:002FH         SYMBOL        division
  X:03C1H         SYMBOL        getStr
  -------         ENDDO         
  C:58EAH         LINE#         443
  C:58F0H         LINE#         444
  C:58F0H         LINE#         447
  C:58F3H         LINE#         451
  C:5909H         LINE#         452
  C:5914H         LINE#         454
  C:591AH         LINE#         455
  C:5927H         LINE#         457
  C:5935H         LINE#         458
  C:5938H         LINE#         459
  C:5938H         LINE#         460
  C:5949H         LINE#         461
  C:594CH         LINE#         462
  C:594CH         LINE#         463
  C:595DH         LINE#         464
  C:5960H         LINE#         465
  C:5960H         LINE#         466
  C:5970H         LINE#         467
  C:5973H         LINE#         468
  C:5973H         LINE#         469
  C:5983H         LINE#         470
  C:5986H         LINE#         471
  C:5986H         LINE#         472
  C:5996H         LINE#         473
  C:5999H         LINE#         474
  C:5999H         LINE#         475
  C:59A9H         LINE#         476
  C:59ACH         LINE#         477
  C:59ACH         LINE#         478
  C:59BCH         LINE#         479
  C:59BFH         LINE#         480
  C:59C2H         LINE#         481
  C:59D3H         LINE#         482
  C:59D6H         LINE#         483
  C:59D6H         LINE#         484
  C:59E7H         LINE#         485
  C:59EAH         LINE#         486
  C:59EAH         LINE#         487
  C:59FAH         LINE#         488
  C:59FDH         LINE#         489
  C:59FDH         LINE#         490
  C:5A0DH         LINE#         491
  C:5A10H         LINE#         492
  C:5A10H         LINE#         493
  C:5A20H         LINE#         494
  C:5A23H         LINE#         495
  C:5A23H         LINE#         496
  C:5A33H         LINE#         497
  C:5A36H         LINE#         498
  C:5A36H         LINE#         499
  C:5A49H         LINE#         500
  C:5A4CH         LINE#         501
  C:5A4FH         LINE#         502
  C:5A64H         LINE#         503
BL51 BANKED LINKER/LOCATER V6.22                                                      11/06/2015  11:37:23  PAGE 31


  C:5A67H         LINE#         504
  C:5A69H         LINE#         505
  C:5A69H         LINE#         507
  C:5A69H         LINE#         509
  C:5A72H         LINE#         510
  C:5A90H         LINE#         511
  C:5A90H         LINE#         512
  C:5AA1H         LINE#         513
  C:5AA3H         LINE#         514
  C:5AA3H         LINE#         515
  C:5AA5H         LINE#         516
  C:5AA9H         LINE#         517
  C:5AB3H         LINE#         518
  C:5ABAH         LINE#         519
  C:5ABAH         LINE#         520
  C:5ABEH         LINE#         521
  -------         ENDPROC       _MONIVIDEOMIXATTR
  -------         PROC          _MONIYVIDEOMIX
  D:0001H         SYMBOL        szParam
  -------         DO            
  D:0030H         SYMBOL        chan
  -------         ENDDO         
  C:A454H         LINE#         528
  C:A454H         LINE#         529
  C:A454H         LINE#         532
  C:A461H         LINE#         533
  -------         ENDPROC       _MONIYVIDEOMIX
  -------         PROC          MONIVIDEOAUTODETECT
  C:9A82H         LINE#         540
  C:9A82H         LINE#         541
  C:9A82H         LINE#         542
  -------         ENDPROC       MONIVIDEOAUTODETECT
  C:78FEH         SYMBOL        L?0218
  C:791CH         SYMBOL        L?0256
  -------         PROC          _MONISETVIDEOFORMAT
  X:03C4H         SYMBOL        szParam
  -------         DO            
  D:0039H         SYMBOL        selch0
  D:003AH         SYMBOL        selch1
  D:003BH         SYMBOL        selch2
  D:003CH         SYMBOL        selch3
  D:003DH         SYMBOL        valch0
  D:003EH         SYMBOL        valch1
  D:003FH         SYMBOL        valch2
  D:0040H         SYMBOL        valch3
  X:03C7H         SYMBOL        getStr
  -------         ENDDO         
  C:780BH         LINE#         554
  C:780EH         LINE#         555
  C:780EH         LINE#         560
  C:7821H         LINE#         562
  C:7842H         LINE#         563
  C:7842H         LINE#         564
  C:785AH         LINE#         565
  C:785DH         LINE#         566
  C:7860H         LINE#         568
  C:7860H         LINE#         569
BL51 BANKED LINKER/LOCATER V6.22                                                      11/06/2015  11:37:23  PAGE 32


  C:7878H         LINE#         571
  C:7880H         LINE#         572
  C:7888H         LINE#         573
  C:788BH         LINE#         575
  C:788BH         LINE#         576
  C:78A6H         LINE#         578
  C:78A6H         LINE#         579
  C:78A9H         LINE#         580
  C:78B1H         LINE#         581
  C:78B4H         LINE#         583
  C:78B4H         LINE#         584
  C:78E0H         LINE#         586
  C:78E0H         LINE#         587
  C:78E3H         LINE#         588
  C:78F0H         LINE#         589
  C:78FDH         LINE#         590
  C:78FDH         LINE#         592
  C:78FDH         LINE#         593
  C:78FDH         LINE#         594
  C:78FDH         LINE#         595
  -------         ENDPROC       _MONISETVIDEOFORMAT
  C:8FB6H         SYMBOL        L?0240
  -------         PROC          _MONISHOWSODSTR
  X:03CAH         SYMBOL        szParam
  -------         DO            
  D:005BH         SYMBOL        addrx
  D:005CH         SYMBOL        addry
  X:03CDH         SYMBOL        getStr
  -------         ENDDO         
  C:8F69H         LINE#         601
  C:8F6CH         LINE#         602
  C:8F6CH         LINE#         606
  C:8F6FH         LINE#         607
  C:8F7AH         LINE#         608
  C:8F7DH         LINE#         609
  C:8F88H         LINE#         611
  C:8F8DH         LINE#         612
  C:8F92H         LINE#         613
  C:8F97H         LINE#         614
  C:8FB1H         LINE#         615
  C:8FB6H         LINE#         616
  -------         ENDPROC       _MONISHOWSODSTR
  -------         PROC          PCT_AUDIOACTIONFORHS
  -------         DO            
  D:005DH         SYMBOL        winid
  D:005EH         SYMBOL        muteFlage
  -------         ENDDO         
  C:95C5H         LINE#         622
  C:95C5H         LINE#         623
  C:95C5H         LINE#         625
  C:95C8H         LINE#         628
  C:95CBH         LINE#         629
  C:95DAH         LINE#         630
  C:95ECH         LINE#         631
  C:95EFH         LINE#         632
  C:95EFH         LINE#         633
  C:95F8H         LINE#         635
BL51 BANKED LINKER/LOCATER V6.22                                                      11/06/2015  11:37:23  PAGE 33


  C:95FCH         LINE#         637
  C:9604H         LINE#         642
  C:960BH         LINE#         643
  C:960BH         LINE#         645
  -------         ENDPROC       PCT_AUDIOACTIONFORHS
  -------         PROC          _MONIHSCOMM
  D:0001H         SYMBOL        szParam
  -------         DO            
  D:0030H         SYMBOL        winid
  D:0031H         SYMBOL        chose
  D:0032H         SYMBOL        wintp
  -------         ENDDO         
  C:6F98H         LINE#         652
  C:6F98H         LINE#         656
  C:7002H         LINE#         659
  C:701EH         LINE#         663
  C:7028H         LINE#         664
  C:7032H         LINE#         665
  C:703DH         LINE#         666
  C:7048H         LINE#         668
  C:7053H         LINE#         669
  C:705EH         LINE#         670
  C:7069H         LINE#         671
  C:7074H         LINE#         678
  C:707DH         LINE#         679
  C:7086H         LINE#         682
  C:7091H         LINE#         685
  C:7094H         LINE#         686
  C:70B0H         LINE#         691
  C:70B5H         LINE#         692
  C:70BAH         LINE#         693
  C:70BFH         LINE#         695
  C:70C7H         LINE#         696
  C:70CCH         LINE#         697
  C:70D1H         LINE#         698
  C:70D4H         LINE#         699
  C:70DDH         LINE#         700
  C:70E5H         LINE#         718
  -------         ENDPROC       _MONIHSCOMM
  -------         PROC          PCT_CHECKSYSTEM
  -------         DO            
  D:0007H         SYMBOL        TempSystem
  -------         ENDDO         
  C:8C9EH         LINE#         725
  C:8C9EH         LINE#         726
  C:8C9EH         LINE#         729
  C:8CA3H         LINE#         731
  C:8CA7H         LINE#         732
  C:8CA9H         LINE#         733
  C:8CB0H         LINE#         734
  C:8CB2H         LINE#         735
  C:8CB7H         LINE#         738
  C:8CC7H         LINE#         740
  C:8CCCH         LINE#         744
  C:8CD4H         LINE#         745
  C:8CDDH         LINE#         746
  C:8CE6H         LINE#         748
BL51 BANKED LINKER/LOCATER V6.22                                                      11/06/2015  11:37:23  PAGE 34


  C:8CF1H         LINE#         752
  C:8CF6H         LINE#         753
  C:8CF9H         LINE#         754
  C:8D02H         LINE#         755
  C:8D05H         LINE#         758
  C:8D06H         LINE#         759
  -------         ENDPROC       PCT_CHECKSYSTEM
  -------         PROC          _MONIHSCOMMSJMODE
  D:0001H         SYMBOL        szParam
  C:A389H         LINE#         766
  C:A389H         LINE#         767
  C:A389H         LINE#         768
  -------         ENDPROC       _MONIHSCOMMSJMODE
  -------         PROC          MONIHSCOMMDISSCROLL
  C:0026H         LINE#         775
  C:0026H         LINE#         776
  C:0026H         LINE#         777
  -------         ENDPROC       MONIHSCOMMDISSCROLL
  -------         PROC          MONIHSCOMMVERSION
  C:A42EH         LINE#         784
  C:A42EH         LINE#         785
  C:A42EH         LINE#         786
  C:A437H         LINE#         787
  -------         ENDPROC       MONIHSCOMMVERSION
  C:7C08H         SYMBOL        L?0231
  C:7C12H         SYMBOL        L?0238
  C:7C1BH         SYMBOL        L?0257
  -------         PROC          _PCT_RUNCOMMSHELL
  X:01D5H         SYMBOL        strptr
  -------         DO            
  X:01D8H         SYMBOL        commcode
  X:01DAH         SYMBOL        getStr
  -------         ENDDO         
  C:7B35H         LINE#         795
  C:7B38H         LINE#         796
  C:7B38H         LINE#         812
  C:7B4BH         LINE#         815
  C:7B5CH         LINE#         831
  C:7B6BH         LINE#         834
  C:7B74H         LINE#         836
  C:7B77H         LINE#         889
  C:7B86H         LINE#         891
  C:7B86H         LINE#         893
  C:7B8FH         LINE#         895
  C:7B92H         LINE#         917
  C:7BA2H         LINE#         918
  C:7BA2H         LINE#         920
  C:7BABH         LINE#         923
  C:7BAEH         LINE#         924
  C:7BB3H         LINE#         937
  C:7BC5H         LINE#         938
  C:7BC5H         LINE#         940
  C:7BCEH         LINE#         941
  C:7BD0H         LINE#         955
  C:7BE0H         LINE#         956
  C:7BE0H         LINE#         958
  C:7BE8H         LINE#         963
BL51 BANKED LINKER/LOCATER V6.22                                                      11/06/2015  11:37:23  PAGE 35


  C:7BEAH         LINE#         964
  C:7BFAH         LINE#         965
  C:7BFAH         LINE#         967
  C:7BFDH         LINE#         968
  C:7C05H         LINE#         975
  C:7C05H         LINE#         1005
  C:7C05H         LINE#         1006
  C:7C05H         LINE#         1011
  C:7C07H         LINE#         1012
  -------         ENDPROC       _PCT_RUNCOMMSHELL
  -------         ENDMOD        COMMANDSHELL

  -------         MODULE        MAIN
  C:0000H         SYMBOL        _ICE_DUMMY_
  C:9CAEH         PUBLIC        _PutsP
  D:0094H         PUBLIC        P0M1
  D:0091H         PUBLIC        P1M0
  D:00F6H         PUBLIC        PCAPWM4
  D:0095H         PUBLIC        P2M0
  D:0092H         PUBLIC        P1M1
  D:00F7H         PUBLIC        PCAPWM5
  D:0080H         PUBLIC        P0
  D:00B1H         PUBLIC        P3M0
  D:0096H         PUBLIC        P2M1
  D:0090H         PUBLIC        P1
  X:02F3H         PUBLIC        CB_flag
  D:00B2H         PUBLIC        P3M1
  D:00B3H         PUBLIC        P4M0
  D:00A0H         PUBLIC        P2
  D:00B4H         PUBLIC        P4M1
  D:00C0H         PUBLIC        XICON
  D:00B0H         PUBLIC        P3
  D:00E8H         PUBLIC        P4
  X:02F4H         PUBLIC        Temp_timeout
  D:00E1H         PUBLIC        WDTCR
  B:00A8H.7       PUBLIC        EA
  X:02F5H         PUBLIC        RScommand
  D:00F9H         PUBLIC        CH
  C:A4B9H         PUBLIC        PWM_init
  D:00A8H         PUBLIC        IE
  D:00E9H         PUBLIC        CL
  D:00FAH         PUBLIC        CCAP0H
  B:0090H.1       PUBLIC        P1_1
  D:00FBH         PUBLIC        CCAP1H
  B:0090H.2       PUBLIC        P1_2
  D:00FCH         PUBLIC        CCAP2H
  B:0090H.3       PUBLIC        P1_3
  D:00FDH         PUBLIC        CCAP3H
  B:00E8H.1       PUBLIC        P4_1
  B:0090H.4       PUBLIC        P1_4
  D:00FEH         PUBLIC        CCAP4H
  D:00EAH         PUBLIC        CCAP0L
  B:0090H.5       PUBLIC        P1_5
  D:00FFH         PUBLIC        CCAP5H
  D:00EBH         PUBLIC        CCAP1L
  D:00DAH         PUBLIC        CCAPM0
  B:0024H.7       PUBLIC        VlossFlag
BL51 BANKED LINKER/LOCATER V6.22                                                      11/06/2015  11:37:23  PAGE 36


  B:0090H.6       PUBLIC        P1_6
  D:00ECH         PUBLIC        CCAP2L
  D:00DBH         PUBLIC        CCAPM1
  B:0090H.7       PUBLIC        P1_7
  D:00EDH         PUBLIC        CCAP3L
  D:00DCH         PUBLIC        CCAPM2
  D:00EEH         PUBLIC        CCAP4L
  D:00DDH         PUBLIC        CCAPM3
  D:00B8H         PUBLIC        IP
  D:00EFH         PUBLIC        CCAP5L
  D:00DEH         PUBLIC        CCAPM4
  C:4E35H         PUBLIC        _Monitor_set
  D:00DFH         PUBLIC        CCAPM5
  B:0098H.1       PUBLIC        TI
  C:9E9DH         PUBLIC        _PWM_set
  X:0320H         PUBLIC        SC16_com_state
  D:00D9H         PUBLIC        CMOD
  D:00D8H         PUBLIC        CCON
  C:6CD6H         PUBLIC        main
  C:A14DH         PUBLIC        ResetCommSell
  D:0020H         PUBLIC        commFlag
  X:0321H         PUBLIC        timerout1
  B:0025H.0       PUBLIC        data_chk_flag
  X:0323H         PUBLIC        timerout2
  D:0087H         PUBLIC        PCON
  X:0325H         PUBLIC        timerout3
  X:0327H         PUBLIC        timerout4
  X:0329H         PUBLIC        boot_flag
  D:00C0H         PUBLIC        WDTC
  D:0098H         PUBLIC        SCON
  D:0089H         PUBLIC        TMOD
  D:0088H         PUBLIC        TCON
  C:A588H         PUBLIC        NewLine
  C:A591H         PUBLIC        _PCT_FlashOSDCtrl
  C:7DDCH         PUBLIC        CommandShell
  D:008EH         PUBLIC        AUXR
  X:032AH         PUBLIC        work_flag
  X:032BH         PUBLIC        Small_f
  C:9410H         PUBLIC        InitialMPU
  C:5B08H         SYMBOL        _?ix1000
  B:0020H.0       PUBLIC        comm_chk_flag
  C:5BF7H         SYMBOL        _?ix1010
  C:5B0EH         SYMBOL        _?ix1001
  C:5C1DH         SYMBOL        _?ix1011
  C:5B1CH         SYMBOL        _?ix1002
  C:5C43H         SYMBOL        _?ix1012
  C:5B2AH         SYMBOL        _?ix1003
  C:5C69H         SYMBOL        _?ix1013
  C:5B32H         SYMBOL        _?ix1004
  C:5C8FH         SYMBOL        _?ix1014
  C:5B39H         SYMBOL        _?ix1005
  C:5CB5H         SYMBOL        _?ix1015
  C:5B5FH         SYMBOL        _?ix1006
  C:5B85H         SYMBOL        _?ix1007
  C:5BABH         SYMBOL        _?ix1008
  C:5BD1H         SYMBOL        _?ix1009
  C:9199H         PUBLIC        Version_check
BL51 BANKED LINKER/LOCATER V6.22                                                      11/06/2015  11:37:23  PAGE 37


  X:032CH         PUBLIC        Main_f
  X:032DH         PUBLIC        ADC_Val
  C:9ECAH         PUBLIC        _chkStartCommShell
  X:0331H         PUBLIC        m_current
  C:9291H         PUBLIC        _Wait_ms
  C:A547H         PUBLIC        InitialCommShell
  D:00F8H         PUBLIC        IPA
  B:0020H.1       PUBLIC        osd_chk_flag
  X:0332H         PUBLIC        PIP_flag
  D:00C8H         PUBLIC        T2CON
  X:0333H         PUBLIC        CB_timeout
  C:76EDH         PUBLIC        Press_check
  X:0334H         PUBLIC        _delay
  D:00A2H         PUBLIC        AUXR1
  X:0336H         PUBLIC        timer2_loop
  D:00A6H         PUBLIC        AUXR2
  C:7F84H         PUBLIC        _Set_PWM_Output
  C:8FCAH         PUBLIC        Camera_Version_check
  C:9240H         PUBLIC        Temp_check
  D:00F2H         PUBLIC        PCAPWM0
  D:00D0H         PUBLIC        PSW
  D:00F3H         PUBLIC        PCAPWM1
  D:00F4H         PUBLIC        PCAPWM2
  D:0093H         PUBLIC        P0M0
  D:00F5H         PUBLIC        PCAPWM3
  C:7EB5H         SYMBOL        Com00B5
  C:7EB5H         SYMBOL        L?0182
  C:7EB9H         SYMBOL        L?0183
  C:7EC0H         SYMBOL        L?0185
  C:7EC5H         SYMBOL        L?0186
  C:7EC8H         SYMBOL        L?0187
  C:7ED0H         SYMBOL        L?0188
  C:7ED0H         SYMBOL        L?0189
  C:7EDCH         SYMBOL        L?0190
  C:7EE6H         SYMBOL        L?0191
  C:7EECH         SYMBOL        L?0192
  C:7EECH         SYMBOL        L?0193
  C:7EF5H         SYMBOL        L?0194
  C:7EFEH         SYMBOL        L?0195
  C:7F00H         SYMBOL        L?0196
  C:7F10H         SYMBOL        L?0197
  C:7F11H         SYMBOL        L?0198
  C:7F18H         SYMBOL        L?0199
  C:7F2DH         SYMBOL        L?0200
  C:7F38H         SYMBOL        L?0201
  C:7F38H         SYMBOL        L?0202
  C:7F42H         SYMBOL        L?0203
  C:7F45H         SYMBOL        L?0204
  C:7F4BH         SYMBOL        L?0205
  C:7F58H         SYMBOL        L?0206
  C:7F58H         SYMBOL        L?0207
  C:7F60H         SYMBOL        L?0208
  C:7F6CH         SYMBOL        L?0209
  C:7F76H         SYMBOL        L?0210
  C:7F76H         SYMBOL        L?0211
  C:7F7DH         SYMBOL        L?0212
  C:7F7DH         SYMBOL        L?0213
BL51 BANKED LINKER/LOCATER V6.22                                                      11/06/2015  11:37:23  PAGE 38


  -------         PROC          COM00B5
  -------         ENDPROC       COM00B5
  -------         PROC          COMMANDSHELL
  -------         DO            
  D:0030H         SYMBOL        ch
  X:02F2H         SYMBOL        etx_flag
  -------         ENDDO         
  C:7DDCH         LINE#         138
  C:7DDCH         LINE#         139
  C:7DDCH         LINE#         144
  C:7DE7H         LINE#         145
  C:7DE7H         LINE#         147
  C:7DEAH         LINE#         148
  C:7DEFH         LINE#         156
  C:7DFAH         LINE#         157
  C:7DFAH         LINE#         158
  C:7DFFH         LINE#         160
  C:7E05H         LINE#         165
  C:7E0BH         LINE#         166
  C:7E0CH         LINE#         168
  C:7E2FH         LINE#         169
  C:7E2FH         LINE#         170
  C:7E35H         LINE#         171
  C:7E38H         LINE#         172
  C:7E3BH         LINE#         173
  C:7E3CH         LINE#         174
  C:7E47H         LINE#         175
  C:7E47H         LINE#         177
  C:7E4DH         LINE#         178
  C:7E50H         LINE#         179
  C:7E56H         LINE#         180
  C:7E5BH         LINE#         185
  C:7E5CH         LINE#         186
  C:7E64H         LINE#         187
  C:7E64H         LINE#         189
  C:7E6DH         LINE#         199
  C:7E7BH         LINE#         200
  C:7E7BH         LINE#         201
  C:7E81H         LINE#         203
  C:7E89H         LINE#         204
  C:7E8CH         LINE#         206
  C:7E94H         LINE#         208
  C:7E9AH         LINE#         209
  C:7E9BH         LINE#         217
  C:7E9BH         LINE#         218
  C:7EA1H         LINE#         219
  C:7EA4H         LINE#         220
  C:7EADH         LINE#         225
  C:7EADH         LINE#         266
  C:7EADH         LINE#         268
  C:7EADH         LINE#         269
  C:7EB4H         LINE#         270
  C:7EB4H         LINE#         274
  -------         ENDPROC       COMMANDSHELL
  -------         PROC          NEWLINE
  C:A588H         LINE#         281
  C:A588H         LINE#         282
BL51 BANKED LINKER/LOCATER V6.22                                                      11/06/2015  11:37:23  PAGE 39


  C:A588H         LINE#         283
  -------         ENDPROC       NEWLINE
  -------         PROC          _PUTSP
  X:03EBH         SYMBOL        ptr
  -------         DO            
  D:0064H         SYMBOL        ch
  -------         ENDDO         
  C:9CAEH         LINE#         290
  C:9CB9H         LINE#         291
  C:9CB9H         LINE#         294
  C:9CC9H         LINE#         295
  C:9CDCH         LINE#         296
  C:9CE0H         LINE#         297
  C:9CE2H         LINE#         298
  -------         ENDPROC       _PUTSP
  -------         PROC          RESETCOMMSELL
  C:A14DH         LINE#         304
  C:A14DH         LINE#         305
  C:A14DH         LINE#         308
  C:A152H         LINE#         309
  C:A156H         LINE#         310
  C:A15AH         LINE#         311
  C:A15DH         LINE#         312
  C:A15DH         LINE#         313
  C:A15DH         LINE#         314
  C:A160H         LINE#         315
  C:A160H         LINE#         316
  C:A160H         LINE#         317
  C:A164H         LINE#         318
  C:A166H         LINE#         319
  C:A168H         LINE#         321
  C:A16CH         LINE#         322
  C:A16EH         LINE#         323
  C:A172H         LINE#         324
  -------         ENDPROC       RESETCOMMSELL
  -------         PROC          _PCT_FLASHOSDCTRL
  D:0007H         SYMBOL        _on
  C:A591H         LINE#         330
  C:A591H         LINE#         331
  C:A591H         LINE#         332
  C:A597H         LINE#         333
  C:A599H         LINE#         334
  -------         ENDPROC       _PCT_FLASHOSDCTRL
  -------         PROC          INITIALCOMMSHELL
  C:A547H         LINE#         341
  C:A547H         LINE#         342
  C:A547H         LINE#         343
  C:A549H         LINE#         344
  C:A54BH         LINE#         347
  C:A54DH         LINE#         348
  C:A552H         LINE#         349
  -------         ENDPROC       INITIALCOMMSHELL
  -------         PROC          _CHKSTARTCOMMSHELL
  X:03EEH         SYMBOL        ptr
  C:9ECAH         LINE#         355
  C:9ED5H         LINE#         356
  C:9ED5H         LINE#         357
BL51 BANKED LINKER/LOCATER V6.22                                                      11/06/2015  11:37:23  PAGE 40


  C:9ED8H         LINE#         358
  C:9EF5H         LINE#         359
  -------         ENDPROC       _CHKSTARTCOMMSHELL
  -------         PROC          _WAIT_MS
  X:01D5H         SYMBOL        Tms
  -------         DO            
  X:01D7H         SYMBOL        count
  -------         ENDDO         
  C:9291H         LINE#         361
  C:9299H         LINE#         363
  C:9299H         LINE#         372
  C:92A3H         LINE#         374
  C:92A3H         LINE#         376
  C:92D0H         LINE#         378
  C:92DEH         LINE#         380
  C:92E0H         LINE#         381
  -------         ENDPROC       _WAIT_MS
  -------         PROC          MAIN
  -------         DO            
  X:0000H         SYMBOL        Counter
  X:0001H         SYMBOL        readtemp
  X:0003H         SYMBOL        OsdCount1
  X:0004H         SYMBOL        OsdCount2
  X:0005H         SYMBOL        Camera_speed
  -------         ENDDO         
  C:6CD6H         LINE#         389
  C:6CD6H         LINE#         390
  C:6CD6H         LINE#         391
  C:6CD9H         LINE#         392
  C:6CD9H         LINE#         393
  C:6CDFH         LINE#         394
  C:6CE3H         LINE#         395
  C:6CE6H         LINE#         409
  C:6CE9H         LINE#         410
  C:6CECH         LINE#         463
  C:6CEFH         LINE#         464
  C:6CF2H         LINE#         475
  C:6CF7H         LINE#         476
  C:6CFAH         LINE#         479
  C:6CFFH         LINE#         495
  C:6D05H         LINE#         496
  C:6D0BH         LINE#         497
  C:6D15H         LINE#         499
  C:6D1BH         LINE#         500
  C:6D22H         LINE#         502
  C:6D32H         LINE#         504
  C:6D32H         LINE#         506
  C:6D35H         LINE#         507
  C:6D42H         LINE#         508
  C:6D4CH         LINE#         510
  C:6D4FH         LINE#         511
  C:6D4FH         LINE#         512
  C:6D54H         LINE#         513
  C:6D56H         LINE#         514
  C:6D56H         LINE#         518
  C:6D65H         LINE#         522
  C:6D6DH         LINE#         523
BL51 BANKED LINKER/LOCATER V6.22                                                      11/06/2015  11:37:23  PAGE 41


  C:6D6DH         LINE#         527
  C:6D71H         LINE#         528
  C:6D7AH         LINE#         529
  C:6D7AH         LINE#         531
  C:6D88H         LINE#         532
  C:6D88H         LINE#         535
  C:6D8BH         LINE#         536
  C:6D8EH         LINE#         538
  C:6D9AH         LINE#         539
  C:6D9AH         LINE#         540
  C:6D9DH         LINE#         541
  C:6D9DH         LINE#         548
  C:6DA3H         LINE#         550
  C:6DA3H         LINE#         552
  C:6DB4H         LINE#         553
  C:6DB4H         LINE#         554
  C:6DBAH         LINE#         555
  C:6DBDH         LINE#         557
  C:6DBDH         LINE#         568
  C:6DCBH         LINE#         569
  C:6DCBH         LINE#         574
  C:6DE4H         LINE#         575
  C:6DEAH         LINE#         576
  C:6DF0H         LINE#         577
  C:6DF8H         LINE#         579
  C:6DFAH         LINE#         581
  C:6DFDH         LINE#         584
  C:6E09H         LINE#         585
  C:6E09H         LINE#         586
  C:6E0FH         LINE#         587
  C:6E18H         LINE#         591
  C:6E18H         LINE#         598
  C:6E24H         LINE#         599
  C:6E24H         LINE#         600
  C:6E2CH         LINE#         601
  C:6E33H         LINE#         602
  C:6E33H         LINE#         604
  C:6E36H         LINE#         625
  -------         ENDPROC       MAIN
  -------         PROC          INITIALMPU
  C:9410H         LINE#         641
  C:9410H         LINE#         643
  C:9413H         LINE#         644
  C:9415H         LINE#         648
  C:9417H         LINE#         651
  C:941AH         LINE#         653
  C:941CH         LINE#         654
  C:941FH         LINE#         659
  C:9421H         LINE#         667
  C:9424H         LINE#         668
  C:9427H         LINE#         669
  C:942AH         LINE#         674
  C:942DH         LINE#         675
  C:942FH         LINE#         676
  C:9431H         LINE#         677
  C:9433H         LINE#         678
  C:9434H         LINE#         734
BL51 BANKED LINKER/LOCATER V6.22                                                      11/06/2015  11:37:23  PAGE 42


  C:9436H         LINE#         735
  C:9438H         LINE#         737
  C:943BH         LINE#         738
  C:943EH         LINE#         740
  C:9440H         LINE#         741
  C:9442H         LINE#         743
  C:9444H         LINE#         744
  C:9446H         LINE#         746
  C:9448H         LINE#         747
  C:944BH         LINE#         748
  C:944DH         LINE#         751
  C:944FH         LINE#         752
  C:9451H         LINE#         753
  C:9453H         LINE#         754
  C:9455H         LINE#         755
  C:9457H         LINE#         756
  C:9459H         LINE#         760
  -------         ENDPROC       INITIALMPU
  -------         PROC          _SET_PWM_OUTPUT
  X:01DDH         SYMBOL        addr
  X:01DEH         SYMBOL        val
  -------         DO            
  X:01DFH         SYMBOL        num
  -------         ENDDO         
  C:7F84H         LINE#         763
  C:7F8CH         LINE#         764
  C:7F8CH         LINE#         766
  C:7F99H         LINE#         777
  C:7FB6H         LINE#         778
  C:7FB6H         LINE#         779
  C:7FB6H         LINE#         780
  C:7FB9H         LINE#         781
  C:7FC4H         LINE#         782
  C:7FC7H         LINE#         784
  C:7FCCH         LINE#         785
  C:7FCFH         LINE#         786
  C:7FD0H         LINE#         787
  C:7FD0H         LINE#         788
  C:7FD3H         LINE#         789
  C:7FDEH         LINE#         790
  C:7FE1H         LINE#         792
  C:7FE6H         LINE#         793
  C:7FE9H         LINE#         794
  C:7FEAH         LINE#         795
  C:7FEAH         LINE#         796
  C:7FEDH         LINE#         797
  C:7FF8H         LINE#         798
  C:7FFBH         LINE#         800
  C:8000H         LINE#         801
  C:8003H         LINE#         802
  C:8004H         LINE#         803
  C:8004H         LINE#         804
  C:8007H         LINE#         805
  C:8012H         LINE#         806
  C:8015H         LINE#         808
  C:801AH         LINE#         809
  C:801DH         LINE#         810
BL51 BANKED LINKER/LOCATER V6.22                                                      11/06/2015  11:37:23  PAGE 43


  C:801EH         LINE#         811
  C:801EH         LINE#         812
  C:8021H         LINE#         813
  C:802CH         LINE#         814
  C:802FH         LINE#         816
  C:8034H         LINE#         817
  C:8037H         LINE#         818
  C:8038H         LINE#         819
  C:8038H         LINE#         820
  C:803BH         LINE#         821
  C:8046H         LINE#         822
  C:8049H         LINE#         824
  C:804EH         LINE#         825
  C:8051H         LINE#         826
  C:8051H         LINE#         827
  C:8051H         LINE#         828
  C:8051H         LINE#         829
  C:8051H         LINE#         832
  -------         ENDPROC       _SET_PWM_OUTPUT
  -------         PROC          PWM_INIT
  C:A4B9H         LINE#         835
  C:A4B9H         LINE#         836
  C:A4B9H         LINE#         838
  C:A4BCH         LINE#         839
  C:A4BEH         LINE#         840
  C:A4C1H         LINE#         843
  C:A4C4H         LINE#         851
  C:A4C7H         LINE#         888
  -------         ENDPROC       PWM_INIT
  C:513CH         SYMBOL        L?0184
  -------         PROC          _MONITOR_SET
  X:0006H         SYMBOL        val
  -------         DO            
  X:0007H         SYMBOL        busw1
  X:0015H         SYMBOL        busw2
  X:0023H         SYMBOL        yvmix
  X:002BH         SYMBOL        mode
  X:0032H         SYMBOL        conf1
  X:0058H         SYMBOL        conf2
  X:007EH         SYMBOL        conf3
  X:00A4H         SYMBOL        conf4
  X:00CAH         SYMBOL        conf5
  X:00F0H         SYMBOL        conf6
  X:0116H         SYMBOL        conf7
  X:013CH         SYMBOL        conf8
  X:0162H         SYMBOL        conf9
  X:0188H         SYMBOL        conf10
  X:01AEH         SYMBOL        conf11
  X:01D4H         SYMBOL        Error
  D:0007H         SYMBOL        ch
  -------         ENDDO         
  C:4E35H         LINE#         891
  C:4E3AH         LINE#         892
  C:4E3AH         LINE#         893
  C:4E45H         LINE#         894
  C:4E50H         LINE#         895
  C:4E63H         LINE#         896
BL51 BANKED LINKER/LOCATER V6.22                                                      11/06/2015  11:37:23  PAGE 44


  C:4E70H         LINE#         908
  C:4E7BH         LINE#         909
  C:4E86H         LINE#         910
  C:4E95H         LINE#         912
  C:4EA4H         LINE#         913
  C:4EB3H         LINE#         915
  C:4EC2H         LINE#         916
  C:4ED1H         LINE#         918
  C:4EE0H         LINE#         919
  C:4EEFH         LINE#         921
  C:4EFEH         LINE#         942
  C:4F0DH         LINE#         945
  C:4F12H         LINE#         946
  C:4F12H         LINE#         948
  C:4F1AH         LINE#         951
  C:4F1FH         LINE#         952
  C:4F25H         LINE#         954
  C:4F2AH         LINE#         958
  C:4F2FH         LINE#         960
  C:4F54H         LINE#         961
  C:4F54H         LINE#         962
  C:4F59H         LINE#         963
  C:4F60H         LINE#         964
  C:4F60H         LINE#         965
  C:4F64H         LINE#         966
  C:4F64H         LINE#         967
  C:4F66H         LINE#         968
  C:4F6BH         LINE#         969
  C:4F6BH         LINE#         970
  C:4F6DH         LINE#         971
  C:4F73H         LINE#         972
  C:4F79H         LINE#         973
  C:4F7BH         LINE#         974
  C:4F80H         LINE#         975
  C:4F85H         LINE#         976
  C:4F87H         LINE#         978
  C:4F87H         LINE#         979
  C:4F8DH         LINE#         980
  C:4F8FH         LINE#         981
  C:4F8FH         LINE#         982
  C:4F95H         LINE#         983
  C:4F97H         LINE#         985
  C:4F9DH         LINE#         986
  C:4F9DH         LINE#         989
  C:4FA7H         LINE#         990
  C:4FA7H         LINE#         991
  C:4FACH         LINE#         992
  C:4FAFH         LINE#         993
  C:4FB7H         LINE#         994
  C:4FB7H         LINE#         995
  C:4FBDH         LINE#         996
  C:4FBDH         LINE#         997
  C:4FC3H         LINE#         998
  C:4FC3H         LINE#         999
  C:4FC6H         LINE#         1000
  C:4FCCH         LINE#         1001
  C:4FCEH         LINE#         1003
BL51 BANKED LINKER/LOCATER V6.22                                                      11/06/2015  11:37:23  PAGE 45


  C:4FCEH         LINE#         1004
  C:4FD1H         LINE#         1005
  C:4FD6H         LINE#         1006
  C:4FD6H         LINE#         1007
  C:4FD8H         LINE#         1009
  C:4FD8H         LINE#         1010
  C:4FDEH         LINE#         1011
  C:4FDEH         LINE#         1012
  C:4FE1H         LINE#         1013
  C:4FE7H         LINE#         1014
  C:4FE9H         LINE#         1016
  C:4FE9H         LINE#         1017
  C:4FECH         LINE#         1018
  C:4FF1H         LINE#         1019
  C:4FF1H         LINE#         1021
  C:4FF1H         LINE#         1023
  C:4FFEH         LINE#         1025
  C:5000H         LINE#         1027
  C:5000H         LINE#         1029
  C:5006H         LINE#         1030
  C:5006H         LINE#         1031
  C:5009H         LINE#         1032
  C:500BH         LINE#         1034
  C:500BH         LINE#         1035
  C:5011H         LINE#         1036
  C:5011H         LINE#         1037
  C:5014H         LINE#         1038
  C:501AH         LINE#         1039
  C:501CH         LINE#         1041
  C:501CH         LINE#         1042
  C:501FH         LINE#         1043
  C:5024H         LINE#         1044
  C:5024H         LINE#         1046
  C:5024H         LINE#         1048
  C:5030H         LINE#         1050
  C:5030H         LINE#         1055
  C:5036H         LINE#         1056
  C:5036H         LINE#         1059
  C:5039H         LINE#         1062
  C:5040H         LINE#         1063
  C:5040H         LINE#         1065
  C:5047H         LINE#         1066
  C:5047H         LINE#         1071
  C:5055H         LINE#         1073
  C:505BH         LINE#         1074
  C:505BH         LINE#         1076
  C:505BH         LINE#         1097
  C:505BH         LINE#         1104
  C:5081H         LINE#         1105
  C:5081H         LINE#         1108
  C:5083H         LINE#         1109
  C:508CH         LINE#         1110
  C:50A7H         LINE#         1111
  C:50A9H         LINE#         1112
  C:50ABH         LINE#         1113
  C:50B4H         LINE#         1114
  C:50BDH         LINE#         1115
BL51 BANKED LINKER/LOCATER V6.22                                                      11/06/2015  11:37:23  PAGE 46


  C:50C6H         LINE#         1116
  C:50CFH         LINE#         1133
  C:50CFH         LINE#         1134
  C:50D9H         LINE#         1147
  C:50D9H         LINE#         1156
  C:50DEH         LINE#         1158
  C:50E4H         LINE#         1161
  C:510AH         LINE#         1162
  C:510AH         LINE#         1164
  C:510CH         LINE#         1165
  C:5110H         LINE#         1166
  C:5114H         LINE#         1167
  C:5118H         LINE#         1168
  C:511CH         LINE#         1169
  C:5120H         LINE#         1170
  C:5127H         LINE#         1171
  C:512BH         LINE#         1172
  C:5136H         LINE#         1174
  C:5136H         LINE#         1175
  C:5136H         LINE#         1176
  C:5136H         LINE#         1204
  C:513BH         LINE#         1206
  -------         ENDPROC       _MONITOR_SET
  -------         PROC          _PWM_SET
  D:0003H         SYMBOL        val
  -------         DO            
  D:0007H         SYMBOL        Error
  D:0002H         SYMBOL        ch
  D:0006H         SYMBOL        set_val
  -------         ENDDO         
  C:9E9DH         LINE#         1210
  C:9E9FH         LINE#         1211
  C:9E9FH         LINE#         1213
  C:9EA2H         LINE#         1215
  C:9EAEH         LINE#         1216
  C:9EAEH         LINE#         1217
  C:9EB8H         LINE#         1218
  C:9EC2H         LINE#         1221
  C:9EC7H         LINE#         1227
  C:9EC9H         LINE#         1228
  C:9EC9H         LINE#         1230
  C:9EC9H         LINE#         1231
  -------         ENDPROC       _PWM_SET
  -------         PROC          TEMP_CHECK
  -------         DO            
  D:0002H         SYMBOL        val
  -------         ENDDO         
  C:9240H         LINE#         1235
  C:9240H         LINE#         1236
  C:9240H         LINE#         1237
  C:9243H         LINE#         1241
  C:9265H         LINE#         1242
  C:9268H         LINE#         1243
  C:926CH         LINE#         1250
  C:927EH         LINE#         1251
  C:9290H         LINE#         1286
  -------         ENDPROC       TEMP_CHECK
BL51 BANKED LINKER/LOCATER V6.22                                                      11/06/2015  11:37:23  PAGE 47


  -------         PROC          PRESS_CHECK
  -------         DO            
  X:0006H         SYMBOL        val
  X:0008H         SYMBOL        loop
  X:0009H         SYMBOL        temp_val
  -------         ENDDO         
  C:76EDH         LINE#         1291
  C:76EDH         LINE#         1292
  C:76EDH         LINE#         1301
  C:76F0H         LINE#         1302
  C:76F0H         LINE#         1312
  C:76FAH         LINE#         1313
  C:7707H         LINE#         1315
  C:770FH         LINE#         1316
  C:7712H         LINE#         1318
  C:771BH         LINE#         1319
  C:771BH         LINE#         1320
  C:7734H         LINE#         1321
  C:7734H         LINE#         1323
  C:7752H         LINE#         1324
  C:7754H         LINE#         1326
  C:7754H         LINE#         1327
  C:775BH         LINE#         1328
  C:775BH         LINE#         1329
  C:775DH         LINE#         1331
  C:775DH         LINE#         1333
  C:7766H         LINE#         1334
  C:7766H         LINE#         1336
  C:7782H         LINE#         1337
  C:7784H         LINE#         1339
  C:7784H         LINE#         1340
  C:778EH         LINE#         1341
  C:778EH         LINE#         1342
  C:778EH         LINE#         1345
  C:77AFH         LINE#         1348
  C:77B2H         LINE#         1352
  C:77C5H         LINE#         1356
  C:77E2H         LINE#         1357
  C:77F3H         LINE#         1358
  C:7804H         LINE#         1359
  C:780AH         LINE#         1408
  -------         ENDPROC       PRESS_CHECK
  -------         PROC          VERSION_CHECK
  -------         DO            
  X:000CH         SYMBOL        loop
  -------         ENDDO         
  C:9199H         LINE#         1411
  C:9199H         LINE#         1412
  C:9199H         LINE#         1417
  C:9199H         LINE#         1418
  C:9199H         LINE#         1419
  C:919FH         LINE#         1420
  C:91A3H         LINE#         1421
  C:91A7H         LINE#         1423
  C:91AAH         LINE#         1424
  C:91AAH         LINE#         1425
  C:91AAH         LINE#         1426
BL51 BANKED LINKER/LOCATER V6.22                                                      11/06/2015  11:37:23  PAGE 48


  C:91ADH         LINE#         1432
  C:91BBH         LINE#         1433
  C:91CEH         LINE#         1438
  C:91DDH         LINE#         1439
  C:91DDH         LINE#         1440
  C:91E5H         LINE#         1442
  C:91EDH         LINE#         1444
  -------         ENDPROC       VERSION_CHECK
  -------         PROC          CAMERA_VERSION_CHECK
  -------         DO            
  X:000CH         SYMBOL        loop
  -------         ENDDO         
  C:8FCAH         LINE#         1446
  C:8FCAH         LINE#         1447
  C:8FCAH         LINE#         1451
  C:8FCAH         LINE#         1452
  C:8FCAH         LINE#         1453
  C:8FD0H         LINE#         1454
  C:8FD8H         LINE#         1455
  C:8FE0H         LINE#         1457
  C:8FE7H         LINE#         1458
  C:8FE7H         LINE#         1459
  C:8FE7H         LINE#         1460
  C:8FEAH         LINE#         1466
  C:8FF8H         LINE#         1467
  C:900BH         LINE#         1472
  C:901AH         LINE#         1473
  C:901AH         LINE#         1474
  C:9022H         LINE#         1476
  C:902AH         LINE#         1478
  -------         ENDPROC       CAMERA_VERSION_CHECK
  -------         ENDMOD        MAIN

  -------         MODULE        OSD_GRAPH
  C:0000H         SYMBOL        _ICE_DUMMY_
  D:0080H         PUBLIC        P0
  D:0090H         PUBLIC        P1
  D:00A0H         PUBLIC        P2
  D:00C0H         PUBLIC        XICON
  D:00B0H         PUBLIC        P3
  D:00E8H         PUBLIC        P4
  D:00A8H         PUBLIC        IE
  D:00B8H         PUBLIC        IP
  D:00D8H         PUBLIC        CCON
  C:1354H         PUBLIC        GRAPH16_TABLE
  C:A5E6H         PUBLIC        _PCT_PreSetGraphAttr
  D:00C0H         PUBLIC        WDTC
  D:0098H         PUBLIC        SCON
  D:0088H         PUBLIC        TCON
  C:002EH         PUBLIC        GRAPH_TABLE
  C:6407H         PUBLIC        _PCT_OSD16x16GraphX
  C:A5E0H         PUBLIC        PCT_ClearGraphAttr
  X:0403H         PUBLIC        graphattr
  D:00F8H         PUBLIC        IPA
  C:902BH         PUBLIC        _PCT_ShowGraphString
  D:00C8H         PUBLIC        T2CON
  D:00D0H         PUBLIC        PSW
BL51 BANKED LINKER/LOCATER V6.22                                                      11/06/2015  11:37:23  PAGE 49


  C:9B2FH         SYMBOL        Com001D
  C:9B2FH         SYMBOL        L?0030
  C:9B2FH         SYMBOL        L?0031
  C:9B32H         SYMBOL        L?0032
  C:9B3DH         SYMBOL        L?0033
  C:9B40H         SYMBOL        L?0034
  C:9B49H         SYMBOL        L?0035
  C:9B5DH         SYMBOL        L?0039
  -------         PROC          COM001D
  -------         ENDPROC       COM001D
  -------         PROC          PCT_CLEARGRAPHATTR
  C:A5E0H         LINE#         73
  C:A5E0H         LINE#         74
  C:A5E0H         LINE#         75
  C:A5E5H         LINE#         76
  -------         ENDPROC       PCT_CLEARGRAPHATTR
  -------         PROC          _PCT_PRESETGRAPHATTR
  D:0007H         SYMBOL        _attribute
  C:A5E6H         LINE#         82
  C:A5E6H         LINE#         83
  C:A5E6H         LINE#         84
  C:A5EBH         LINE#         86
  -------         ENDPROC       _PCT_PRESETGRAPHATTR
  C:654FH         SYMBOL        L?0027
  C:6578H         SYMBOL        L?0028
  C:658BH         SYMBOL        L?0036
  C:6593H         SYMBOL        L?0037
  C:659EH         SYMBOL        L?0038
  -------         PROC          _PCT_OSD16X16GRAPHX
  X:01E7H         SYMBOL        _posx
  X:01E8H         SYMBOL        _posy
  D:0003H         SYMBOL        _indx
  -------         DO            
  X:01EAH         SYMBOL        row
  X:01EBH         SYMBOL        column
  X:01ECH         SYMBOL        cntr
  X:01EDH         SYMBOL        cntc
  X:01EEH         SYMBOL        posx
  X:01EFH         SYMBOL        graph
  -------         ENDDO         
  C:6407H         LINE#         92
  C:6412H         LINE#         93
  C:6412H         LINE#         97
  C:641AH         LINE#         98
  C:6422H         LINE#         99
  C:6438H         LINE#         100
  C:6444H         LINE#         101
  C:6462H         LINE#         102
  C:6468H         LINE#         103
  C:646FH         LINE#         105
  C:6482H         LINE#         106
  C:6495H         LINE#         107
  C:64A6H         LINE#         108
  C:64B1H         LINE#         109
  C:64BCH         LINE#         110
  C:64CAH         LINE#         111
  C:64D5H         LINE#         112
BL51 BANKED LINKER/LOCATER V6.22                                                      11/06/2015  11:37:23  PAGE 50


  C:64DFH         LINE#         114
  C:64E9H         LINE#         115
  C:64F4H         LINE#         117
  C:6503H         LINE#         118
  C:6506H         LINE#         119
  C:650CH         LINE#         121
  C:6516H         LINE#         122
  C:6519H         LINE#         123
  C:651FH         LINE#         125
  C:6525H         LINE#         126
  C:652FH         LINE#         127
  C:6537H         LINE#         128
  C:6545H         LINE#         129
  C:654EH         LINE#         130
  -------         ENDPROC       _PCT_OSD16X16GRAPHX
  -------         PROC          _PCT_SHOWGRAPHSTRING
  X:01E0H         SYMBOL        _path
  X:01E1H         SYMBOL        _addrx
  X:01E2H         SYMBOL        _addry
  X:01E3H         SYMBOL        _strptr
  -------         DO            
  X:01E6H         SYMBOL        slen
  -------         ENDDO         
  C:902BH         LINE#         136
  C:9036H         LINE#         137
  C:9036H         LINE#         140
  C:9042H         LINE#         141
  C:9049H         LINE#         142
  C:9050H         LINE#         143
  C:9050H         LINE#         144
  C:9065H         LINE#         145
  C:906BH         LINE#         146
  C:9075H         LINE#         147
  C:907CH         LINE#         148
  C:9081H         LINE#         149
  C:9083H         LINE#         150
  C:9083H         LINE#         151
  C:9088H         LINE#         152
  C:9088H         LINE#         153
  C:908BH         LINE#         155
  -------         ENDPROC       _PCT_SHOWGRAPHSTRING
  -------         ENDMOD        OSD_GRAPH

  -------         MODULE        OSDACTION_
  C:0000H         SYMBOL        _ICE_DUMMY_
  C:932EH         PUBLIC        PCT_InitialOSD
  C:97FBH         PUBLIC        PCT_ShowModeIcon
  D:0080H         PUBLIC        P0
  D:0090H         PUBLIC        P1
  D:00A0H         PUBLIC        P2
  D:00C0H         PUBLIC        XICON
  D:00B0H         PUBLIC        P3
  D:00E8H         PUBLIC        P4
  C:A5D0H         PUBLIC        PCT_EnfalshVLoss
  C:A205H         PUBLIC        camstr
  D:00A8H         PUBLIC        IE
  D:00B8H         PUBLIC        IP
BL51 BANKED LINKER/LOCATER V6.22                                                      11/06/2015  11:37:23  PAGE 51


  C:6B70H         PUBLIC        _PCT_ShowIndicateIcon
  C:A222H         PUBLIC        SPEAKICON
  D:00D8H         PUBLIC        CCON
  X:0404H         PUBLIC        VlossCount
  D:00C0H         PUBLIC        WDTC
  D:0098H         PUBLIC        SCON
  D:0088H         PUBLIC        TCON
  B:0021H.0       PUBLIC        OSDPAGE2
  B:0021H.1       PUBLIC        OSDPAGE3
  B:0021H.2       PUBLIC        OSDPAGE4
  B:0021H.3       PUBLIC        OSDPAGE5
  D:0021H         PUBLIC        osdflage
  C:960CH         PUBLIC        PCT_GetVideoSignalStatus
  C:A21AH         PUBLIC        indicate_icon
  C:A173H         PUBLIC        PCT_OSDActionForHS
  D:00F8H         PUBLIC        IPA
  C:A224H         PUBLIC        msgVLOSS
  C:2C9BH         PUBLIC        PCT_ShowVLoss
  D:00C8H         PUBLIC        T2CON
  C:36FDH         PUBLIC        _PCT_ShowSpeakIcon
  C:321FH         PUBLIC        _PCT_ShowMirrorIcon
  C:4400H         PUBLIC        _PCT_OSD_ActionPthX
  D:00D0H         PUBLIC        PSW
  C:810CH         SYMBOL        Com020E
  C:810CH         SYMBOL        L?0527
  C:810CH         SYMBOL        L?0528
  C:810FH         SYMBOL        L?0529
  C:811BH         SYMBOL        L?0530
  C:811CH         SYMBOL        L?0531
  C:8124H         SYMBOL        L?0532
  C:8124H         SYMBOL        L?0533
  C:8127H         SYMBOL        L?0534
  C:8130H         SYMBOL        L?0535
  C:8130H         SYMBOL        L?0536
  C:8133H         SYMBOL        L?0537
  C:813DH         SYMBOL        L?0538
  C:813DH         SYMBOL        L?0539
  C:8146H         SYMBOL        L?0542
  C:8146H         SYMBOL        L?0543
  C:814EH         SYMBOL        L?0547
  C:814EH         SYMBOL        L?0548
  C:8154H         SYMBOL        L?0550
  C:8154H         SYMBOL        L?0551
  C:815CH         SYMBOL        L?0554
  C:815CH         SYMBOL        L?0555
  C:8164H         SYMBOL        L?0565
  C:8164H         SYMBOL        L?0566
  C:816CH         SYMBOL        L?0569
  C:816CH         SYMBOL        L?0570
  C:8172H         SYMBOL        L?0580
  C:8172H         SYMBOL        L?0581
  C:8175H         SYMBOL        L?0582
  C:817EH         SYMBOL        L?0598
  C:817EH         SYMBOL        L?0599
  C:8186H         SYMBOL        L?0603
  C:8186H         SYMBOL        L?0604
  C:818DH         SYMBOL        L?0609
BL51 BANKED LINKER/LOCATER V6.22                                                      11/06/2015  11:37:23  PAGE 52


  C:818DH         SYMBOL        L?0610
  C:818FH         SYMBOL        L?0611
  C:8196H         SYMBOL        L?0614
  C:8196H         SYMBOL        L?0615
  C:819FH         SYMBOL        L?0616
  C:819FH         SYMBOL        L?0617
  C:81A5H         SYMBOL        L?0618
  C:81A5H         SYMBOL        L?0619
  C:81ACH         SYMBOL        L?0623
  C:81ACH         SYMBOL        L?0624
  C:81B4H         SYMBOL        L?0630
  C:81B4H         SYMBOL        L?0631
  C:81BCH         SYMBOL        L?0632
  C:81BCH         SYMBOL        L?0633
  -------         PROC          COM020E
  -------         ENDPROC       COM020E
  C:9364H         SYMBOL        L?0606
  -------         PROC          PCT_INITIALOSD
  -------         DO            
  D:0030H         SYMBOL        page
  -------         ENDDO         
  C:932EH         LINE#         101
  C:932EH         LINE#         102
  C:932EH         LINE#         105
  C:9331H         LINE#         106
  C:9334H         LINE#         108
  C:9339H         LINE#         109
  C:933EH         LINE#         110
  C:9341H         LINE#         111
  C:9343H         LINE#         112
  C:9346H         LINE#         113
  C:934FH         LINE#         114
  C:9354H         LINE#         115
  C:9359H         LINE#         116
  C:935BH         LINE#         117
  C:935EH         LINE#         119
  C:9363H         LINE#         120
  -------         ENDPROC       PCT_INITIALOSD
  C:4752H         SYMBOL        L?0544
  C:4761H         SYMBOL        L?0552
  C:4770H         SYMBOL        L?0560
  C:477FH         SYMBOL        L?0593
  C:478EH         SYMBOL        L?0612
  C:4796H         SYMBOL        L?0625
  C:479EH         SYMBOL        L?0634
  C:47A6H         SYMBOL        L?0635
  -------         PROC          _PCT_OSD_ACTIONPTHX
  X:01DDH         SYMBOL        _attr
  C:4400H         LINE#         127
  C:4406H         LINE#         128
  C:4406H         LINE#         129
  C:440BH         LINE#         130
  C:4410H         LINE#         132
  C:4445H         LINE#         134
  C:4445H         LINE#         135
  C:4451H         LINE#         136
  C:4454H         LINE#         138
BL51 BANKED LINKER/LOCATER V6.22                                                      11/06/2015  11:37:23  PAGE 53


  C:4454H         LINE#         139
  C:446AH         LINE#         140
  C:4485H         LINE#         141
  C:4488H         LINE#         143
  C:4488H         LINE#         144
  C:44A2H         LINE#         145
  C:44B9H         LINE#         146
  C:44BCH         LINE#         148
  C:44BCH         LINE#         149
  C:44CEH         LINE#         150
  C:44E0H         LINE#         151
  C:44F7H         LINE#         152
  C:44FAH         LINE#         154
  C:44FAH         LINE#         155
  C:44FAH         LINE#         157
  C:44FAH         LINE#         158
  C:4509H         LINE#         159
  C:451BH         LINE#         160
  C:4532H         LINE#         161
  C:4535H         LINE#         163
  C:4535H         LINE#         164
  C:4544H         LINE#         165
  C:4556H         LINE#         166
  C:456DH         LINE#         167
  C:4570H         LINE#         169
  C:4570H         LINE#         170
  C:457FH         LINE#         171
  C:4594H         LINE#         172
  C:45A6H         LINE#         173
  C:45BDH         LINE#         174
  C:45C0H         LINE#         177
  C:45C0H         LINE#         178
  C:45D4H         LINE#         179
  C:45D7H         LINE#         181
  C:45D7H         LINE#         182
  C:45E9H         LINE#         183
  C:4600H         LINE#         184
  C:4603H         LINE#         186
  C:4603H         LINE#         187
  C:4612H         LINE#         188
  C:4629H         LINE#         189
  C:462CH         LINE#         191
  C:462CH         LINE#         192
  C:4642H         LINE#         193
  C:4657H         LINE#         194
  C:466EH         LINE#         195
  C:4671H         LINE#         197
  C:4671H         LINE#         198
  C:4671H         LINE#         200
  C:4671H         LINE#         201
  C:4683H         LINE#         202
  C:4698H         LINE#         203
  C:46AFH         LINE#         204
  C:46B2H         LINE#         206
  C:46B2H         LINE#         207
  C:46C4H         LINE#         208
  C:46DDH         LINE#         209
BL51 BANKED LINKER/LOCATER V6.22                                                      11/06/2015  11:37:23  PAGE 54


  C:46F1H         LINE#         210
  C:46F4H         LINE#         212
  C:46F4H         LINE#         213
  C:4706H         LINE#         214
  C:471FH         LINE#         215
  C:4738H         LINE#         216
  C:4751H         LINE#         217
  C:4751H         LINE#         219
  C:4751H         LINE#         220
  C:4751H         LINE#         221
  C:4751H         LINE#         222
  -------         ENDPROC       _PCT_OSD_ACTIONPTHX
  -------         PROC          PCT_ENFALSHVLOSS
  C:A5D0H         LINE#         228
  C:A5D0H         LINE#         229
  C:A5D0H         LINE#         230
  C:A5D7H         LINE#         231
  -------         ENDPROC       PCT_ENFALSHVLOSS
  -------         PROC          PCT_GETVIDEOSIGNALSTATUS
  C:960CH         LINE#         237
  C:960CH         LINE#         238
  C:960CH         LINE#         242
  C:961DH         LINE#         244
  C:9624H         LINE#         250
  C:9626H         LINE#         251
  C:963DH         LINE#         253
  C:9642H         LINE#         254
  C:9647H         LINE#         256
  C:964AH         LINE#         258
  C:9652H         LINE#         259
  -------         ENDPROC       PCT_GETVIDEOSIGNALSTATUS
  C:6CA4H         SYMBOL        L?0559
  C:6CBDH         SYMBOL        L?0586
  -------         PROC          _PCT_SHOWINDICATEICON
  X:01DDH         SYMBOL        _attr
  -------         DO            
  D:0030H         SYMBOL        iconid
  -------         ENDDO         
  C:6B70H         LINE#         277
  C:6B76H         LINE#         278
  C:6B76H         LINE#         282
  C:6B7BH         LINE#         283
  C:6BAAH         LINE#         285
  C:6BAAH         LINE#         286
  C:6BAAH         LINE#         287
  C:6BB3H         LINE#         288
  C:6BB5H         LINE#         289
  C:6BB5H         LINE#         290
  C:6BB5H         LINE#         291
  C:6BB8H         LINE#         292
  C:6BB8H         LINE#         293
  C:6BB8H         LINE#         294
  C:6BBBH         LINE#         296
  C:6BBBH         LINE#         297
  C:6BBBH         LINE#         299
  C:6BC4H         LINE#         300
  C:6BC6H         LINE#         301
BL51 BANKED LINKER/LOCATER V6.22                                                      11/06/2015  11:37:23  PAGE 55


  C:6BC6H         LINE#         302
  C:6BD6H         LINE#         303
  C:6BD8H         LINE#         304
  C:6BDEH         LINE#         305
  C:6BDEH         LINE#         308
  C:6BEAH         LINE#         309
  C:6BECH         LINE#         310
  C:6BECH         LINE#         311
  C:6BECH         LINE#         312
  C:6BEFH         LINE#         317
  C:6BEFH         LINE#         318
  C:6BEFH         LINE#         320
  C:6BF8H         LINE#         321
  C:6BFAH         LINE#         322
  C:6BFAH         LINE#         323
  C:6C0AH         LINE#         324
  C:6C0CH         LINE#         325
  C:6C12H         LINE#         326
  C:6C12H         LINE#         329
  C:6C1EH         LINE#         330
  C:6C20H         LINE#         331
  C:6C20H         LINE#         332
  C:6C20H         LINE#         333
  C:6C23H         LINE#         334
  C:6C23H         LINE#         335
  C:6C23H         LINE#         336
  C:6C26H         LINE#         338
  C:6C26H         LINE#         339
  C:6C26H         LINE#         341
  C:6C2FH         LINE#         342
  C:6C31H         LINE#         343
  C:6C31H         LINE#         344
  C:6C3CH         LINE#         345
  C:6C3FH         LINE#         346
  C:6C46H         LINE#         347
  C:6C46H         LINE#         348
  C:6C49H         LINE#         350
  C:6C49H         LINE#         351
  C:6C49H         LINE#         352
  C:6C49H         LINE#         354
  C:6C49H         LINE#         355
  C:6C49H         LINE#         357
  C:6C52H         LINE#         358
  C:6C54H         LINE#         359
  C:6C54H         LINE#         360
  C:6C5FH         LINE#         361
  C:6C61H         LINE#         362
  C:6C64H         LINE#         363
  C:6C64H         LINE#         365
  C:6C66H         LINE#         367
  C:6C66H         LINE#         368
  C:6C66H         LINE#         370
  C:6C72H         LINE#         371
  C:6C74H         LINE#         372
  C:6C7DH         LINE#         373
  C:6C99H         LINE#         374
  C:6C99H         LINE#         375
BL51 BANKED LINKER/LOCATER V6.22                                                      11/06/2015  11:37:23  PAGE 56


  C:6CA3H         LINE#         376
  C:6CA3H         LINE#         377
  C:6CA3H         LINE#         379
  C:6CA3H         LINE#         380
  C:6CA3H         LINE#         381
  C:6CA3H         LINE#         383
  C:6CA3H         LINE#         384
  C:6CA3H         LINE#         385
  C:6CA3H         LINE#         386
  -------         ENDPROC       _PCT_SHOWINDICATEICON
  C:3629H         SYMBOL        L?0540
  C:363AH         SYMBOL        L?0545
  C:364BH         SYMBOL        L?0553
  C:3656H         SYMBOL        L?0558
  C:3661H         SYMBOL        L?0563
  C:366CH         SYMBOL        L?0564
  C:3676H         SYMBOL        L?0572
  C:3680H         SYMBOL        L?0573
  C:368BH         SYMBOL        L?0578
  C:3696H         SYMBOL        L?0583
  C:36A0H         SYMBOL        L?0588
  C:36ABH         SYMBOL        L?0591
  C:36B5H         SYMBOL        L?0595
  C:36C0H         SYMBOL        L?0596
  C:36CAH         SYMBOL        L?0608
  C:36D5H         SYMBOL        L?0620
  C:36DFH         SYMBOL        L?0621
  C:36E9H         SYMBOL        L?0637
  C:36F3H         SYMBOL        L?0638
  -------         PROC          _PCT_SHOWMIRRORICON
  X:01DDH         SYMBOL        _attr
  C:321FH         LINE#         396
  C:3225H         LINE#         397
  C:3225H         LINE#         398
  C:322AH         LINE#         399
  C:325FH         LINE#         401
  C:325FH         LINE#         403
  C:326BH         LINE#         404
  C:326BH         LINE#         405
  C:326EH         LINE#         406
  C:326EH         LINE#         407
  C:326EH         LINE#         408
  C:3271H         LINE#         410
  C:3271H         LINE#         412
  C:327DH         LINE#         413
  C:3286H         LINE#         414
  C:3288H         LINE#         415
  C:328BH         LINE#         416
  C:328BH         LINE#         418
  C:3297H         LINE#         419
  C:3297H         LINE#         420
  C:329AH         LINE#         421
  C:329AH         LINE#         422
  C:329AH         LINE#         423
  C:329DH         LINE#         425
  C:329DH         LINE#         427
  C:32A9H         LINE#         428
BL51 BANKED LINKER/LOCATER V6.22                                                      11/06/2015  11:37:23  PAGE 57


  C:32AFH         LINE#         429
  C:32B1H         LINE#         430
  C:32B4H         LINE#         431
  C:32B4H         LINE#         434
  C:32C0H         LINE#         435
  C:32C0H         LINE#         436
  C:32C3H         LINE#         437
  C:32C3H         LINE#         438
  C:32C3H         LINE#         440
  C:32C6H         LINE#         442
  C:32C6H         LINE#         444
  C:32D2H         LINE#         445
  C:32DBH         LINE#         446
  C:32DDH         LINE#         447
  C:32E0H         LINE#         448
  C:32E0H         LINE#         451
  C:32ECH         LINE#         452
  C:32F5H         LINE#         453
  C:32F7H         LINE#         454
  C:32FFH         LINE#         455
  C:32FFH         LINE#         458
  C:330BH         LINE#         459
  C:330BH         LINE#         460
  C:330EH         LINE#         461
  C:330EH         LINE#         462
  C:330EH         LINE#         463
  C:3311H         LINE#         465
  C:3311H         LINE#         466
  C:3311H         LINE#         468
  C:3311H         LINE#         470
  C:331DH         LINE#         471
  C:3323H         LINE#         472
  C:3325H         LINE#         473
  C:3328H         LINE#         474
  C:3328H         LINE#         477
  C:3334H         LINE#         478
  C:333DH         LINE#         479
  C:333FH         LINE#         480
  C:3342H         LINE#         481
  C:3342H         LINE#         484
  C:334EH         LINE#         485
  C:334EH         LINE#         486
  C:3351H         LINE#         487
  C:3351H         LINE#         488
  C:3351H         LINE#         489
  C:3354H         LINE#         491
  C:3354H         LINE#         493
  C:3360H         LINE#         494
  C:3366H         LINE#         495
  C:3368H         LINE#         496
  C:336BH         LINE#         497
  C:336BH         LINE#         500
  C:3377H         LINE#         501
  C:3380H         LINE#         502
  C:3382H         LINE#         503
  C:3385H         LINE#         504
  C:3385H         LINE#         507
BL51 BANKED LINKER/LOCATER V6.22                                                      11/06/2015  11:37:23  PAGE 58


  C:3391H         LINE#         508
  C:3399H         LINE#         509
  C:339CH         LINE#         510
  C:33A0H         LINE#         511
  C:33A0H         LINE#         512
  C:33A3H         LINE#         514
  C:33A3H         LINE#         516
  C:33AFH         LINE#         517
  C:33B5H         LINE#         518
  C:33B7H         LINE#         519
  C:33BAH         LINE#         520
  C:33BAH         LINE#         523
  C:33C6H         LINE#         524
  C:33CFH         LINE#         525
  C:33D1H         LINE#         526
  C:33D4H         LINE#         527
  C:33D4H         LINE#         530
  C:33E0H         LINE#         531
  C:33E9H         LINE#         532
  C:33EBH         LINE#         533
  C:33F3H         LINE#         534
  C:33F3H         LINE#         537
  C:33FFH         LINE#         538
  C:3407H         LINE#         539
  C:340AH         LINE#         540
  C:340EH         LINE#         541
  C:340EH         LINE#         542
  C:3411H         LINE#         545
  C:3411H         LINE#         547
  C:341DH         LINE#         548
  C:3425H         LINE#         549
  C:3427H         LINE#         550
  C:342CH         LINE#         551
  C:342CH         LINE#         552
  C:342EH         LINE#         554
  C:342EH         LINE#         556
  C:343AH         LINE#         557
  C:3443H         LINE#         558
  C:3445H         LINE#         559
  C:3448H         LINE#         560
  C:3448H         LINE#         562
  C:3454H         LINE#         563
  C:345EH         LINE#         564
  C:3461H         LINE#         565
  C:3466H         LINE#         566
  C:3466H         LINE#         567
  C:3469H         LINE#         569
  C:3469H         LINE#         571
  C:3475H         LINE#         572
  C:347EH         LINE#         573
  C:3480H         LINE#         574
  C:3483H         LINE#         575
  C:3483H         LINE#         578
  C:348FH         LINE#         579
  C:3499H         LINE#         580
  C:349CH         LINE#         581
  C:349FH         LINE#         582
BL51 BANKED LINKER/LOCATER V6.22                                                      11/06/2015  11:37:23  PAGE 59


  C:349FH         LINE#         584
  C:34A2H         LINE#         586
  C:34A2H         LINE#         588
  C:34AEH         LINE#         589
  C:34B7H         LINE#         590
  C:34B9H         LINE#         591
  C:34BCH         LINE#         592
  C:34BCH         LINE#         595
  C:34C8H         LINE#         596
  C:34D1H         LINE#         597
  C:34D3H         LINE#         598
  C:34DBH         LINE#         599
  C:34DBH         LINE#         602
  C:34E7H         LINE#         603
  C:34F1H         LINE#         604
  C:34F4H         LINE#         605
  C:34FCH         LINE#         606
  C:34FCH         LINE#         607
  C:34FFH         LINE#         609
  C:34FFH         LINE#         610
  C:34FFH         LINE#         612
  C:34FFH         LINE#         614
  C:350BH         LINE#         615
  C:3514H         LINE#         616
  C:3516H         LINE#         617
  C:3519H         LINE#         618
  C:3519H         LINE#         621
  C:3525H         LINE#         622
  C:352EH         LINE#         623
  C:3530H         LINE#         624
  C:3533H         LINE#         625
  C:3533H         LINE#         628
  C:353FH         LINE#         629
  C:3549H         LINE#         630
  C:354CH         LINE#         631
  C:3551H         LINE#         632
  C:3551H         LINE#         633
  C:3554H         LINE#         635
  C:3554H         LINE#         637
  C:3560H         LINE#         638
  C:3569H         LINE#         639
  C:356BH         LINE#         640
  C:356EH         LINE#         641
  C:356EH         LINE#         644
  C:357AH         LINE#         645
  C:3583H         LINE#         646
  C:3585H         LINE#         647
  C:358BH         LINE#         648
  C:358BH         LINE#         651
  C:3597H         LINE#         652
  C:35A1H         LINE#         653
  C:35A4H         LINE#         654
  C:35ACH         LINE#         655
  C:35ACH         LINE#         656
  C:35AFH         LINE#         658
  C:35AFH         LINE#         660
  C:35BBH         LINE#         661
BL51 BANKED LINKER/LOCATER V6.22                                                      11/06/2015  11:37:23  PAGE 60


  C:35C4H         LINE#         662
  C:35C6H         LINE#         663
  C:35C9H         LINE#         664
  C:35C9H         LINE#         667
  C:35D5H         LINE#         668
  C:35DEH         LINE#         669
  C:35E0H         LINE#         670
  C:35E6H         LINE#         671
  C:35E6H         LINE#         674
  C:35F2H         LINE#         675
  C:35FBH         LINE#         676
  C:35FDH         LINE#         677
  C:3605H         LINE#         678
  C:3605H         LINE#         681
  C:3611H         LINE#         682
  C:3620H         LINE#         683
  C:3620H         LINE#         684
  C:3628H         LINE#         685
  C:3628H         LINE#         686
  C:3628H         LINE#         688
  C:3628H         LINE#         689
  C:3628H         LINE#         690
  C:3628H         LINE#         691
  -------         ENDPROC       _PCT_SHOWMIRRORICON
  C:3ADDH         SYMBOL        L?0541
  C:3AEEH         SYMBOL        L?0546
  C:3AFFH         SYMBOL        L?0556
  C:3B0AH         SYMBOL        L?0561
  C:3B15H         SYMBOL        L?0567
  C:3B20H         SYMBOL        L?0568
  C:3B2AH         SYMBOL        L?0574
  C:3B34H         SYMBOL        L?0577
  C:3B3FH         SYMBOL        L?0584
  C:3B4AH         SYMBOL        L?0587
  C:3B54H         SYMBOL        L?0592
  C:3B5FH         SYMBOL        L?0594
  C:3B69H         SYMBOL        L?0602
  C:3B74H         SYMBOL        L?0605
  C:3B7EH         SYMBOL        L?0622
  C:3B88H         SYMBOL        L?0626
  C:3B93H         SYMBOL        L?0627
  C:3B9DH         SYMBOL        L?0639
  -------         PROC          _PCT_SHOWSPEAKICON
  X:03F1H         SYMBOL        _attr
  C:36FDH         LINE#         702
  C:3703H         LINE#         703
  C:3703H         LINE#         704
  C:3708H         LINE#         705
  C:373AH         LINE#         707
  C:373AH         LINE#         708
  C:3746H         LINE#         709
  C:3746H         LINE#         710
  C:3749H         LINE#         711
  C:3749H         LINE#         712
  C:3749H         LINE#         713
  C:374CH         LINE#         715
  C:374CH         LINE#         716
BL51 BANKED LINKER/LOCATER V6.22                                                      11/06/2015  11:37:23  PAGE 61


  C:3758H         LINE#         717
  C:3761H         LINE#         718
  C:3763H         LINE#         719
  C:3766H         LINE#         720
  C:3766H         LINE#         721
  C:3772H         LINE#         722
  C:3772H         LINE#         723
  C:3775H         LINE#         724
  C:3778H         LINE#         725
  C:3778H         LINE#         726
  C:377BH         LINE#         728
  C:377BH         LINE#         729
  C:3787H         LINE#         730
  C:378DH         LINE#         731
  C:378FH         LINE#         732
  C:3792H         LINE#         733
  C:3792H         LINE#         734
  C:379EH         LINE#         735
  C:379EH         LINE#         736
  C:37A1H         LINE#         737
  C:37A1H         LINE#         738
  C:37A1H         LINE#         739
  C:37A4H         LINE#         741
  C:37A4H         LINE#         742
  C:37B0H         LINE#         743
  C:37B9H         LINE#         744
  C:37BBH         LINE#         745
  C:37BEH         LINE#         746
  C:37BEH         LINE#         747
  C:37CAH         LINE#         748
  C:37D3H         LINE#         749
  C:37D5H         LINE#         750
  C:37DDH         LINE#         751
  C:37DDH         LINE#         752
  C:37E9H         LINE#         753
  C:37E9H         LINE#         754
  C:37ECH         LINE#         755
  C:37ECH         LINE#         756
  C:37ECH         LINE#         757
  C:37EFH         LINE#         759
  C:37EFH         LINE#         760
  C:37EFH         LINE#         762
  C:37EFH         LINE#         763
  C:37FBH         LINE#         764
  C:3801H         LINE#         765
  C:3803H         LINE#         766
  C:3806H         LINE#         767
  C:3806H         LINE#         768
  C:3812H         LINE#         769
  C:381BH         LINE#         770
  C:381DH         LINE#         771
  C:3820H         LINE#         772
  C:3820H         LINE#         773
  C:382CH         LINE#         774
  C:382CH         LINE#         775
  C:382FH         LINE#         776
  C:382FH         LINE#         777
BL51 BANKED LINKER/LOCATER V6.22                                                      11/06/2015  11:37:23  PAGE 62


  C:382FH         LINE#         778
  C:3832H         LINE#         780
  C:3832H         LINE#         781
  C:383EH         LINE#         782
  C:3844H         LINE#         783
  C:3846H         LINE#         784
  C:3849H         LINE#         785
  C:3849H         LINE#         786
  C:3855H         LINE#         787
  C:385EH         LINE#         788
  C:3860H         LINE#         789
  C:3863H         LINE#         790
  C:3863H         LINE#         791
  C:386FH         LINE#         792
  C:3877H         LINE#         793
  C:387AH         LINE#         794
  C:387EH         LINE#         795
  C:387EH         LINE#         796
  C:3881H         LINE#         798
  C:3881H         LINE#         799
  C:388DH         LINE#         800
  C:3893H         LINE#         801
  C:3895H         LINE#         802
  C:3898H         LINE#         803
  C:3898H         LINE#         804
  C:38A4H         LINE#         805
  C:38ADH         LINE#         806
  C:38AFH         LINE#         807
  C:38B2H         LINE#         808
  C:38B2H         LINE#         809
  C:38BEH         LINE#         810
  C:38C7H         LINE#         811
  C:38C9H         LINE#         812
  C:38D1H         LINE#         813
  C:38D1H         LINE#         814
  C:38DDH         LINE#         815
  C:38E5H         LINE#         816
  C:38E8H         LINE#         817
  C:38ECH         LINE#         818
  C:38ECH         LINE#         819
  C:38EFH         LINE#         822
  C:38EFH         LINE#         823
  C:38FBH         LINE#         824
  C:3905H         LINE#         825
  C:3908H         LINE#         826
  C:390FH         LINE#         827
  C:390FH         LINE#         828
  C:3912H         LINE#         830
  C:3912H         LINE#         831
  C:3912H         LINE#         833
  C:3912H         LINE#         834
  C:391EH         LINE#         835
  C:3927H         LINE#         836
  C:3929H         LINE#         837
  C:392CH         LINE#         838
  C:392CH         LINE#         839
  C:3938H         LINE#         840
BL51 BANKED LINKER/LOCATER V6.22                                                      11/06/2015  11:37:23  PAGE 63


  C:3942H         LINE#         841
  C:3945H         LINE#         842
  C:394CH         LINE#         843
  C:394CH         LINE#         844
  C:394FH         LINE#         846
  C:394FH         LINE#         847
  C:395BH         LINE#         848
  C:396AH         LINE#         849
  C:396CH         LINE#         850
  C:3976H         LINE#         851
  C:3976H         LINE#         852
  C:3982H         LINE#         853
  C:398BH         LINE#         854
  C:398DH         LINE#         855
  C:3995H         LINE#         856
  C:3995H         LINE#         857
  C:39A1H         LINE#         858
  C:39ABH         LINE#         859
  C:39AEH         LINE#         860
  C:39B6H         LINE#         861
  C:39B6H         LINE#         862
  C:39B9H         LINE#         864
  C:39B9H         LINE#         865
  C:39B9H         LINE#         867
  C:39B9H         LINE#         868
  C:39C5H         LINE#         869
  C:39CEH         LINE#         870
  C:39D0H         LINE#         871
  C:39D3H         LINE#         872
  C:39D3H         LINE#         873
  C:39DFH         LINE#         874
  C:39E8H         LINE#         875
  C:39EAH         LINE#         876
  C:39EDH         LINE#         877
  C:39EDH         LINE#         878
  C:39F9H         LINE#         879
  C:3A03H         LINE#         880
  C:3A06H         LINE#         881
  C:3A0BH         LINE#         882
  C:3A0BH         LINE#         883
  C:3A0EH         LINE#         885
  C:3A0EH         LINE#         886
  C:3A1AH         LINE#         887
  C:3A23H         LINE#         888
  C:3A25H         LINE#         889
  C:3A28H         LINE#         890
  C:3A28H         LINE#         891
  C:3A34H         LINE#         892
  C:3A3DH         LINE#         893
  C:3A3FH         LINE#         894
  C:3A42H         LINE#         895
  C:3A42H         LINE#         896
  C:3A4EH         LINE#         897
  C:3A58H         LINE#         898
  C:3A5BH         LINE#         899
  C:3A63H         LINE#         900
  C:3A63H         LINE#         901
BL51 BANKED LINKER/LOCATER V6.22                                                      11/06/2015  11:37:23  PAGE 64


  C:3A66H         LINE#         903
  C:3A66H         LINE#         904
  C:3A72H         LINE#         905
  C:3A7BH         LINE#         906
  C:3A7DH         LINE#         907
  C:3A80H         LINE#         908
  C:3A80H         LINE#         909
  C:3A8CH         LINE#         910
  C:3A95H         LINE#         911
  C:3A97H         LINE#         912
  C:3A9AH         LINE#         913
  C:3A9AH         LINE#         914
  C:3AA6H         LINE#         915
  C:3AAFH         LINE#         916
  C:3AB1H         LINE#         917
  C:3AB9H         LINE#         918
  C:3AB9H         LINE#         919
  C:3AC5H         LINE#         920
  C:3AD4H         LINE#         921
  C:3AD4H         LINE#         922
  C:3ADCH         LINE#         923
  C:3ADCH         LINE#         924
  C:3ADCH         LINE#         926
  C:3ADCH         LINE#         927
  C:3ADCH         LINE#         928
  C:3ADCH         LINE#         929
  -------         ENDPROC       _PCT_SHOWSPEAKICON
  C:3169H         SYMBOL        L?0549
  C:3175H         SYMBOL        L?0557
  C:3181H         SYMBOL        L?0562
  C:318DH         SYMBOL        L?0571
  C:3199H         SYMBOL        L?0575
  C:31A3H         SYMBOL        L?0576
  C:31AFH         SYMBOL        L?0579
  C:31B9H         SYMBOL        L?0585
  C:31C5H         SYMBOL        L?0589
  C:31CFH         SYMBOL        L?0590
  C:31DBH         SYMBOL        L?0597
  C:31E5H         SYMBOL        L?0600
  C:31EDH         SYMBOL        L?0601
  C:31F9H         SYMBOL        L?0607
  C:3203H         SYMBOL        L?0613
  C:320BH         SYMBOL        L?0628
  C:3215H         SYMBOL        L?0629
  -------         PROC          PCT_SHOWVLOSS
  -------         DO            
  D:0065H         SYMBOL        tmpsta
  -------         ENDDO         
  C:2C9BH         LINE#         951
  C:2C9BH         LINE#         952
  C:2C9BH         LINE#         954
  C:2CA7H         LINE#         955
  C:2CD4H         LINE#         957
  C:2CD4H         LINE#         958
  C:2CE5H         LINE#         959
  C:2CF0H         LINE#         961
  C:2CF4H         LINE#         962
BL51 BANKED LINKER/LOCATER V6.22                                                      11/06/2015  11:37:23  PAGE 65


  C:2CF7H         LINE#         964
  C:2CF7H         LINE#         965
  C:2CF7H         LINE#         967
  C:2CF7H         LINE#         968
  C:2D08H         LINE#         969
  C:2D13H         LINE#         971
  C:2D16H         LINE#         972
  C:2D2AH         LINE#         973
  C:2D35H         LINE#         975
  C:2D39H         LINE#         976
  C:2D3CH         LINE#         978
  C:2D3CH         LINE#         979
  C:2D4DH         LINE#         980
  C:2D5EH         LINE#         982
  C:2D63H         LINE#         983
  C:2D77H         LINE#         984
  C:2D84H         LINE#         986
  C:2D87H         LINE#         987
  C:2D9BH         LINE#         988
  C:2DA6H         LINE#         990
  C:2DAAH         LINE#         991
  C:2DADH         LINE#         993
  C:2DADH         LINE#         994
  C:2DADH         LINE#         996
  C:2DADH         LINE#         997
  C:2DBEH         LINE#         998
  C:2DC9H         LINE#         1000
  C:2DCCH         LINE#         1001
  C:2DE0H         LINE#         1002
  C:2DEBH         LINE#         1004
  C:2DEEH         LINE#         1005
  C:2E02H         LINE#         1006
  C:2E0DH         LINE#         1008
  C:2E11H         LINE#         1009
  C:2E14H         LINE#         1011
  C:2E14H         LINE#         1012
  C:2E25H         LINE#         1013
  C:2E30H         LINE#         1015
  C:2E33H         LINE#         1016
  C:2E47H         LINE#         1017
  C:2E54H         LINE#         1019
  C:2E5CH         LINE#         1020
  C:2E70H         LINE#         1021
  C:2E7BH         LINE#         1023
  C:2E7FH         LINE#         1024
  C:2E82H         LINE#         1026
  C:2E82H         LINE#         1027
  C:2E93H         LINE#         1028
  C:2E9EH         LINE#         1030
  C:2EA1H         LINE#         1031
  C:2EB5H         LINE#         1032
  C:2EC0H         LINE#         1034
  C:2EC3H         LINE#         1035
  C:2ED7H         LINE#         1036
  C:2EE8H         LINE#         1038
  C:2EEBH         LINE#         1039
  C:2EFFH         LINE#         1040
BL51 BANKED LINKER/LOCATER V6.22                                                      11/06/2015  11:37:23  PAGE 66


  C:2F0AH         LINE#         1042
  C:2F0EH         LINE#         1043
  C:2F11H         LINE#         1046
  C:2F11H         LINE#         1047
  C:2F22H         LINE#         1048
  C:2F2FH         LINE#         1050
  C:2F37H         LINE#         1051
  C:2F3AH         LINE#         1053
  C:2F3AH         LINE#         1054
  C:2F3AH         LINE#         1056
  C:2F3AH         LINE#         1057
  C:2F4BH         LINE#         1058
  C:2F58H         LINE#         1060
  C:2F5BH         LINE#         1061
  C:2F6FH         LINE#         1062
  C:2F7CH         LINE#         1064
  C:2F84H         LINE#         1065
  C:2F87H         LINE#         1067
  C:2F87H         LINE#         1068
  C:2F98H         LINE#         1069
  C:2FA9H         LINE#         1071
  C:2FAEH         LINE#         1072
  C:2FC2H         LINE#         1073
  C:2FCDH         LINE#         1075
  C:2FD0H         LINE#         1076
  C:2FE4H         LINE#         1077
  C:2FF1H         LINE#         1079
  C:2FF4H         LINE#         1080
  C:2FF7H         LINE#         1082
  C:2FF7H         LINE#         1083
  C:2FF7H         LINE#         1085
  C:2FF7H         LINE#         1086
  C:3008H         LINE#         1087
  C:3015H         LINE#         1089
  C:3018H         LINE#         1090
  C:302CH         LINE#         1091
  C:3037H         LINE#         1093
  C:303AH         LINE#         1094
  C:304EH         LINE#         1095
  C:305BH         LINE#         1097
  C:305EH         LINE#         1098
  C:3061H         LINE#         1100
  C:3061H         LINE#         1101
  C:3072H         LINE#         1102
  C:307DH         LINE#         1104
  C:3080H         LINE#         1105
  C:3094H         LINE#         1106
  C:30A5H         LINE#         1108
  C:30B0H         LINE#         1109
  C:30C4H         LINE#         1110
  C:30D1H         LINE#         1112
  C:30D9H         LINE#         1113
  C:30DCH         LINE#         1115
  C:30DCH         LINE#         1116
  C:30EDH         LINE#         1117
  C:30F8H         LINE#         1119
  C:30FBH         LINE#         1120
BL51 BANKED LINKER/LOCATER V6.22                                                      11/06/2015  11:37:23  PAGE 67


  C:310FH         LINE#         1121
  C:311AH         LINE#         1123
  C:311DH         LINE#         1124
  C:3131H         LINE#         1125
  C:313CH         LINE#         1127
  C:313FH         LINE#         1128
  C:3153H         LINE#         1129
  C:3162H         LINE#         1131
  C:3168H         LINE#         1132
  C:3168H         LINE#         1134
  C:3168H         LINE#         1135
  C:3168H         LINE#         1136
  C:3168H         LINE#         1137
  -------         ENDPROC       PCT_SHOWVLOSS
  C:9835H         SYMBOL        L?0636
  -------         PROC          PCT_SHOWMODEICON
  C:97FBH         LINE#         1143
  C:97FBH         LINE#         1144
  C:97FBH         LINE#         1145
  C:9800H         LINE#         1147
  C:980BH         LINE#         1148
  C:980BH         LINE#         1149
  C:980BH         LINE#         1150
  C:980BH         LINE#         1151
  C:980EH         LINE#         1152
  C:9817H         LINE#         1153
  C:9817H         LINE#         1154
  C:9819H         LINE#         1156
  C:9819H         LINE#         1157
  C:9819H         LINE#         1158
  C:981CH         LINE#         1159
  C:982FH         LINE#         1160
  C:9834H         LINE#         1161
  C:9834H         LINE#         1163
  C:9834H         LINE#         1164
  C:9834H         LINE#         1165
  C:9834H         LINE#         1166
  -------         ENDPROC       PCT_SHOWMODEICON
  -------         PROC          PCT_OSDACTIONFORHS
  C:A173H         LINE#         1172
  C:A173H         LINE#         1173
  C:A173H         LINE#         1174
  C:A178H         LINE#         1175
  C:A17FH         LINE#         1177
  C:A188H         LINE#         1179
  C:A191H         LINE#         1182
  C:A191H         LINE#         1183
  C:A194H         LINE#         1184
  -------         ENDPROC       PCT_OSDACTIONFORHS
  -------         ENDMOD        OSDACTION_

  -------         MODULE        OSDCTRL
  C:0000H         SYMBOL        _ICE_DUMMY_
  D:0080H         PUBLIC        P0
  D:0090H         PUBLIC        P1
  D:00A0H         PUBLIC        P2
  C:16F8H         PUBLIC        FONT_TABLE
BL51 BANKED LINKER/LOCATER V6.22                                                      11/06/2015  11:37:23  PAGE 68


  D:00C0H         PUBLIC        XICON
  D:00B0H         PUBLIC        P3
  D:00E8H         PUBLIC        P4
  C:8327H         PUBLIC        _PCT_FullColorOnOSD
  C:9C0CH         PUBLIC        _PCT_EnShowOSDPage
  D:00A8H         PUBLIC        IE
  D:005FH         PUBLIC        backColor
  D:00B8H         PUBLIC        IP
  D:00D8H         PUBLIC        CCON
  C:A607H         PUBLIC        _PCT_PreSetBackgroundColor
  C:81C4H         PUBLIC        _PCT_ClearWordsPathX
  D:0060H         PUBLIC        foreColor
  D:00C0H         PUBLIC        WDTC
  D:0098H         PUBLIC        SCON
  D:0088H         PUBLIC        TCON
  C:74A5H         PUBLIC        _PCT_WriteOSDFntX
  C:7A43H         PUBLIC        _PCT_WriteOSDFntY
  C:A604H         PUBLIC        _PCT_PreSetForegroundColor
  C:736BH         PUBLIC        PCT_InitOSDColor
  B:0022H.0       PUBLIC        DAT_BIT0
  B:0022H.1       PUBLIC        DAT_BIT1
  B:0022H.2       PUBLIC        DAT_BIT2
  B:0022H.3       PUBLIC        DAT_BIT3
  B:0022H.4       PUBLIC        DAT_BIT4
  B:0022H.5       PUBLIC        DAT_BIT5
  C:908CH         PUBLIC        _PCT_ShowOSDString
  B:0022H.6       PUBLIC        DAT_BIT6
  B:0022H.7       PUBLIC        DAT_BIT7
  D:00F8H         PUBLIC        IPA
  C:90EAH         PUBLIC        _PCT_SetOSDColor
  D:00C8H         PUBLIC        T2CON
  C:A245H         PUBLIC        _PCT_SetOSDDrawPage
  C:65A9H         PUBLIC        _PCT_WriteOSDDataBufferX
  C:A2F7H         PUBLIC        _PCT_ClearOSDPageX
  C:75C9H         PUBLIC        _PCT_WriteOSDDataBufferY
  C:9D4CH         PUBLIC        _PCT_DisShowOSDPage
  D:00D0H         PUBLIC        PSW
  D:0022H         PUBLIC        bitdat
  C:689DH         SYMBOL        Com0082
  C:689DH         SYMBOL        L?0131
  C:689DH         SYMBOL        L?0132
  C:68A2H         SYMBOL        L?0133
  C:68A5H         SYMBOL        L?0134
  C:68A6H         SYMBOL        L?0135
  C:68ADH         SYMBOL        L?0136
  C:68B9H         SYMBOL        L?0137
  C:68BBH         SYMBOL        L?0138
  C:68C3H         SYMBOL        L?0144
  C:68D0H         SYMBOL        L?0145
  C:68D3H         SYMBOL        L?0146
  C:68DAH         SYMBOL        L?0147
  C:68DBH         SYMBOL        L?0148
  C:68DCH         SYMBOL        L?0149
  C:68DEH         SYMBOL        L?0150
  C:68E5H         SYMBOL        L?0152
  C:68EEH         SYMBOL        L?0153
  C:68F9H         SYMBOL        L?0154
BL51 BANKED LINKER/LOCATER V6.22                                                      11/06/2015  11:37:23  PAGE 69


  C:6901H         SYMBOL        L?0155
  C:690EH         SYMBOL        L?0156
  C:6910H         SYMBOL        L?0157
  C:6913H         SYMBOL        L?0158
  C:691BH         SYMBOL        L?0159
  C:691DH         SYMBOL        L?0160
  C:6920H         SYMBOL        L?0161
  C:6928H         SYMBOL        L?0162
  C:692AH         SYMBOL        L?0163
  C:692DH         SYMBOL        L?0164
  C:6935H         SYMBOL        L?0166
  C:6935H         SYMBOL        L?0167
  C:6942H         SYMBOL        L?0168
  C:6942H         SYMBOL        L?0169
  C:6952H         SYMBOL        L?0170
  C:696DH         SYMBOL        L?0171
  C:6985H         SYMBOL        L?0172
  C:699DH         SYMBOL        L?0174
  C:699DH         SYMBOL        L?0175
  C:699FH         SYMBOL        L?0176
  C:69A6H         SYMBOL        L?0177
  C:69A6H         SYMBOL        L?0178
  C:69A9H         SYMBOL        L?0179
  C:69B1H         SYMBOL        L?0181
  C:69B5H         SYMBOL        L?0182
  C:69BDH         SYMBOL        L?0184
  C:69C0H         SYMBOL        L?0185
  C:69C8H         SYMBOL        L?0186
  C:69D6H         SYMBOL        L?0187
  C:69E3H         SYMBOL        L?0188
  C:69EFH         SYMBOL        L?0190
  C:69F0H         SYMBOL        L?0191
  C:69F7H         SYMBOL        L?0192
  C:69F7H         SYMBOL        L?0193
  C:69FDH         SYMBOL        L?0194
  -------         PROC          COM0082
  -------         ENDPROC       COM0082
  -------         PROC          _PCT_PRESETFOREGROUNDCOLOR
  D:0007H         SYMBOL        _color
  C:A604H         LINE#         82
  C:A604H         LINE#         83
  C:A604H         LINE#         84
  C:A606H         LINE#         86
  -------         ENDPROC       _PCT_PRESETFOREGROUNDCOLOR
  -------         PROC          _PCT_PRESETBACKGROUNDCOLOR
  D:0007H         SYMBOL        _color
  C:A607H         LINE#         92
  C:A607H         LINE#         93
  C:A607H         LINE#         94
  C:A609H         LINE#         96
  -------         ENDPROC       _PCT_PRESETBACKGROUNDCOLOR
  C:913BH         SYMBOL        L?0183
  -------         PROC          _PCT_SETOSDCOLOR
  X:01D5H         SYMBOL        _pth
  X:01D6H         SYMBOL        _col_num
  D:0003H         SYMBOL        _y
  X:01D8H         SYMBOL        _cb
BL51 BANKED LINKER/LOCATER V6.22                                                      11/06/2015  11:37:23  PAGE 70


  X:01D9H         SYMBOL        _cr
  C:90EAH         LINE#         102
  C:90F2H         LINE#         103
  C:90F2H         LINE#         104
  C:90FCH         LINE#         105
  C:9109H         LINE#         106
  C:911AH         LINE#         107
  C:9121H         LINE#         108
  C:9127H         LINE#         110
  C:913AH         LINE#         111
  -------         ENDPROC       _PCT_SETOSDCOLOR
  C:746BH         SYMBOL        L?0139
  C:7476H         SYMBOL        L?0141
  C:7481H         SYMBOL        L?0143
  C:748AH         SYMBOL        L?0151
  C:7493H         SYMBOL        L?0165
  C:749CH         SYMBOL        L?0173
  -------         PROC          PCT_INITOSDCOLOR
  C:736BH         LINE#         117
  C:736BH         LINE#         118
  C:736BH         LINE#         119
  C:737AH         LINE#         120
  C:7385H         LINE#         121
  C:738AH         LINE#         122
  C:7398H         LINE#         123
  C:73A4H         LINE#         125
  C:73AFH         LINE#         126
  C:73B7H         LINE#         127
  C:73C5H         LINE#         128
  C:73D1H         LINE#         129
  C:73DDH         LINE#         130
  C:73E9H         LINE#         131
  C:73F5H         LINE#         132
  C:7401H         LINE#         133
  C:740FH         LINE#         134
  C:7421H         LINE#         135
  C:7434H         LINE#         136
  C:7447H         LINE#         137
  C:7459H         LINE#         138
  C:7465H         LINE#         140
  C:7468H         LINE#         141
  C:746AH         LINE#         142
  -------         ENDPROC       PCT_INITOSDCOLOR
  -------         PROC          _PCT_SETOSDDRAWPAGE
  X:01DDH         SYMBOL        _page
  C:A245H         LINE#         148
  C:A249H         LINE#         149
  C:A249H         LINE#         150
  C:A25EH         LINE#         151
  -------         ENDPROC       _PCT_SETOSDDRAWPAGE
  C:9C2DH         SYMBOL        L?0180
  -------         PROC          _PCT_ENSHOWOSDPAGE
  X:01DDH         SYMBOL        _page
  C:9C0CH         LINE#         158
  C:9C11H         LINE#         159
  C:9C11H         LINE#         160
  C:9C19H         LINE#         161
BL51 BANKED LINKER/LOCATER V6.22                                                      11/06/2015  11:37:23  PAGE 71


  C:9C1CH         LINE#         162
  C:9C1EH         LINE#         163
  C:9C20H         LINE#         164
  C:9C24H         LINE#         165
  C:9C2CH         LINE#         166
  C:9C2CH         LINE#         167
  -------         ENDPROC       _PCT_ENSHOWOSDPAGE
  -------         PROC          _PCT_DISSHOWOSDPAGE
  X:01DDH         SYMBOL        _bit
  -------         DO            
  X:01DEH         SYMBOL        dat
  -------         ENDDO         
  C:9D4CH         LINE#         173
  C:9D50H         LINE#         174
  C:9D50H         LINE#         176
  C:9D62H         LINE#         177
  -------         ENDPROC       _PCT_DISSHOWOSDPAGE
  -------         PROC          _PCT_FULLCOLORONOSD
  X:01DDH         SYMBOL        _posx
  X:01DEH         SYMBOL        _posy
  X:01E0H         SYMBOL        _wide
  X:01E1H         SYMBOL        _high
  C:8327H         LINE#         186
  C:832AH         LINE#         187
  C:832AH         LINE#         188
  C:8330H         LINE#         189
  C:8336H         LINE#         190
  C:833CH         LINE#         191
  C:8342H         LINE#         193
  C:8349H         LINE#         194
  C:835EH         LINE#         195
  C:836DH         LINE#         196
  C:8388H         LINE#         198
  C:838FH         LINE#         199
  C:8398H         LINE#         200
  C:83A1H         LINE#         201
  C:83AAH         LINE#         202
  C:83B7H         LINE#         204
  C:83C6H         LINE#         205
  C:83D0H         LINE#         206
  -------         ENDPROC       _PCT_FULLCOLORONOSD
  -------         PROC          _PCT_CLEAROSDPAGEX
  D:0007H         SYMBOL        _page
  C:A2F7H         LINE#         208
  C:A2F7H         LINE#         209
  C:A2F7H         LINE#         210
  C:A2FAH         LINE#         212
  C:A2FFH         LINE#         213
  -------         ENDPROC       _PCT_CLEAROSDPAGEX
  C:66DDH         SYMBOL        L?0129
  C:66FFH         SYMBOL        L?0140
  C:670EH         SYMBOL        L?0142
  C:671DH         SYMBOL        L?0189
  -------         PROC          _PCT_WRITEOSDDATABUFFERX
  X:03DBH         SYMBOL        _index
  X:03DCH         SYMBOL        _dat
  C:65A9H         LINE#         225
BL51 BANKED LINKER/LOCATER V6.22                                                      11/06/2015  11:37:23  PAGE 72


  C:65B3H         LINE#         226
  C:65B3H         LINE#         227
  C:65BEH         LINE#         228
  C:65CEH         LINE#         229
  C:65DAH         LINE#         230
  C:65E6H         LINE#         231
  C:65EFH         LINE#         232
  C:65F2H         LINE#         233
  C:65F8H         LINE#         235
  C:660BH         LINE#         236
  C:6617H         LINE#         237
  C:6623H         LINE#         238
  C:662CH         LINE#         239
  C:662FH         LINE#         240
  C:6634H         LINE#         242
  C:663CH         LINE#         243
  C:664FH         LINE#         244
  C:665FH         LINE#         245
  C:666FH         LINE#         246
  C:667CH         LINE#         247
  C:6682H         LINE#         248
  C:6687H         LINE#         250
  C:669AH         LINE#         251
  C:66ADH         LINE#         252
  C:66C0H         LINE#         253
  C:66D3H         LINE#         254
  C:66DDH         LINE#         255
  -------         ENDPROC       _PCT_WRITEOSDDATABUFFERX
  -------         PROC          _PCT_WRITEOSDFNTX
  D:0007H         SYMBOL        _posx
  X:0399H         SYMBOL        _posy
  X:039BH         SYMBOL        _len
  X:039CH         SYMBOL        _indx
  -------         DO            
  D:0052H         SYMBOL        i
  D:0053H         SYMBOL        j
  D:0054H         SYMBOL        posx
  X:039FH         SYMBOL        charPtr
  -------         ENDDO         
  C:74A5H         LINE#         265
  C:74ACH         LINE#         266
  C:74ACH         LINE#         270
  C:74AFH         LINE#         271
  C:74B4H         LINE#         272
  C:74C7H         LINE#         273
  C:74D3H         LINE#         274
  C:74E2H         LINE#         275
  C:74F1H         LINE#         276
  C:7503H         LINE#         277
  C:7515H         LINE#         279
  C:7521H         LINE#         280
  C:752EH         LINE#         281
  C:7562H         LINE#         282
  C:756AH         LINE#         283
  C:7573H         LINE#         285
  C:757CH         LINE#         286
  C:7588H         LINE#         287
BL51 BANKED LINKER/LOCATER V6.22                                                      11/06/2015  11:37:23  PAGE 73


  C:7592H         LINE#         289
  C:759DH         LINE#         290
  C:75A9H         LINE#         291
  C:75B3H         LINE#         293
  C:75C1H         LINE#         294
  C:75C8H         LINE#         295
  -------         ENDPROC       _PCT_WRITEOSDFNTX
  -------         PROC          _PCT_CLEARWORDSPATHX
  X:01E0H         SYMBOL        _posx
  X:01E1H         SYMBOL        _posy
  X:01E3H         SYMBOL        _len
  -------         DO            
  X:01E4H         SYMBOL        wide
  X:01E5H         SYMBOL        high
  -------         ENDDO         
  C:81C4H         LINE#         304
  C:81C7H         LINE#         305
  C:81C7H         LINE#         309
  C:81CDH         LINE#         310
  C:81D3H         LINE#         311
  C:81D9H         LINE#         312
  C:81DFH         LINE#         314
  C:81E7H         LINE#         315
  C:81EAH         LINE#         316
  C:81FAH         LINE#         317
  C:8206H         LINE#         319
  C:821AH         LINE#         320
  C:822EH         LINE#         322
  C:8238H         LINE#         323
  C:8241H         LINE#         324
  C:824AH         LINE#         325
  C:8253H         LINE#         326
  C:8260H         LINE#         328
  C:826FH         LINE#         329
  C:8279H         LINE#         330
  -------         ENDPROC       _PCT_CLEARWORDSPATHX
  -------         PROC          _PCT_WRITEOSDDATABUFFERY
  X:03DFH         SYMBOL        _index
  X:03E0H         SYMBOL        _dat
  C:75C9H         LINE#         336
  C:75D3H         LINE#         337
  C:75D3H         LINE#         338
  C:75DEH         LINE#         339
  C:75FDH         LINE#         340
  C:761CH         LINE#         341
  C:763BH         LINE#         342
  C:765AH         LINE#         343
  C:7660H         LINE#         345
  C:766BH         LINE#         346
  C:768AH         LINE#         347
  C:76A9H         LINE#         348
  C:76C8H         LINE#         349
  C:76E7H         LINE#         350
  -------         ENDPROC       _PCT_WRITEOSDDATABUFFERY
  -------         PROC          _PCT_WRITEOSDFNTY
  X:035FH         SYMBOL        _posx
  X:0360H         SYMBOL        _posy
BL51 BANKED LINKER/LOCATER V6.22                                                      11/06/2015  11:37:23  PAGE 74


  X:0362H         SYMBOL        _len
  X:0363H         SYMBOL        _indx
  -------         DO            
  D:0061H         SYMBOL        i
  D:0062H         SYMBOL        j
  X:0366H         SYMBOL        charPtr
  -------         ENDDO         
  C:7A43H         LINE#         362
  C:7A4DH         LINE#         363
  C:7A4DH         LINE#         367
  C:7A55H         LINE#         368
  C:7A58H         LINE#         369
  C:7A68H         LINE#         370
  C:7A74H         LINE#         372
  C:7A80H         LINE#         373
  C:7A8EH         LINE#         374
  C:7AA6H         LINE#         376
  C:7AB3H         LINE#         377
  C:7ADBH         LINE#         378
  C:7AE5H         LINE#         379
  C:7AEEH         LINE#         380
  C:7B09H         LINE#         381
  C:7B15H         LINE#         382
  C:7B1FH         LINE#         383
  C:7B2DH         LINE#         384
  C:7B34H         LINE#         385
  -------         ENDPROC       _PCT_WRITEOSDFNTY
  -------         PROC          _PCT_SHOWOSDSTRING
  X:03ABH         SYMBOL        _path
  X:03ACH         SYMBOL        _addrx
  X:03ADH         SYMBOL        _addry
  X:03AEH         SYMBOL        _strptr
  -------         DO            
  X:03B1H         SYMBOL        slen
  -------         ENDDO         
  C:908CH         LINE#         391
  C:9093H         LINE#         392
  C:9093H         LINE#         395
  C:909EH         LINE#         396
  C:90A5H         LINE#         397
  C:90ACH         LINE#         398
  C:90ACH         LINE#         399
  C:90B9H         LINE#         400
  C:90C0H         LINE#         401
  C:90C3H         LINE#         402
  C:90C3H         LINE#         403
  C:90C8H         LINE#         404
  C:90CAH         LINE#         405
  C:90CAH         LINE#         406
  C:90D7H         LINE#         407
  C:90DEH         LINE#         408
  C:90E1H         LINE#         409
  C:90E1H         LINE#         410
  C:90E6H         LINE#         411
  C:90E6H         LINE#         412
  C:90E9H         LINE#         413
  -------         ENDPROC       _PCT_SHOWOSDSTRING
BL51 BANKED LINKER/LOCATER V6.22                                                      11/06/2015  11:37:23  PAGE 75


  -------         ENDMOD        OSDCTRL

  -------         MODULE        TIMER
  C:0000H         SYMBOL        _ICE_DUMMY_
  D:0080H         PUBLIC        P0
  D:0090H         PUBLIC        P1
  D:00A0H         PUBLIC        P2
  D:00C0H         PUBLIC        XICON
  D:00B0H         PUBLIC        P3
  C:A59AH         PUBLIC        InitialTimer0
  D:00E8H         PUBLIC        P4
  C:A2A1H         PUBLIC        InitialTimer2
  B:00A8H.7       PUBLIC        EA
  C:A513H         PUBLIC        Timer0_interrupt
  C:7C24H         PUBLIC        Timer2_interrupt
  D:00A8H         PUBLIC        IE
  D:00B8H         PUBLIC        IP
  D:00D8H         PUBLIC        CCON
  D:00C0H         PUBLIC        WDTC
  D:0098H         PUBLIC        SCON
  D:0088H         PUBLIC        TCON
  D:0041H         PUBLIC        user_timer
  B:0088H.5       PUBLIC        TF0
  B:00A8H.5       PUBLIC        ET2
  B:00C8H.7       PUBLIC        TF2
  D:008CH         PUBLIC        TH0
  D:00CDH         PUBLIC        TH2
  D:008AH         PUBLIC        TL0
  D:00CCH         PUBLIC        TL2
  B:00B8H.5       PUBLIC        PT2
  B:0088H.4       PUBLIC        TR0
  B:00C8H.2       PUBLIC        TR2
  D:00F8H         PUBLIC        IPA
  D:00C9H         PUBLIC        T2MOD
  D:00C8H         PUBLIC        T2CON
  D:00D0H         PUBLIC        PSW
  -------         PROC          INITIALTIMER0
  C:A59AH         LINE#         70
  C:A59AH         LINE#         82
  C:A59CH         LINE#         89
  C:A59FH         LINE#         101
  C:A5A2H         LINE#         109
  -------         ENDPROC       INITIALTIMER0
  -------         PROC          INITIALTIMER2
  -------         DO            
  D:0007H         SYMBOL        i
  -------         ENDDO         
  C:A2A1H         LINE#         113
  C:A2A1H         LINE#         114
  C:A2A1H         LINE#         117
  C:A2A3H         LINE#         118
  C:A2A5H         LINE#         119
  C:A2A7H         LINE#         120
  C:A2AAH         LINE#         121
  C:A2ADH         LINE#         123
  C:A2AFH         LINE#         124
  C:A2B2H         LINE#         125
BL51 BANKED LINKER/LOCATER V6.22                                                      11/06/2015  11:37:23  PAGE 76


  C:A2B4H         LINE#         127
  C:A2B4H         LINE#         128
  C:A2BDH         LINE#         130
  -------         ENDPROC       INITIALTIMER2
  -------         PROC          TIMER0_INTERRUPT
  C:A513H         LINE#         141
  C:A513H         LINE#         144
  C:A515H         LINE#         145
  C:A518H         LINE#         146
  C:A51BH         LINE#         147
  C:A51DH         LINE#         155
  C:A51FH         LINE#         156
  -------         ENDPROC       TIMER0_INTERRUPT
  -------         PROC          TIMER2_INTERRUPT
  C:7C24H         LINE#         160
  C:7C2CH         LINE#         163
  C:7C2EH         LINE#         164
  C:7C31H         LINE#         165
  C:7C34H         LINE#         170
  C:7C36H         LINE#         174
  C:7C4BH         LINE#         175
  C:7C60H         LINE#         176
  C:7C75H         LINE#         178
  C:7C8AH         LINE#         180
  C:7C9FH         LINE#         181
  C:7CB4H         LINE#         183
  C:7CCFH         LINE#         184
  C:7CEAH         LINE#         190
  C:7CF6H         LINE#         191
  C:7CF8H         LINE#         192
  -------         ENDPROC       TIMER2_INTERRUPT
  -------         ENDMOD        TIMER

  -------         MODULE        TW28XX_AUDIO
  C:0000H         SYMBOL        _ICE_DUMMY_
  D:0080H         PUBLIC        P0
  D:0090H         PUBLIC        P1
  D:00A0H         PUBLIC        P2
  D:00C0H         PUBLIC        XICON
  D:00B0H         PUBLIC        P3
  D:00E8H         PUBLIC        P4
  C:8AE8H         PUBLIC        _PCT_AudioMixCtrl
  C:9C42H         PUBLIC        _PCT_AudioMixMute
  D:00A8H         PUBLIC        IE
  D:00B8H         PUBLIC        IP
  D:00D8H         PUBLIC        CCON
  D:00C0H         PUBLIC        WDTC
  D:0098H         PUBLIC        SCON
  D:0088H         PUBLIC        TCON
  C:8BC9H         PUBLIC        _PCT_AudioGainCtrl
  D:00F8H         PUBLIC        IPA
  D:00C8H         PUBLIC        T2CON
  C:9DE4H         PUBLIC        _PCT_AudioSelLive
  D:00D0H         PUBLIC        PSW
  C:5CDBH         PUBLIC        PCT_AudioRegList
  C:9B9EH         SYMBOL        Com0016
  C:9B9EH         SYMBOL        L?0023
BL51 BANKED LINKER/LOCATER V6.22                                                      11/06/2015  11:37:23  PAGE 77


  C:9BA1H         SYMBOL        L?0024
  C:9BADH         SYMBOL        L?0025
  C:9BB9H         SYMBOL        L?0027
  C:9BBDH         SYMBOL        L?0028
  C:9BC9H         SYMBOL        L?0030
  -------         PROC          COM0016
  -------         ENDPROC       COM0016
  C:5DCDH         SYMBOL        L?0013
  C:5DE2H         SYMBOL        L?0014
  C:5DF7H         SYMBOL        L?0015
  C:5E0CH         SYMBOL        L?0016
  C:5E21H         SYMBOL        L?0017
  C:5E36H         SYMBOL        L?0018
  C:5E4BH         SYMBOL        L?0019
  C:5E60H         SYMBOL        L?0020
  C:5E75H         SYMBOL        L?0021
  C:5E8AH         SYMBOL        L?0026
  C:5E9FH         SYMBOL        L?0029
  -------         PROC          PCT_AUDIOREGLIST
  C:5CDBH         LINE#         60
  C:5CDBH         LINE#         61
  C:5CDBH         LINE#         62
  C:5CE6H         LINE#         63
  C:5CF1H         LINE#         64
  C:5CFCH         LINE#         65
  C:5D07H         LINE#         66
  C:5D12H         LINE#         68
  C:5D1DH         LINE#         69
  C:5D28H         LINE#         70
  C:5D33H         LINE#         71
  C:5D3EH         LINE#         72
  C:5D49H         LINE#         73
  C:5D54H         LINE#         74
  C:5D5FH         LINE#         75
  C:5D6AH         LINE#         77
  C:5D75H         LINE#         78
  C:5D80H         LINE#         79
  C:5D8BH         LINE#         80
  C:5D96H         LINE#         81
  C:5DA1H         LINE#         83
  C:5DACH         LINE#         84
  C:5DB7H         LINE#         85
  C:5DC2H         LINE#         86
  C:5DCDH         LINE#         87
  -------         ENDPROC       PCT_AUDIOREGLIST
  -------         PROC          _PCT_AUDIOGAINCTRL
  D:0007H         SYMBOL        _dvc
  X:03F4H         SYMBOL        _channel
  X:03F5H         SYMBOL        _gain
  -------         DO            
  D:0004H         SYMBOL        dat
  X:03F6H         SYMBOL        result
  C:9965H         SYMBOL        chanData
  -------         ENDDO         
  C:8BC9H         LINE#         93
  C:8BD3H         LINE#         94
  C:8BD3H         LINE#         110
BL51 BANKED LINKER/LOCATER V6.22                                                      11/06/2015  11:37:23  PAGE 78


  C:8BD5H         LINE#         111
  C:8BE2H         LINE#         113
  C:8BF2H         LINE#         114
  C:8C11H         LINE#         116
  C:8C21H         LINE#         117
  C:8C31H         LINE#         118
  C:8C33H         LINE#         119
  -------         ENDPROC       _PCT_AUDIOGAINCTRL
  -------         PROC          _PCT_AUDIOMIXCTRL
  X:03E3H         SYMBOL        _dvc
  X:03E4H         SYMBOL        _channel
  X:03E5H         SYMBOL        _gain
  -------         DO            
  D:0004H         SYMBOL        dat
  X:03E6H         SYMBOL        result
  C:9979H         SYMBOL        chanData
  -------         ENDDO         
  C:8AE8H         LINE#         126
  C:8AF3H         LINE#         127
  C:8AF3H         LINE#         143
  C:8AF8H         LINE#         144
  C:8B03H         LINE#         146
  C:8B13H         LINE#         147
  C:8B32H         LINE#         149
  C:8B3FH         LINE#         150
  C:8B4CH         LINE#         152
  C:8B56H         LINE#         153
  C:8B58H         LINE#         154
  -------         ENDPROC       _PCT_AUDIOMIXCTRL
  -------         PROC          _PCT_AUDIOMIXMUTE
  D:0007H         SYMBOL        _dvc
  X:03FDH         SYMBOL        _ch
  X:03FEH         SYMBOL        _ctrl
  -------         DO            
  D:0066H         SYMBOL        dat
  -------         ENDDO         
  C:9C42H         LINE#         160
  C:9C4AH         LINE#         161
  C:9C4AH         LINE#         167
  C:9C4CH         LINE#         168
  C:9C54H         LINE#         169
  C:9C5EH         LINE#         170
  C:9C62H         LINE#         171
  C:9C64H         LINE#         172
  C:9C67H         LINE#         173
  C:9C67H         LINE#         174
  C:9C75H         LINE#         176
  C:9C77H         LINE#         177
  -------         ENDPROC       _PCT_AUDIOMIXMUTE
  -------         PROC          _PCT_AUDIOSELLIVE
  D:0007H         SYMBOL        _dvc
  X:0405H         SYMBOL        _chan
  C:9DE4H         LINE#         183
  C:9DE9H         LINE#         184
  C:9DE9H         LINE#         188
  C:9DEBH         LINE#         189
  C:9DEEH         LINE#         190
BL51 BANKED LINKER/LOCATER V6.22                                                      11/06/2015  11:37:23  PAGE 79


  C:9DFBH         LINE#         191
  C:9DFEH         LINE#         192
  C:9DFEH         LINE#         194
  C:9E05H         LINE#         195
  C:9E11H         LINE#         196
  C:9E13H         LINE#         197
  -------         ENDPROC       _PCT_AUDIOSELLIVE
  -------         ENDMOD        TW28XX_AUDIO

  -------         MODULE        TW28XX_VIDEO
  C:0000H         SYMBOL        _ICE_DUMMY_
  D:0080H         PUBLIC        P0
  C:998DH         PUBLIC        _PCT_WinAttrClear
  D:0090H         PUBLIC        P1
  D:00A0H         PUBLIC        P2
  D:00C0H         PUBLIC        XICON
  D:00B0H         PUBLIC        P3
  D:00E8H         PUBLIC        P4
  C:3F17H         PUBLIC        VidoW2_ModifyACHM
  C:9A46H         PUBLIC        _PCT_WinAttrCtrlY
  C:3F0BH         PUBLIC        VidoW2_ModifyACNM
  C:93C5H         PUBLIC        _PCT_DetectVideoFormat
  D:00A8H         PUBLIC        IE
  C:3EFBH         PUBLIC        Video_HDelay
  C:3F2FH         PUBLIC        VidoW2_ModifyRBHM
  C:722AH         PUBLIC        _PCT_RecompenseYHdelay
  D:00B8H         PUBLIC        IP
  C:3F23H         PUBLIC        VidoW2_ModifyRBNM
  C:3FC8H         PUBLIC        XWinAttr_RegAddr
  D:00D8H         PUBLIC        CCON
  C:3FE8H         PUBLIC        YWinAttr_RegAddr
  C:3EDDH         PUBLIC        Video_HDelayInit
  C:5155H         PUBLIC        _PCT_SetVideoHDelay
  C:9CE3H         PUBLIC        _PCT_WinAttrCtrl
  C:847AH         PUBLIC        _PCT_SetChanelScale
  D:00C0H         PUBLIC        WDTC
  D:0098H         PUBLIC        SCON
  D:0088H         PUBLIC        TCON
  C:6264H         PUBLIC        _PCT_SetXVideoMixing
  C:A3DEH         PUBLIC        _PCT_SetYVideoMixing
  C:3F47H         PUBLIC        Init_Vido_Y
  C:3F3BH         PUBLIC        VidoW2_ModifyACHM_PAL
  C:86DAH         PUBLIC        PCT_VideoLastModify
  D:00F8H         PUBLIC        IPA
  C:9E14H         PUBLIC        _PCT_SetVideoFormat
  C:A199H         PUBLIC        _PCT_WinPOPupCtrl
  D:00C8H         PUBLIC        T2CON
  C:3BA7H         PUBLIC        Init_Vido_W1
  C:3C19H         PUBLIC        Init_Vido_W2
  C:3CA3H         PUBLIC        Init_Vido_W3
  C:3FD8H         PUBLIC        XWinPOP_RegAddr
  C:3E6BH         PUBLIC        Init_Vido_W4
  D:00D0H         PUBLIC        PSW
  C:7928H         SYMBOL        Com0076
  C:7928H         SYMBOL        L?0119
  C:7928H         SYMBOL        L?0120
  C:7940H         SYMBOL        L?0121
BL51 BANKED LINKER/LOCATER V6.22                                                      11/06/2015  11:37:23  PAGE 80


  C:7941H         SYMBOL        L?0122
  C:7944H         SYMBOL        L?0123
  C:794AH         SYMBOL        L?0124
  C:794EH         SYMBOL        L?0125
  C:7951H         SYMBOL        L?0126
  C:795AH         SYMBOL        L?0134
  C:795AH         SYMBOL        L?0135
  C:795DH         SYMBOL        L?0136
  C:7960H         SYMBOL        L?0137
  C:7967H         SYMBOL        L?0138
  C:7968H         SYMBOL        L?0139
  C:7971H         SYMBOL        L?0140
  C:797DH         SYMBOL        L?0141
  C:797DH         SYMBOL        L?0142
  C:7981H         SYMBOL        L?0143
  C:798AH         SYMBOL        L?0144
  C:798DH         SYMBOL        L?0145
  C:7990H         SYMBOL        L?0146
  C:799CH         SYMBOL        L?0147
  C:799CH         SYMBOL        L?0148
  C:79A1H         SYMBOL        L?0149
  C:79A4H         SYMBOL        L?0150
  C:79ACH         SYMBOL        L?0152
  C:79AFH         SYMBOL        L?0153
  C:79B3H         SYMBOL        L?0154
  C:79B6H         SYMBOL        L?0155
  C:79BEH         SYMBOL        L?0158
  C:79BEH         SYMBOL        L?0159
  C:79C1H         SYMBOL        L?0160
  C:79C9H         SYMBOL        L?0162
  C:79E8H         SYMBOL        L?0165
  C:79E8H         SYMBOL        L?0166
  C:79EBH         SYMBOL        L?0167
  C:79F4H         SYMBOL        L?0171
  C:79F4H         SYMBOL        L?0172
  C:79FCH         SYMBOL        L?0175
  C:79FCH         SYMBOL        L?0176
  C:7A03H         SYMBOL        L?0178
  C:7A03H         SYMBOL        L?0179
  C:7A0BH         SYMBOL        L?0181
  C:7A15H         SYMBOL        L?0182
  C:7A15H         SYMBOL        L?0183
  C:7A1BH         SYMBOL        L?0184
  C:7A1BH         SYMBOL        L?0185
  C:7A22H         SYMBOL        L?0186
  C:7A22H         SYMBOL        L?0187
  C:7A28H         SYMBOL        L?0188
  C:7A28H         SYMBOL        L?0189
  C:7A2FH         SYMBOL        L?0190
  C:7A39H         SYMBOL        L?0191
  -------         PROC          COM0076
  -------         ENDPROC       COM0076
  -------         PROC          _PCT_DETECTVIDEOFORMAT
  X:01D5H         SYMBOL        _ch
  -------         DO            
  X:01D6H         SYMBOL        tmpSta
  -------         ENDDO         
BL51 BANKED LINKER/LOCATER V6.22                                                      11/06/2015  11:37:23  PAGE 81


  C:93C5H         LINE#         77
  C:93CAH         LINE#         78
  C:93CAH         LINE#         84
  C:93CDH         LINE#         86
  C:93DAH         LINE#         87
  C:93EDH         LINE#         90
  C:93F4H         LINE#         91
  C:93F7H         LINE#         92
  C:93FEH         LINE#         93
  C:9404H         LINE#         94
  C:940FH         LINE#         105
  -------         ENDPROC       _PCT_DETECTVIDEOFORMAT
  -------         PROC          _PCT_SETVIDEOFORMAT
  D:0007H         SYMBOL        _dvc
  D:0005H         SYMBOL        _ch
  X:03FFH         SYMBOL        _fmat
  -------         DO            
  D:0007H         SYMBOL        tmpSta
  X:0400H         SYMBOL        addr
  -------         ENDDO         
  C:9E14H         LINE#         111
  C:9E19H         LINE#         112
  C:9E19H         LINE#         115
  C:9E19H         LINE#         116
  C:9E24H         LINE#         117
  C:9E2AH         LINE#         120
  C:9E2EH         LINE#         122
  C:9E34H         LINE#         123
  -------         ENDPROC       _PCT_SETVIDEOFORMAT
  C:84D9H         SYMBOL        L?0133
  -------         PROC          _PCT_SETCHANELSCALE
  D:0007H         SYMBOL        _ch
  X:01E4H         SYMBOL        datptr
  -------         DO            
  C:3FF0H         SYMBOL        ScaleRgeAddr
  X:01E7H         SYMBOL        addrptr
  X:01EAH         SYMBOL        value
  -------         ENDDO         
  C:847AH         LINE#         132
  C:8481H         LINE#         133
  C:8481H         LINE#         145
  C:8491H         LINE#         146
  C:84A5H         LINE#         147
  C:84AAH         LINE#         148
  C:84AAH         LINE#         149
  C:84B3H         LINE#         150
  C:84BDH         LINE#         151
  C:84D0H         LINE#         152
  C:84D0H         LINE#         153
  C:84D9H         LINE#         154
  -------         ENDPROC       _PCT_SETCHANELSCALE
  C:536AH         SYMBOL        L?0127
  C:5387H         SYMBOL        L?0128
  C:53A4H         SYMBOL        L?0129
  C:53C1H         SYMBOL        L?0130
  C:53D9H         SYMBOL        L?0131
  C:53F3H         SYMBOL        L?0132
BL51 BANKED LINKER/LOCATER V6.22                                                      11/06/2015  11:37:23  PAGE 82


  C:5408H         SYMBOL        L?0151
  C:5419H         SYMBOL        L?0157
  C:5425H         SYMBOL        L?0163
  C:5431H         SYMBOL        L?0164
  C:5442H         SYMBOL        L?0173
  -------         PROC          _PCT_SETVIDEOHDELAY
  D:0007H         SYMBOL        _typ
  X:01DEH         SYMBOL        _winch
  X:01E1H         SYMBOL        _cattr
  -------         DO            
  X:01E4H         SYMBOL        hdelay
  -------         ENDDO         
  C:5155H         LINE#         157
  C:515CH         LINE#         158
  C:515CH         LINE#         166
  C:5188H         LINE#         167
  C:5188H         LINE#         168
  C:5188H         LINE#         174
  C:518EH         LINE#         175
  C:5197H         LINE#         176
  C:51A4H         LINE#         177
  C:51AAH         LINE#         179
  C:51ACH         LINE#         183
  C:51ADH         LINE#         191
  C:51AFH         LINE#         193
  C:51AFH         LINE#         194
  C:51AFH         LINE#         208
  C:51AFH         LINE#         210
  C:51AFH         LINE#         211
  C:51AFH         LINE#         213
  C:51AFH         LINE#         214
  C:51B8H         LINE#         222
  C:51C6H         LINE#         226
  C:51C6H         LINE#         227
  C:51C6H         LINE#         232
  C:51D4H         LINE#         234
  C:51D7H         LINE#         236
  C:51D7H         LINE#         237
  C:51D7H         LINE#         239
  C:51DDH         LINE#         240
  C:51E6H         LINE#         241
  C:51EEH         LINE#         242
  C:51F4H         LINE#         244
  C:51F4H         LINE#         245
  C:5200H         LINE#         246
  C:5208H         LINE#         247
  C:520EH         LINE#         249
  C:5211H         LINE#         250
  C:521AH         LINE#         251
  C:5225H         LINE#         252
  C:522FH         LINE#         253
  C:5232H         LINE#         255
  C:5232H         LINE#         256
  C:5232H         LINE#         257
  C:5232H         LINE#         259
  C:5232H         LINE#         260
  C:5232H         LINE#         263
BL51 BANKED LINKER/LOCATER V6.22                                                      11/06/2015  11:37:23  PAGE 83


  C:5232H         LINE#         264
  C:523BH         LINE#         265
  C:5243H         LINE#         266
  C:5249H         LINE#         268
  C:5249H         LINE#         269
  C:5249H         LINE#         270
  C:5251H         LINE#         271
  C:5257H         LINE#         273
  C:525AH         LINE#         274
  C:5263H         LINE#         275
  C:526EH         LINE#         276
  C:5278H         LINE#         277
  C:527BH         LINE#         279
  C:527BH         LINE#         280
  C:527BH         LINE#         283
  C:527BH         LINE#         284
  C:5284H         LINE#         285
  C:5292H         LINE#         286
  C:529EH         LINE#         288
  C:529EH         LINE#         289
  C:529EH         LINE#         290
  C:52A6H         LINE#         291
  C:52B2H         LINE#         293
  C:52B2H         LINE#         294
  C:52BEH         LINE#         295
  C:52CCH         LINE#         296
  C:52D6H         LINE#         297
  C:52D9H         LINE#         299
  C:52D9H         LINE#         300
  C:52D9H         LINE#         303
  C:52D9H         LINE#         304
  C:52E2H         LINE#         305
  C:52F0H         LINE#         306
  C:52FCH         LINE#         308
  C:52FCH         LINE#         309
  C:52FCH         LINE#         310
  C:5304H         LINE#         311
  C:5310H         LINE#         313
  C:5310H         LINE#         314
  C:531CH         LINE#         315
  C:5327H         LINE#         316
  C:5331H         LINE#         318
  C:5334H         LINE#         319
  C:533DH         LINE#         320
  C:5355H         LINE#         321
  C:5369H         LINE#         322
  C:5369H         LINE#         324
  C:5369H         LINE#         325
  C:5369H         LINE#         326
  C:5369H         LINE#         327
  -------         ENDPROC       _PCT_SETVIDEOHDELAY
  C:63E4H         SYMBOL        L?0169
  C:63EBH         SYMBOL        L?0170
  C:63F6H         SYMBOL        L?0174
  C:6400H         SYMBOL        L?0192
  -------         PROC          _PCT_SETXVIDEOMIXING
  X:01DDH         SYMBOL        _typ
BL51 BANKED LINKER/LOCATER V6.22                                                      11/06/2015  11:37:23  PAGE 84


  X:01DEH         SYMBOL        _winch
  -------         DO            
  X:01E1H         SYMBOL        wregptr
  -------         ENDDO         
  C:6264H         LINE#         330
  C:626EH         LINE#         331
  C:626EH         LINE#         335
  C:627CH         LINE#         336
  C:628AH         LINE#         337
  C:629FH         LINE#         338
  C:62B4H         LINE#         347
  C:62EBH         LINE#         348
  C:62EBH         LINE#         349
  C:62EBH         LINE#         353
  C:62FBH         LINE#         354
  C:6304H         LINE#         355
  C:6304H         LINE#         356
  C:6307H         LINE#         358
  C:6307H         LINE#         359
  C:6307H         LINE#         360
  C:6307H         LINE#         361
  C:6307H         LINE#         362
  C:6317H         LINE#         363
  C:6319H         LINE#         365
  C:6325H         LINE#         367
  C:6331H         LINE#         369
  C:6336H         LINE#         370
  C:6339H         LINE#         372
  C:6339H         LINE#         373
  C:6339H         LINE#         374
  C:6339H         LINE#         375
  C:6339H         LINE#         376
  C:6339H         LINE#         377
  C:6339H         LINE#         378
  C:6339H         LINE#         379
  C:6339H         LINE#         380
  C:6349H         LINE#         381
  C:634BH         LINE#         383
  C:6357H         LINE#         384
  C:6363H         LINE#         385
  C:6378H         LINE#         386
  C:637DH         LINE#         387
  C:6380H         LINE#         389
  C:6380H         LINE#         390
  C:6380H         LINE#         391
  C:6390H         LINE#         392
  C:639CH         LINE#         393
  C:63ACH         LINE#         394
  C:63BFH         LINE#         395
  C:63D5H         LINE#         396
  C:63E3H         LINE#         397
  C:63E3H         LINE#         399
  C:63E3H         LINE#         400
  C:63E3H         LINE#         401
  C:63E3H         LINE#         402
  -------         ENDPROC       _PCT_SETXVIDEOMIXING
  -------         PROC          _PCT_SETYVIDEOMIXING
BL51 BANKED LINKER/LOCATER V6.22                                                      11/06/2015  11:37:23  PAGE 85


  D:0007H         SYMBOL        _typ
  C:A3DEH         LINE#         408
  C:A3DEH         LINE#         409
  C:A3DEH         LINE#         410
  -------         ENDPROC       _PCT_SETYVIDEOMIXING
  C:7334H         SYMBOL        L?0156
  C:7340H         SYMBOL        L?0161
  C:734CH         SYMBOL        L?0168
  C:7358H         SYMBOL        L?0177
  C:735FH         SYMBOL        L?0180
  -------         PROC          _PCT_RECOMPENSEYHDELAY
  X:01DDH         SYMBOL        _chmiro
  C:722AH         LINE#         414
  C:7231H         LINE#         415
  C:7231H         LINE#         416
  C:725EH         LINE#         417
  C:725EH         LINE#         419
  C:726FH         LINE#         420
  C:7279H         LINE#         421
  C:728AH         LINE#         422
  C:7294H         LINE#         423
  C:72A5H         LINE#         424
  C:72B2H         LINE#         425
  C:72C6H         LINE#         426
  C:72C6H         LINE#         427
  C:72C9H         LINE#         429
  C:72C9H         LINE#         430
  C:72DAH         LINE#         431
  C:72E1H         LINE#         432
  C:72E4H         LINE#         434
  C:72E4H         LINE#         435
  C:72F2H         LINE#         436
  C:72F9H         LINE#         437
  C:72FBH         LINE#         439
  C:72FBH         LINE#         440
  C:730CH         LINE#         441
  C:7313H         LINE#         442
  C:7315H         LINE#         444
  C:7315H         LINE#         445
  C:7326H         LINE#         446
  C:7333H         LINE#         447
  C:7333H         LINE#         448
  C:7333H         LINE#         449
  -------         ENDPROC       _PCT_RECOMPENSEYHDELAY
  -------         PROC          PCT_VIDEOLASTMODIFY
  -------         DO            
  D:0067H         SYMBOL        state
  -------         ENDDO         
  C:86DAH         LINE#         457
  C:86DAH         LINE#         458
  C:86DAH         LINE#         459
  C:86DDH         LINE#         461
  C:86E7H         LINE#         462
  C:86F2H         LINE#         463
  C:8700H         LINE#         464
  C:870DH         LINE#         466
  C:872DH         LINE#         467
BL51 BANKED LINKER/LOCATER V6.22                                                      11/06/2015  11:37:23  PAGE 86


  C:872DH         LINE#         468
  C:872DH         LINE#         469
  C:8733H         LINE#         470
  C:8735H         LINE#         472
  C:8735H         LINE#         473
  C:8735H         LINE#         475
  C:873EH         LINE#         476
  C:8744H         LINE#         478
  C:8748H         LINE#         479
  C:874AH         LINE#         481
  C:874AH         LINE#         482
  C:874AH         LINE#         483
  C:874FH         LINE#         484
  C:8755H         LINE#         485
  C:8757H         LINE#         486
  C:8757H         LINE#         487
  C:8757H         LINE#         488
  C:875CH         LINE#         489
  C:8767H         LINE#         490
  C:8767H         LINE#         491
  C:8767H         LINE#         492
  -------         ENDPROC       PCT_VIDEOLASTMODIFY
  -------         PROC          _PCT_WINATTRCTRL
  X:01DDH         SYMBOL        _wid
  X:01DEH         SYMBOL        _attrsel
  X:01DFH         SYMBOL        _setval
  -------         DO            
  D:0004H         SYMBOL        dat
  -------         ENDDO         
  C:9CE3H         LINE#         500
  C:9CF0H         LINE#         501
  C:9CF0H         LINE#         507
  C:9CFAH         LINE#         508
  C:9D0CH         LINE#         509
  -------         ENDPROC       _PCT_WINATTRCTRL
  -------         PROC          _PCT_WINATTRCTRLY
  X:01DDH         SYMBOL        _wid
  X:01DEH         SYMBOL        _attrsel
  X:01DFH         SYMBOL        _setval
  -------         DO            
  D:0004H         SYMBOL        dat
  -------         ENDDO         
  C:9A46H         LINE#         518
  C:9A53H         LINE#         519
  C:9A53H         LINE#         524
  C:9A60H         LINE#         525
  C:9A72H         LINE#         526
  -------         ENDPROC       _PCT_WINATTRCTRLY
  -------         PROC          _PCT_WINATTRCLEAR
  X:03F7H         SYMBOL        _attrsel
  -------         DO            
  X:03F8H         SYMBOL        _wid
  X:03F9H         SYMBOL        dat
  -------         ENDDO         
  C:998DH         LINE#         535
  C:9992H         LINE#         536
  C:9992H         LINE#         543
BL51 BANKED LINKER/LOCATER V6.22                                                      11/06/2015  11:37:23  PAGE 87


  C:999FH         LINE#         544
  C:99ADH         LINE#         545
  C:99B8H         LINE#         546
  C:99C4H         LINE#         547
  C:99CCH         LINE#         548
  -------         ENDPROC       _PCT_WINATTRCLEAR
  -------         PROC          _PCT_WINPOPUPCTRL
  X:0406H         SYMBOL        _wid
  -------         DO            
  D:0004H         SYMBOL        dat
  -------         ENDDO         
  C:A199H         LINE#         555
  C:A19EH         LINE#         556
  C:A19EH         LINE#         562
  C:A1ABH         LINE#         563
  C:A1AFH         LINE#         564
  -------         ENDPROC       _PCT_WINPOPUPCTRL
  -------         ENDMOD        TW28XX_VIDEO

  -------         MODULE        TW2835_INIT
  C:0000H         SYMBOL        _ICE_DUMMY_
  D:0080H         PUBLIC        P0
  D:0090H         PUBLIC        P1
  D:00A0H         PUBLIC        P2
  D:00C0H         PUBLIC        XICON
  D:00B0H         PUBLIC        P3
  D:00E8H         PUBLIC        P4
  D:00A8H         PUBLIC        IE
  C:4000H         PUBLIC        TW2835_Page0
  C:4200H         PUBLIC        TW2835_Page1
  C:98C9H         PUBLIC        PCT_InitialTW2835
  D:00B8H         PUBLIC        IP
  C:A441H         PUBLIC        PCT_TW2835ResetN
  D:00D8H         PUBLIC        CCON
  D:00C0H         PUBLIC        WDTC
  D:0098H         PUBLIC        SCON
  D:0088H         PUBLIC        TCON
  C:8EA2H         PUBLIC        _PCT_ChangeSystemType
  D:00F8H         PUBLIC        IPA
  D:00C8H         PUBLIC        T2CON
  B:00E8H.0       PUBLIC        RSTn
  C:8D70H         PUBLIC        PCT_TW2835_Initial
  D:00D0H         PUBLIC        PSW
  C:A32AH         SYMBOL        Com000C
  C:A32AH         SYMBOL        L?0013
  C:A333H         SYMBOL        L?0014
  -------         PROC          COM000C
  -------         ENDPROC       COM000C
  -------         PROC          PCT_INITIALTW2835
  C:98C9H         LINE#         77
  C:98C9H         LINE#         78
  C:98C9H         LINE#         79
  C:98CCH         LINE#         80
  C:98D1H         LINE#         83
  C:98D6H         LINE#         84
  C:98DEH         LINE#         86
  C:98ECH         LINE#         87
BL51 BANKED LINKER/LOCATER V6.22                                                      11/06/2015  11:37:23  PAGE 88


  C:98ECH         LINE#         88
  C:98F6H         LINE#         92
  C:98F8H         LINE#         93
  C:98F8H         LINE#         95
  C:98FFH         LINE#         100
  C:9901H         LINE#         101
  C:9906H         LINE#         103
  C:9909H         LINE#         105
  -------         ENDPROC       PCT_INITIALTW2835
  -------         PROC          PCT_TW2835RESETN
  -------         DO            
  D:0006H         SYMBOL        _delay
  -------         ENDDO         
  C:A441H         LINE#         113
  C:A441H         LINE#         114
  C:A441H         LINE#         129
  C:A443H         LINE#         132
  C:A451H         LINE#         134
  C:A453H         LINE#         138
  -------         ENDPROC       PCT_TW2835RESETN
  C:8DCBH         SYMBOL        L?0015
  -------         PROC          PCT_TW2835_INITIAL
  -------         DO            
  X:01D5H         SYMBOL        offset
  -------         ENDDO         
  C:8D70H         LINE#         144
  C:8D70H         LINE#         145
  C:8D70H         LINE#         148
  C:8D7BH         LINE#         149
  C:8D87H         LINE#         150
  C:8D99H         LINE#         152
  C:8DB0H         LINE#         154
  C:8DCBH         LINE#         155
  -------         ENDPROC       PCT_TW2835_INITIAL
  C:8EFAH         SYMBOL        L?0016
  -------         PROC          _PCT_CHANGESYSTEMTYPE
  D:0007H         SYMBOL        _sys
  -------         DO            
  X:0006H         SYMBOL        offset
  -------         ENDDO         
  C:8EA2H         LINE#         161
  C:8EA2H         LINE#         162
  C:8EA2H         LINE#         165
  C:8EAAH         LINE#         166
  C:8EB6H         LINE#         168
  C:8EC9H         LINE#         170
  C:8EDFH         LINE#         171
  C:8EFAH         LINE#         172
  -------         ENDPROC       _PCT_CHANGESYSTEMTYPE
  -------         ENDMOD        TW2835_INIT

  -------         MODULE        NED
  C:0000H         SYMBOL        _ICE_DUMMY_
  X:020BH         PUBLIC        SC16_Com
  C:A5F2H         PUBLIC        _GPIOGetPortState
  C:A55EH         PUBLIC        _WriteI2C2
  D:0080H         PUBLIC        P0
BL51 BANKED LINKER/LOCATER V6.22                                                      11/06/2015  11:37:23  PAGE 89


  D:0090H         PUBLIC        P1
  C:990CH         PUBLIC        _SC16_data_reset
  D:00A0H         PUBLIC        P2
  C:A478H         PUBLIC        I2CStart2
  C:9ABCH         PUBLIC        Sent_DVR_temp
  D:00C0H         PUBLIC        XICON
  D:00B0H         PUBLIC        P3
  C:A4D7H         PUBLIC        I2Cdelay2
  D:00E8H         PUBLIC        P4
  C:A5ECH         PUBLIC        _Command_Check
  X:0214H         PUBLIC        DVR_temp
  X:0216H         PUBLIC        Cam_startup_flag
  C:9F7AH         PUBLIC        Get_DVR_temp
  C:8A75H         PUBLIC        _Bound_Set
  C:A4E6H         PUBLIC        _Sent_Camera_IRD
  C:A5B5H         PUBLIC        _GPIOSetPortState
  C:A49AH         PUBLIC        _Power_onoff
  C:A2BEH         PUBLIC        _WriteI2CWORD
  X:0217H         PUBLIC        Camera_press0
  D:00A8H         PUBLIC        IE
  X:0218H         PUBLIC        Camera_press1
  C:A5ACH         PUBLIC        _GPIOSetPortMode
  C:9840H         PUBLIC        _Get_Camera_IRD
  X:0219H         PUBLIC        Camera_press2
  X:021AH         PUBLIC        Camera_press3
  C:8F06H         PUBLIC        GPIO_check
  B:00A0H.0       PUBLIC        P2_0
  X:021BH         PUBLIC        Cam_Com
  B:00A0H.1       PUBLIC        P2_1
  C:96E1H         PUBLIC        Sent_Camera_RAng
  B:00A0H.2       PUBLIC        P2_2
  C:A53AH         PUBLIC        _ReadByte
  C:8901H         PUBLIC        SC16_init
  B:00E8H.1       PUBLIC        P4_1
  B:00A0H.3       PUBLIC        P2_3
  X:0220H         PUBLIC        Camera_temp0
  B:00E8H.2       PUBLIC        P4_2
  X:0221H         PUBLIC        Camera_RAng
  X:0225H         PUBLIC        Camera_temp1
  B:00B0H.4       PUBLIC        P3_4
  B:00A0H.5       PUBLIC        P2_5
  B:00B0H.5       PUBLIC        P3_5
  B:00A0H.6       PUBLIC        P2_6
  X:0226H         PUBLIC        data_flag
  X:0227H         PUBLIC        GPIO_current
  C:9728H         PUBLIC        Sent_DVR_ver
  C:9F4EH         PUBLIC        Get_Camera_RAng
  D:00B8H         PUBLIC        IP
  C:A52DH         PUBLIC        I2CStop2
  X:0228H         PUBLIC        DVR_ver
  X:022BH         PUBLIC        Com_flag
  C:A39FH         PUBLIC        _parity
  C:A5FEH         PUBLIC        _FIFOAvailableSpace
  X:022CH         PUBLIC        Com_addr
  C:9FA6H         PUBLIC        Get_DVR_ver
  D:00C6H         PUBLIC        ADCV
  X:022DH         PUBLIC        SC16_busy_flag
BL51 BANKED LINKER/LOCATER V6.22                                                      11/06/2015  11:37:23  PAGE 90


  C:83D1H         PUBLIC        _TW2835_get
  C:945AH         PUBLIC        I2C_ACK2
  C:A283H         PUBLIC        _EnableTransmit
  X:022FH         PUBLIC        peek_flag
  D:00D8H         PUBLIC        CCON
  X:0230H         PUBLIC        SC16_com_buff
  C:A5BEH         PUBLIC        _WriteByte
  C:A569H         PUBLIC        _flush
  X:0239H         PUBLIC        Cam_boot_flag
  X:023AH         PUBLIC        DVR_Y
  C:A574H         PUBLIC        _peek
  C:A5F8H         PUBLIC        _FIFOAvailableData
  C:A056H         PUBLIC        I2CReadDataWithACK
  C:976FH         PUBLIC        Send_Camera_Press
  X:023EH         PUBLIC        Camera_ver0
  X:023FH         PUBLIC        Camera_ver1
  X:0240H         PUBLIC        Camera_ver2
  C:A264H         PUBLIC        _ping
  D:0087H         PUBLIC        PCON
  X:0241H         PUBLIC        Com_start
  C:A5C7H         PUBLIC        MCTRL_set
  C:9AF6H         PUBLIC        Send_Camera_Temp
  D:00C0H         PUBLIC        WDTC
  D:0098H         PUBLIC        SCON
  D:0088H         PUBLIC        TCON
  C:8DD7H         PUBLIC        _SetLine
  X:0242H         PUBLIC        Com_temp
  X:0243H         PUBLIC        Shrink_f
  X:0244H         PUBLIC        Back_f
  X:0245H         PUBLIC        Com_end
  C:A081H         PUBLIC        _BCC_Cal
  C:A1BFH         PUBLIC        I2CReadData
  C:9D80H         PUBLIC        Repeat_PWM_Com
  X:0246H         PUBLIC        get_data_addr
  C:9DB2H         PUBLIC        SC16_DataCheck
  C:A2DBH         PUBLIC        _ReadI2C
  X:0247H         PUBLIC        DVR_Com_p
  B:0088H.1       PUBLIC        IE0
  B:0088H.3       PUBLIC        IE1
  B:00C0H.1       PUBLIC        IE2
  C:969AH         PUBLIC        Sent_Camera_Ang
  C:9C9FH         SYMBOL        _?ix1000
  C:9CA2H         SYMBOL        _?ix1001
  X:0248H         PUBLIC        Camera_Ang
  C:9CA6H         SYMBOL        _?ix1002
  C:9CAAH         SYMBOL        _?ix1003
  X:024CH         PUBLIC        peek_buf
  C:9F22H         PUBLIC        Get_Camera_Ang
  C:A225H         PUBLIC        _ADC_read
  C:9653H         PUBLIC        Send_Camera_Ver
  X:024DH         PUBLIC        Camera_flag
  C:8A10H         PUBLIC        _I2CWriteData
  C:5EB4H         PUBLIC        _SC16_SendDataSelect
  C:A34AH         PUBLIC        _WriteI2C
  B:00A8H.0       PUBLIC        EX0
  B:0088H.0       PUBLIC        IT0
  D:008DH         PUBLIC        TH1
BL51 BANKED LINKER/LOCATER V6.22                                                      11/06/2015  11:37:23  PAGE 91


  X:024EH         PUBLIC        Camera_IRDA
  C:A60CH         PUBLIC        Sent_DVR_MDr
  B:00A8H.2       PUBLIC        EX1
  B:0088H.2       PUBLIC        IT1
  C:94A4H         PUBLIC        _Set_Camera_speed
  B:00C0H.0       PUBLIC        IT2
  B:00C0H.2       PUBLIC        EX2
  C:A466H         PUBLIC        I2CStart
  C:A4C8H         PUBLIC        I2Cdelay
  X:026AH         PUBLIC        DRP_ID
  X:0273H         PUBLIC        Com_pos
  X:0274H         PUBLIC        Monitor_current
  X:0275H         PUBLIC        Com_run
  C:A4F5H         PUBLIC        _ResetDevice
  D:00F8H         PUBLIC        IPA
  C:8052H         PUBLIC        _SetBaudrate
  X:0276H         PUBLIC        Crop_f
  C:9E42H         PUBLIC        I2CReadDataWithACK2
  C:A0D5H         PUBLIC        ADT75_init
  C:97B5H         PUBLIC        Sent_DVR_Year
  C:9EF6H         PUBLIC        Get_Camera_Ver
  X:0277H         PUBLIC        DVR_MD
  C:A3F2H         PUBLIC        I2C_100Khz
  C:827AH         PUBLIC        _SC16_ComCheck
  C:9FFEH         PUBLIC        Get_DVR_MD
  X:027BH         PUBLIC        DVR_MH
  X:027FH         PUBLIC        DVR_startup_flag
  C:9FD2H         PUBLIC        Get_DVR_Year
  X:0280H         PUBLIC        get_data_val
  X:0281H         PUBLIC        Cam_Com_p
  C:A60DH         PUBLIC        Sent_DVR_HS
  C:8513H         PUBLIC        Camera_move
  C:A1E4H         PUBLIC        _SC16_SendData
  C:8644H         PUBLIC        Check_other_Com
  C:A520H         PUBLIC        I2CStop
  D:00C8H         PUBLIC        T2CON
  X:0282H         PUBLIC        INT_flag
  C:608DH         PUBLIC        _SC16_BCC_Check
  D:00C5H         PUBLIC        ADCTL
  C:A02AH         PUBLIC        Get_DVR_HS
  C:8981H         PUBLIC        _Set_channel
  D:00BEH         PUBLIC        ADCVL
  C:A0FEH         PUBLIC        I2CReadData2
  X:0283H         PUBLIC        DVR_Com
  C:A5A3H         PUBLIC        I2C_ACK
  C:000EH         PUBLIC        _ReadI2C2
  X:0288H         PUBLIC        Monitor_state
  X:0289H         PUBLIC        OUTPUT
  X:028AH         PUBLIC        Monitor_mode
  C:A35BH         PUBLIC        _Set_INT
  C:85ACH         PUBLIC        _check_startup
  D:00D0H         PUBLIC        PSW
  C:9BD5H         PUBLIC        _ReadI2CWORD
  X:028BH         PUBLIC        SC16_ComAddr
  C:8C34H         PUBLIC        _I2CWriteData2
  C:8D07H         PUBLIC        _Get_Data
  C:6A07H         SYMBOL        Com01B5
BL51 BANKED LINKER/LOCATER V6.22                                                      11/06/2015  11:37:23  PAGE 92


  C:6A07H         SYMBOL        L?0438
  C:6A08H         SYMBOL        L?0439
  C:6A09H         SYMBOL        L?0440
  C:6A0AH         SYMBOL        L?0441
  C:6A0DH         SYMBOL        L?0442
  C:6A0EH         SYMBOL        L?0443
  C:6A10H         SYMBOL        L?0444
  C:6A18H         SYMBOL        L?0445
  C:6A19H         SYMBOL        L?0446
  C:6A1CH         SYMBOL        L?0447
  C:6A1FH         SYMBOL        L?0448
  C:6A29H         SYMBOL        L?0449
  C:6A29H         SYMBOL        L?0450
  C:6A2DH         SYMBOL        L?0451
  C:6A3BH         SYMBOL        L?0452
  C:6A3BH         SYMBOL        L?0453
  C:6A3DH         SYMBOL        L?0454
  C:6A40H         SYMBOL        L?0455
  C:6A48H         SYMBOL        L?0456
  C:6A48H         SYMBOL        L?0457
  C:6A4BH         SYMBOL        L?0458
  C:6A55H         SYMBOL        L?0460
  C:6A55H         SYMBOL        L?0461
  C:6A5AH         SYMBOL        L?0462
  C:6A62H         SYMBOL        L?0463
  C:6A62H         SYMBOL        L?0464
  C:6A6EH         SYMBOL        L?0467
  C:6A6EH         SYMBOL        L?0468
  C:6A71H         SYMBOL        L?0469
  C:6A79H         SYMBOL        L?0480
  C:6A7DH         SYMBOL        L?0481
  C:6A84H         SYMBOL        L?0482
  C:6A84H         SYMBOL        L?0483
  C:6A8BH         SYMBOL        L?0485
  C:6A8DH         SYMBOL        L?0486
  C:6A97H         SYMBOL        L?0487
  C:6A97H         SYMBOL        L?0488
  C:6AA3H         SYMBOL        L?0490
  C:6AAAH         SYMBOL        L?0491
  C:6AB1H         SYMBOL        L?0492
  C:6AB4H         SYMBOL        L?0493
  C:6ABBH         SYMBOL        L?0495
  C:6ABCH         SYMBOL        L?0496
  C:6AC4H         SYMBOL        L?0497
  C:6AC6H         SYMBOL        L?0498
  C:6ACEH         SYMBOL        L?0499
  C:6ADBH         SYMBOL        L?0500
  C:6AE8H         SYMBOL        L?0501
  C:6AF2H         SYMBOL        L?0502
  C:6AF2H         SYMBOL        L?0503
  C:6AFAH         SYMBOL        L?0507
  C:6B05H         SYMBOL        L?0508
  C:6B10H         SYMBOL        L?0509
  C:6B1BH         SYMBOL        L?0511
  C:6B25H         SYMBOL        L?0512
  C:6B2FH         SYMBOL        L?0513
  C:6B2FH         SYMBOL        L?0514
BL51 BANKED LINKER/LOCATER V6.22                                                      11/06/2015  11:37:23  PAGE 93


  C:6B36H         SYMBOL        L?0515
  C:6B36H         SYMBOL        L?0516
  C:6B3DH         SYMBOL        L?0517
  C:6B3DH         SYMBOL        L?0518
  C:6B44H         SYMBOL        L?0519
  C:6B44H         SYMBOL        L?0520
  C:6B4BH         SYMBOL        L?0521
  C:6B4BH         SYMBOL        L?0522
  C:6B52H         SYMBOL        L?0523
  C:6B5CH         SYMBOL        L?0524
  C:6B66H         SYMBOL        L?0525
  -------         PROC          COM01B5
  -------         ENDPROC       COM01B5
  -------         PROC          I2CDELAY
  -------         DO            
  D:0006H         SYMBOL        i
  -------         ENDDO         
  C:A4C8H         LINE#         120
  C:A4C8H         LINE#         121
  C:A4C8H         LINE#         124
  C:A4CBH         LINE#         125
  C:A4CBH         LINE#         126
  C:A4D6H         LINE#         133
  -------         ENDPROC       I2CDELAY
  -------         PROC          I2CDELAY2
  -------         DO            
  D:0006H         SYMBOL        i
  -------         ENDDO         
  C:A4D7H         LINE#         134
  C:A4D7H         LINE#         135
  C:A4D7H         LINE#         137
  C:A4DAH         LINE#         139
  C:A4E5H         LINE#         140
  -------         ENDPROC       I2CDELAY2
  -------         PROC          I2C_100KHZ
  C:A3F2H         LINE#         142
  C:A3F2H         LINE#         143
  C:A3F2H         LINE#         145
  C:A3FFH         LINE#         146
  C:A405H         LINE#         147
  -------         ENDPROC       I2C_100KHZ
  -------         PROC          I2CSTART
  C:A466H         LINE#         149
  C:A466H         LINE#         150
  C:A466H         LINE#         152
  C:A46BH         LINE#         153
  C:A470H         LINE#         154
  C:A475H         LINE#         155
  C:A477H         LINE#         171
  -------         ENDPROC       I2CSTART
  -------         PROC          I2CSTART2
  C:A478H         LINE#         173
  C:A478H         LINE#         174
  C:A478H         LINE#         176
  C:A47DH         LINE#         177
  C:A482H         LINE#         178
  C:A487H         LINE#         179
BL51 BANKED LINKER/LOCATER V6.22                                                      11/06/2015  11:37:23  PAGE 94


  C:A489H         LINE#         180
  -------         ENDPROC       I2CSTART2
  -------         PROC          I2CSTOP
  C:A520H         LINE#         181
  C:A520H         LINE#         182
  C:A520H         LINE#         184
  C:A525H         LINE#         185
  C:A52AH         LINE#         186
  C:A52CH         LINE#         201
  -------         ENDPROC       I2CSTOP
  -------         PROC          I2CSTOP2
  C:A52DH         LINE#         203
  C:A52DH         LINE#         204
  C:A52DH         LINE#         206
  C:A532H         LINE#         207
  C:A537H         LINE#         208
  C:A539H         LINE#         209
  -------         ENDPROC       I2CSTOP2
  C:8A06H         SYMBOL        L?0466
  -------         PROC          L?0465
  -------         ENDPROC       L?0465
  C:8A06H         SYMBOL        L?0466
  -------         PROC          _I2CWRITEDATA
  D:0005H         SYMBOL        value
  C:8A10H         LINE#         211
  C:8A12H         LINE#         212
  C:8A12H         LINE#         214
  C:8A1CH         LINE#         215
  C:8A27H         LINE#         216
  C:8A32H         LINE#         217
  C:8A3DH         LINE#         219
  C:8A48H         LINE#         220
  C:8A53H         LINE#         221
  C:8A5EH         LINE#         222
  C:8A69H         LINE#         225
  C:8A6CH         LINE#         226
  C:8A6CH         LINE#         227
  C:8A6CH         LINE#         228
  C:8A6CH         LINE#         230
  C:8A6CH         LINE#         231
  C:8A6FH         LINE#         232
  C:8A6FH         LINE#         233
  C:8A6FH         LINE#         234
  C:8A72H         LINE#         235
  -------         ENDPROC       _I2CWRITEDATA
  -------         PROC          _I2CWRITEDATA2
  D:0005H         SYMBOL        value
  C:8C34H         LINE#         280
  C:8C36H         LINE#         281
  C:8C36H         LINE#         283
  C:8C40H         LINE#         284
  C:8C4BH         LINE#         285
  C:8C56H         LINE#         286
  C:8C66H         LINE#         288
  C:8C71H         LINE#         289
  C:8C7CH         LINE#         290
  C:8C87H         LINE#         291
BL51 BANKED LINKER/LOCATER V6.22                                                      11/06/2015  11:37:23  PAGE 95


  C:8C92H         LINE#         294
  C:8C95H         LINE#         295
  C:8C95H         LINE#         296
  C:8C95H         LINE#         297
  C:8C95H         LINE#         299
  C:8C95H         LINE#         300
  C:8C98H         LINE#         301
  C:8C98H         LINE#         302
  C:8C98H         LINE#         303
  C:8C9BH         LINE#         304
  -------         ENDPROC       _I2CWRITEDATA2
  -------         PROC          I2CREADDATA
  -------         DO            
  D:0002H         SYMBOL        i
  D:0005H         SYMBOL        value
  -------         ENDDO         
  C:A1BFH         LINE#         309
  C:A1BFH         LINE#         310
  C:A1BFH         LINE#         313
  C:A1BFH         LINE#         315
  C:A1BFH         LINE#         316
  C:A1BFH         LINE#         318
  C:A1C2H         LINE#         319
  C:A1C2H         LINE#         320
  C:A1C2H         LINE#         321
  C:A1C5H         LINE#         322
  C:A1CBH         LINE#         323
  C:A1CBH         LINE#         324
  C:A1CBH         LINE#         325
  C:A1CBH         LINE#         326
  C:A1D8H         LINE#         328
  C:A1DBH         LINE#         332
  C:A1DEH         LINE#         334
  C:A1E1H         LINE#         335
  C:A1E3H         LINE#         395
  -------         ENDPROC       I2CREADDATA
  -------         PROC          I2CREADDATA2
  -------         DO            
  D:0002H         SYMBOL        i
  D:0005H         SYMBOL        value
  -------         ENDDO         
  C:A0FEH         LINE#         397
  C:A0FEH         LINE#         398
  C:A0FEH         LINE#         401
  C:A0FEH         LINE#         403
  C:A0FEH         LINE#         404
  C:A0FEH         LINE#         406
  C:A101H         LINE#         407
  C:A104H         LINE#         408
  C:A104H         LINE#         409
  C:A107H         LINE#         410
  C:A10DH         LINE#         411
  C:A10DH         LINE#         412
  C:A10DH         LINE#         413
  C:A10DH         LINE#         414
  C:A11AH         LINE#         416
  C:A11DH         LINE#         420
BL51 BANKED LINKER/LOCATER V6.22                                                      11/06/2015  11:37:23  PAGE 96


  C:A120H         LINE#         422
  C:A123H         LINE#         423
  C:A125H         LINE#         424
  -------         ENDPROC       I2CREADDATA2
  -------         PROC          I2CREADDATAWITHACK
  -------         DO            
  D:0002H         SYMBOL        i
  D:0005H         SYMBOL        value
  -------         ENDDO         
  C:A056H         LINE#         426
  C:A056H         LINE#         427
  C:A056H         LINE#         430
  C:A056H         LINE#         432
  C:A056H         LINE#         433
  C:A056H         LINE#         435
  C:A059H         LINE#         436
  C:A059H         LINE#         437
  C:A059H         LINE#         438
  C:A05CH         LINE#         439
  C:A062H         LINE#         440
  C:A062H         LINE#         441
  C:A062H         LINE#         442
  C:A062H         LINE#         443
  C:A06FH         LINE#         445
  C:A071H         LINE#         449
  C:A074H         LINE#         450
  C:A076H         LINE#         451
  C:A078H         LINE#         452
  C:A078H         LINE#         453
  C:A078H         LINE#         454
  C:A07BH         LINE#         455
  C:A07EH         LINE#         457
  C:A080H         LINE#         493
  -------         ENDPROC       I2CREADDATAWITHACK
  -------         PROC          I2CREADDATAWITHACK2
  -------         DO            
  D:0002H         SYMBOL        i
  D:0005H         SYMBOL        value
  -------         ENDDO         
  C:9E42H         LINE#         495
  C:9E42H         LINE#         496
  C:9E42H         LINE#         499
  C:9E42H         LINE#         501
  C:9E42H         LINE#         502
  C:9E42H         LINE#         504
  C:9E45H         LINE#         505
  C:9E48H         LINE#         506
  C:9E48H         LINE#         507
  C:9E4BH         LINE#         508
  C:9E51H         LINE#         509
  C:9E51H         LINE#         510
  C:9E51H         LINE#         511
  C:9E51H         LINE#         512
  C:9E5EH         LINE#         514
  C:9E60H         LINE#         518
  C:9E63H         LINE#         519
  C:9E65H         LINE#         520
BL51 BANKED LINKER/LOCATER V6.22                                                      11/06/2015  11:37:23  PAGE 97


  C:9E67H         LINE#         521
  C:9E67H         LINE#         522
  C:9E67H         LINE#         523
  C:9E6AH         LINE#         524
  C:9E6DH         LINE#         526
  C:9E6FH         LINE#         527
  -------         ENDPROC       I2CREADDATAWITHACK2
  -------         PROC          L?0510
  -------         ENDPROC       L?0510
  -------         PROC          _WRITEI2C
  D:0004H         SYMBOL        addr
  D:0002H         SYMBOL        index
  D:0003H         SYMBOL        val
  C:A34AH         LINE#         529
  C:A34AH         LINE#         530
  C:A34AH         LINE#         533
  C:A34AH         LINE#         534
  C:A34DH         LINE#         535
  C:A355H         LINE#         536
  C:A358H         LINE#         537
  -------         ENDPROC       _WRITEI2C
  -------         PROC          _READI2C
  D:0004H         SYMBOL        addr
  D:0003H         SYMBOL        index
  -------         DO            
  D:0005H         SYMBOL        val
  -------         ENDDO         
  C:A2DBH         LINE#         551
  C:A2DDH         LINE#         552
  C:A2DDH         LINE#         556
  C:A2DDH         LINE#         557
  C:A2E0H         LINE#         558
  C:A2E9H         LINE#         559
  C:A2E9H         LINE#         560
  C:A2ECH         LINE#         561
  C:A2F1H         LINE#         564
  C:A2F4H         LINE#         609
  C:A2F6H         LINE#         610
  -------         ENDPROC       _READI2C
  -------         PROC          _WRITEI2C2
  D:0004H         SYMBOL        addr
  D:0002H         SYMBOL        index
  D:0003H         SYMBOL        val
  C:A55EH         LINE#         612
  C:A55EH         LINE#         613
  C:A55EH         LINE#         614
  C:A55EH         LINE#         615
  C:A561H         LINE#         616
  C:A563H         LINE#         617
  C:A566H         LINE#         618
  -------         ENDPROC       _WRITEI2C2
  -------         PROC          _READI2C2
  D:0004H         SYMBOL        addr
  D:0003H         SYMBOL        index
  -------         DO            
  X:0407H         SYMBOL        val
  -------         ENDDO         
BL51 BANKED LINKER/LOCATER V6.22                                                      11/06/2015  11:37:23  PAGE 98


  C:000EH         LINE#         622
  C:0012H         LINE#         623
  C:0012H         LINE#         626
  C:0012H         LINE#         627
  C:0012H         LINE#         628
  C:0012H         LINE#         629
  C:0012H         LINE#         630
  C:0015H         LINE#         631
  C:001DH         LINE#         633
  C:0020H         LINE#         634
  C:0022H         LINE#         635
  -------         ENDPROC       _READI2C2
  -------         PROC          I2C_ACK
  C:A5A3H         LINE#         638
  C:A5A3H         LINE#         639
  C:A5A3H         LINE#         643
  C:A5A3H         LINE#         644
  C:A5A3H         LINE#         645
  C:A5A3H         LINE#         646
  C:A5A6H         LINE#         647
  C:A5A9H         LINE#         648
  C:A5ABH         LINE#         649
  -------         ENDPROC       I2C_ACK
  -------         PROC          I2C_ACK2
  C:945AH         LINE#         651
  C:945AH         LINE#         652
  C:945AH         LINE#         658
  C:9471H         LINE#         659
  C:9473H         LINE#         660
  C:948AH         LINE#         662
  C:948CH         LINE#         663
  C:94A3H         LINE#         668
  -------         ENDPROC       I2C_ACK2
  -------         PROC          _READI2CWORD
  D:0004H         SYMBOL        addr
  D:0003H         SYMBOL        index
  -------         DO            
  X:0006H         SYMBOL        val
  -------         ENDDO         
  C:9BD5H         LINE#         671
  C:9BD9H         LINE#         672
  C:9BD9H         LINE#         673
  C:9BE0H         LINE#         675
  C:9BE0H         LINE#         676
  C:9BE0H         LINE#         678
  C:9BE0H         LINE#         681
  C:9BE0H         LINE#         682
  C:9BE3H         LINE#         684
  C:9BEEH         LINE#         685
  C:9BF7H         LINE#         686
  C:9C00H         LINE#         687
  C:9C03H         LINE#         689
  C:9C0BH         LINE#         690
  -------         ENDPROC       _READI2CWORD
  -------         PROC          _WRITEI2CWORD
  D:0001H         SYMBOL        addr
  D:0004H         SYMBOL        index
BL51 BANKED LINKER/LOCATER V6.22                                                      11/06/2015  11:37:23  PAGE 99


  D:0002H         SYMBOL        Data
  -------         DO            
  D:0003H         SYMBOL        tempL
  X:0408H         SYMBOL        tempH
  -------         ENDDO         
  C:A2BEH         LINE#         693
  C:A2C2H         LINE#         694
  C:A2C2H         LINE#         697
  C:A2C7H         LINE#         698
  C:A2C7H         LINE#         699
  C:A2CAH         LINE#         700
  C:A2CFH         LINE#         701
  C:A2D4H         LINE#         702
  C:A2D5H         LINE#         703
  C:A2D8H         LINE#         704
  -------         ENDPROC       _WRITEI2CWORD
  C:8ADCH         SYMBOL        L?0504
  -------         PROC          _BOUND_SET
  X:01D5H         SYMBOL        val
  -------         DO            
  X:01D6H         SYMBOL        Mask
  -------         ENDDO         
  C:8A75H         LINE#         709
  C:8A7AH         LINE#         710
  C:8A7AH         LINE#         714
  C:8A8DH         LINE#         737
  C:8A9DH         LINE#         738
  C:8A9DH         LINE#         739
  C:8AA2H         LINE#         740
  C:8AA2H         LINE#         741
  C:8AA4H         LINE#         742
  C:8AA9H         LINE#         743
  C:8AA9H         LINE#         744
  C:8AABH         LINE#         745
  C:8AB7H         LINE#         746
  C:8AC2H         LINE#         747
  C:8AC4H         LINE#         748
  C:8AC4H         LINE#         751
  C:8ACBH         LINE#         752
  C:8AD0H         LINE#         753
  C:8ADBH         LINE#         754
  C:8ADBH         LINE#         755
  C:8ADBH         LINE#         774
  -------         ENDPROC       _BOUND_SET
  C:89F0H         SYMBOL        L?0505
  -------         PROC          _SET_CHANNEL
  X:0409H         SYMBOL        addr
  C:8981H         LINE#         778
  C:8986H         LINE#         779
  C:8986H         LINE#         780
  C:898DH         LINE#         781
  C:8992H         LINE#         782
  C:899DH         LINE#         785
  C:89C3H         LINE#         786
  C:89C3H         LINE#         787
  C:89CDH         LINE#         788
  C:89D7H         LINE#         789
BL51 BANKED LINKER/LOCATER V6.22                                                      11/06/2015  11:37:23  PAGE 100


  C:89E6H         LINE#         790
  C:89E6H         LINE#         791
  C:89E6H         LINE#         792
  C:89E6H         LINE#         793
  C:89EAH         LINE#         794
  C:89ECH         LINE#         795
  C:89EFH         LINE#         796
  C:89EFH         LINE#         797
  C:89EFH         LINE#         799
  C:89EFH         LINE#         801
  -------         ENDPROC       _SET_CHANNEL
  -------         PROC          _ADC_READ
  D:0007H         SYMBOL        sel
  C:A225H         LINE#         807
  C:A225H         LINE#         808
  C:A225H         LINE#         810
  C:A22AH         LINE#         812
  C:A22FH         LINE#         814
  C:A244H         LINE#         816
  -------         ENDPROC       _ADC_READ
  -------         PROC          SEND_CAMERA_VER
  -------         DO            
  X:040AH         SYMBOL        loop
  -------         ENDDO         
  C:9653H         LINE#         820
  C:9653H         LINE#         821
  C:9653H         LINE#         824
  C:9653H         LINE#         825
  C:9653H         LINE#         826
  C:9659H         LINE#         827
  C:9661H         LINE#         828
  C:9669H         LINE#         829
  C:9671H         LINE#         830
  C:9674H         LINE#         831
  C:9674H         LINE#         832
  C:967AH         LINE#         834
  C:968BH         LINE#         835
  C:968BH         LINE#         836
  C:9691H         LINE#         837
  C:9699H         LINE#         838
  -------         ENDPROC       SEND_CAMERA_VER
  C:9F14H         SYMBOL        L?0470
  -------         PROC          GET_CAMERA_VER
  C:9EF6H         LINE#         840
  C:9EF6H         LINE#         841
  C:9EF6H         LINE#         842
  C:9EF8H         LINE#         843
  C:9F00H         LINE#         844
  C:9F02H         LINE#         845
  C:9F0AH         LINE#         846
  C:9F14H         LINE#         847
  -------         ENDPROC       GET_CAMERA_VER
  -------         PROC          SEND_CAMERA_TEMP
  -------         DO            
  X:000CH         SYMBOL        loop
  -------         ENDDO         
  C:9AF6H         LINE#         850
BL51 BANKED LINKER/LOCATER V6.22                                                      11/06/2015  11:37:23  PAGE 101


  C:9AF6H         LINE#         851
  C:9AF6H         LINE#         855
  C:9AF6H         LINE#         856
  C:9AF6H         LINE#         857
  C:9AFBH         LINE#         858
  C:9B03H         LINE#         859
  C:9B06H         LINE#         860
  C:9B06H         LINE#         861
  C:9B09H         LINE#         862
  C:9B09H         LINE#         863
  C:9B0FH         LINE#         865
  C:9B20H         LINE#         866
  C:9B20H         LINE#         867
  C:9B26H         LINE#         868
  C:9B2EH         LINE#         871
  -------         ENDPROC       SEND_CAMERA_TEMP
  -------         PROC          SEND_CAMERA_PRESS
  -------         DO            
  X:000CH         SYMBOL        loop
  -------         ENDDO         
  C:976FH         LINE#         875
  C:976FH         LINE#         876
  C:976FH         LINE#         879
  C:976FH         LINE#         880
  C:976FH         LINE#         881
  C:9774H         LINE#         888
  C:977CH         LINE#         889
  C:9784H         LINE#         890
  C:978CH         LINE#         891
  C:978FH         LINE#         893
  C:978FH         LINE#         894
  C:9795H         LINE#         896
  C:97A6H         LINE#         897
  C:97A6H         LINE#         898
  C:97ACH         LINE#         899
  C:97B4H         LINE#         903
  -------         ENDPROC       SEND_CAMERA_PRESS
  C:9F40H         SYMBOL        L?0471
  -------         PROC          GET_CAMERA_ANG
  C:9F22H         LINE#         906
  C:9F22H         LINE#         907
  C:9F22H         LINE#         908
  C:9F24H         LINE#         909
  C:9F2CH         LINE#         910
  C:9F2EH         LINE#         911
  C:9F36H         LINE#         912
  C:9F40H         LINE#         914
  -------         ENDPROC       GET_CAMERA_ANG
  -------         PROC          SENT_CAMERA_ANG
  -------         DO            
  X:000CH         SYMBOL        loop
  -------         ENDDO         
  C:969AH         LINE#         916
  C:969AH         LINE#         917
  C:969AH         LINE#         921
  C:969AH         LINE#         922
  C:969AH         LINE#         923
BL51 BANKED LINKER/LOCATER V6.22                                                      11/06/2015  11:37:23  PAGE 102


  C:96A0H         LINE#         924
  C:96A8H         LINE#         925
  C:96B0H         LINE#         926
  C:96B8H         LINE#         927
  C:96BBH         LINE#         928
  C:96BBH         LINE#         929
  C:96C1H         LINE#         931
  C:96D2H         LINE#         932
  C:96D2H         LINE#         933
  C:96D8H         LINE#         934
  C:96E0H         LINE#         936
  -------         ENDPROC       SENT_CAMERA_ANG
  C:9F6CH         SYMBOL        L?0472
  -------         PROC          GET_CAMERA_RANG
  C:9F4EH         LINE#         938
  C:9F4EH         LINE#         939
  C:9F4EH         LINE#         940
  C:9F50H         LINE#         941
  C:9F58H         LINE#         942
  C:9F5AH         LINE#         943
  C:9F62H         LINE#         944
  C:9F6CH         LINE#         945
  -------         ENDPROC       GET_CAMERA_RANG
  -------         PROC          SENT_CAMERA_RANG
  -------         DO            
  X:000CH         SYMBOL        loop
  -------         ENDDO         
  C:96E1H         LINE#         947
  C:96E1H         LINE#         948
  C:96E1H         LINE#         952
  C:96E1H         LINE#         953
  C:96E1H         LINE#         954
  C:96E7H         LINE#         955
  C:96EFH         LINE#         956
  C:96F7H         LINE#         957
  C:96FFH         LINE#         958
  C:9702H         LINE#         959
  C:9702H         LINE#         960
  C:9708H         LINE#         962
  C:9719H         LINE#         963
  C:9719H         LINE#         964
  C:971FH         LINE#         965
  C:9727H         LINE#         967
  -------         ENDPROC       SENT_CAMERA_RANG
  C:9877H         SYMBOL        L?0473
  -------         PROC          _GET_CAMERA_IRD
  X:0401H         SYMBOL        sel
  -------         DO            
  X:0402H         SYMBOL        bcc_val
  -------         ENDDO         
  C:9840H         LINE#         970
  C:9845H         LINE#         971
  C:9845H         LINE#         973
  C:9848H         LINE#         975
  C:984BH         LINE#         976
  C:984EH         LINE#         977
  C:9850H         LINE#         978
BL51 BANKED LINKER/LOCATER V6.22                                                      11/06/2015  11:37:23  PAGE 103


  C:9853H         LINE#         982
  C:9855H         LINE#         983
  C:985DH         LINE#         984
  C:986AH         LINE#         985
  C:986CH         LINE#         986
  C:9877H         LINE#         988
  -------         ENDPROC       _GET_CAMERA_IRD
  -------         PROC          _SENT_CAMERA_IRD
  X:000CH         SYMBOL        sel
  -------         DO            
  X:000DH         SYMBOL        loop
  X:000EH         SYMBOL        temp
  -------         ENDDO         
  C:A4E6H         LINE#         989
  C:A4EBH         LINE#         990
  C:A4EBH         LINE#         993
  C:A4F0H         LINE#         995
  -------         ENDPROC       _SENT_CAMERA_IRD
  C:9F98H         SYMBOL        L?0474
  -------         PROC          GET_DVR_TEMP
  C:9F7AH         LINE#         1018
  C:9F7AH         LINE#         1019
  C:9F7AH         LINE#         1020
  C:9F7CH         LINE#         1021
  C:9F84H         LINE#         1022
  C:9F86H         LINE#         1023
  C:9F8EH         LINE#         1024
  C:9F98H         LINE#         1025
  -------         ENDPROC       GET_DVR_TEMP
  -------         PROC          SENT_DVR_TEMP
  -------         DO            
  X:000CH         SYMBOL        loop
  -------         ENDDO         
  C:9ABCH         LINE#         1028
  C:9ABCH         LINE#         1029
  C:9ABCH         LINE#         1032
  C:9ABCH         LINE#         1033
  C:9ABCH         LINE#         1034
  C:9AC2H         LINE#         1035
  C:9ACAH         LINE#         1036
  C:9ACDH         LINE#         1037
  C:9ACDH         LINE#         1038
  C:9AD0H         LINE#         1039
  C:9AD0H         LINE#         1040
  C:9AD6H         LINE#         1042
  C:9AE7H         LINE#         1043
  C:9AE7H         LINE#         1044
  C:9AEDH         LINE#         1045
  C:9AF5H         LINE#         1048
  -------         ENDPROC       SENT_DVR_TEMP
  C:9FC4H         SYMBOL        L?0475
  -------         PROC          GET_DVR_VER
  C:9FA6H         LINE#         1049
  C:9FA6H         LINE#         1050
  C:9FA6H         LINE#         1051
  C:9FA8H         LINE#         1052
  C:9FB0H         LINE#         1053
BL51 BANKED LINKER/LOCATER V6.22                                                      11/06/2015  11:37:23  PAGE 104


  C:9FB2H         LINE#         1054
  C:9FBAH         LINE#         1055
  C:9FC4H         LINE#         1056
  -------         ENDPROC       GET_DVR_VER
  -------         PROC          SENT_DVR_VER
  -------         DO            
  X:040BH         SYMBOL        loop
  -------         ENDDO         
  C:9728H         LINE#         1057
  C:9728H         LINE#         1058
  C:9728H         LINE#         1061
  C:9728H         LINE#         1062
  C:9728H         LINE#         1063
  C:972EH         LINE#         1064
  C:9736H         LINE#         1065
  C:973EH         LINE#         1066
  C:9746H         LINE#         1067
  C:9749H         LINE#         1068
  C:9749H         LINE#         1069
  C:974FH         LINE#         1071
  C:9760H         LINE#         1072
  C:9760H         LINE#         1073
  C:9766H         LINE#         1074
  C:976EH         LINE#         1076
  -------         ENDPROC       SENT_DVR_VER
  C:9FF0H         SYMBOL        L?0476
  -------         PROC          GET_DVR_YEAR
  C:9FD2H         LINE#         1077
  C:9FD2H         LINE#         1078
  C:9FD2H         LINE#         1079
  C:9FD4H         LINE#         1080
  C:9FDCH         LINE#         1081
  C:9FDEH         LINE#         1082
  C:9FE6H         LINE#         1083
  C:9FF0H         LINE#         1084
  -------         ENDPROC       GET_DVR_YEAR
  -------         PROC          SENT_DVR_YEAR
  -------         DO            
  X:040CH         SYMBOL        loop
  -------         ENDDO         
  C:97B5H         LINE#         1086
  C:97B5H         LINE#         1087
  C:97B5H         LINE#         1090
  C:97B5H         LINE#         1091
  C:97B5H         LINE#         1092
  C:97BAH         LINE#         1093
  C:97C2H         LINE#         1094
  C:97CAH         LINE#         1095
  C:97D2H         LINE#         1096
  C:97D5H         LINE#         1097
  C:97D5H         LINE#         1098
  C:97DBH         LINE#         1100
  C:97ECH         LINE#         1101
  C:97ECH         LINE#         1102
  C:97F2H         LINE#         1103
  C:97FAH         LINE#         1106
  -------         ENDPROC       SENT_DVR_YEAR
BL51 BANKED LINKER/LOCATER V6.22                                                      11/06/2015  11:37:23  PAGE 105


  C:A01CH         SYMBOL        L?0477
  -------         PROC          GET_DVR_MD
  C:9FFEH         LINE#         1107
  C:9FFEH         LINE#         1108
  C:9FFEH         LINE#         1109
  C:A000H         LINE#         1110
  C:A008H         LINE#         1111
  C:A00AH         LINE#         1112
  C:A012H         LINE#         1113
  C:A01CH         LINE#         1114
  -------         ENDPROC       GET_DVR_MD
  -------         PROC          SENT_DVR_MDR
  C:A60CH         LINE#         1115
  C:A60CH         LINE#         1116
  -------         ENDPROC       SENT_DVR_MDR
  C:A048H         SYMBOL        L?0478
  -------         PROC          GET_DVR_HS
  C:A02AH         LINE#         1117
  C:A02AH         LINE#         1118
  C:A02AH         LINE#         1119
  C:A02CH         LINE#         1120
  C:A034H         LINE#         1121
  C:A036H         LINE#         1122
  C:A03EH         LINE#         1123
  C:A048H         LINE#         1124
  -------         ENDPROC       GET_DVR_HS
  -------         PROC          SENT_DVR_HS
  C:A60DH         LINE#         1125
  -------         ENDPROC       SENT_DVR_HS
  C:94C4H         SYMBOL        L?0459
  C:94DCH         SYMBOL        L?0489
  -------         PROC          _SET_CAMERA_SPEED
  D:0007H         SYMBOL        val
  C:94A4H         LINE#         1128
  C:94A4H         LINE#         1129
  C:94A4H         LINE#         1130
  C:94AAH         LINE#         1131
  C:94AAH         LINE#         1132
  C:94AAH         LINE#         1133
  C:94ADH         LINE#         1134
  C:94AFH         LINE#         1135
  C:94AFH         LINE#         1136
  C:94B4H         LINE#         1137
  C:94B6H         LINE#         1139
  C:94B6H         LINE#         1140
  C:94B6H         LINE#         1141
  C:94B9H         LINE#         1142
  C:94BBH         LINE#         1143
  C:94BBH         LINE#         1144
  C:94C3H         LINE#         1145
  C:94C3H         LINE#         1151
  -------         ENDPROC       _SET_CAMERA_SPEED
  -------         PROC          GPIO_CHECK
  -------         DO            
  D:0007H         SYMBOL        GPIO_state
  X:0006H         SYMBOL        IO_flag
  X:0007H         SYMBOL        count
BL51 BANKED LINKER/LOCATER V6.22                                                      11/06/2015  11:37:23  PAGE 106


  -------         ENDDO         
  C:8F06H         LINE#         1155
  C:8F06H         LINE#         1156
  C:8F06H         LINE#         1157
  C:8F0FH         LINE#         1159
  C:8F18H         LINE#         1161
  C:8F20H         LINE#         1164
  C:8F20H         LINE#         1165
  C:8F25H         LINE#         1166
  C:8F2CH         LINE#         1167
  C:8F2CH         LINE#         1168
  C:8F2FH         LINE#         1169
  C:8F33H         LINE#         1170
  C:8F35H         LINE#         1171
  C:8F35H         LINE#         1172
  C:8F46H         LINE#         1173
  C:8F46H         LINE#         1175
  C:8F46H         LINE#         1176
  C:8F46H         LINE#         1177
  C:8F46H         LINE#         1178
  C:8F48H         LINE#         1179
  C:8F4BH         LINE#         1180
  C:8F4BH         LINE#         1181
  C:8F4DH         LINE#         1182
  C:8F4DH         LINE#         1183
  C:8F50H         LINE#         1184
  C:8F53H         LINE#         1185
  C:8F55H         LINE#         1186
  C:8F55H         LINE#         1187
  C:8F58H         LINE#         1188
  C:8F5BH         LINE#         1189
  C:8F5DH         LINE#         1190
  C:8F60H         LINE#         1191
  C:8F63H         LINE#         1192
  C:8F63H         LINE#         1193
  C:8F63H         LINE#         1196
  C:8F68H         LINE#         1202
  -------         ENDPROC       GPIO_CHECK
  -------         PROC          _POWER_ONOFF
  D:0007H         SYMBOL        sel
  C:A49AH         LINE#         1205
  C:A49AH         LINE#         1206
  C:A49AH         LINE#         1208
  C:A49FH         LINE#         1209
  C:A4A1H         LINE#         1210
  C:A4A3H         LINE#         1211
  -------         ENDPROC       _POWER_ONOFF
  -------         PROC          SC16_INIT
  -------         DO            
  X:0006H         SYMBOL        Dev_ID
  -------         ENDDO         
  C:8901H         LINE#         1218
  C:8901H         LINE#         1219
  C:8901H         LINE#         1223
  C:8903H         LINE#         1224
  C:890AH         LINE#         1225
  C:890CH         LINE#         1226
BL51 BANKED LINKER/LOCATER V6.22                                                      11/06/2015  11:37:23  PAGE 107


  C:8913H         LINE#         1229
  C:8922H         LINE#         1230
  C:8922H         LINE#         1231
  C:892BH         LINE#         1232
  C:8942H         LINE#         1233
  C:8955H         LINE#         1234
  C:8962H         LINE#         1235
  C:896AH         LINE#         1242
  C:8974H         LINE#         1243
  C:897EH         LINE#         1244
  C:8980H         LINE#         1245
  -------         ENDPROC       SC16_INIT
  -------         PROC          _SC16_SENDDATA
  X:000CH         SYMBOL        val
  -------         DO            
  X:000DH         SYMBOL        error
  -------         ENDDO         
  C:A1E4H         LINE#         1247
  C:A1EAH         LINE#         1248
  C:A1EAH         LINE#         1249
  C:A1EDH         LINE#         1261
  C:A1F5H         LINE#         1262
  C:A202H         LINE#         1269
  C:A204H         LINE#         1271
  -------         ENDPROC       _SC16_SENDDATA
  C:6081H         SYMBOL        L?0484
  -------         PROC          _SC16_SENDDATASELECT
  X:0009H         SYMBOL        addr
  -------         DO            
  X:000AH         SYMBOL        loop
  X:000BH         SYMBOL        Error
  X:000CH         SYMBOL        count
  X:000DH         SYMBOL        data_temp
  X:000EH         SYMBOL        buff_flag
  X:000FH         SYMBOL        loop_temp
  X:0010H         SYMBOL        error_flag
  X:0011H         SYMBOL        etx_flag
  -------         ENDDO         
  C:5EB4H         LINE#         1274
  C:5EB7H         LINE#         1275
  C:5EB7H         LINE#         1277
  C:5EBCH         LINE#         1279
  C:5EC2H         LINE#         1280
  C:5EC5H         LINE#         1281
  C:5EC7H         LINE#         1316
  C:5ED6H         LINE#         1317
  C:5ED6H         LINE#         1318
  C:5EE3H         LINE#         1321
  C:5EE8H         LINE#         1333
  C:5EF3H         LINE#         1335
  C:5EFBH         LINE#         1336
  C:5EFBH         LINE#         1337
  C:5F03H         LINE#         1346
  C:5F06H         LINE#         1347
  C:5F11H         LINE#         1349
  C:5F25H         LINE#         1350
  C:5F25H         LINE#         1352
BL51 BANKED LINKER/LOCATER V6.22                                                      11/06/2015  11:37:23  PAGE 108


  C:5F2BH         LINE#         1354
  C:5F31H         LINE#         1355
  C:5F42H         LINE#         1356
  C:5F42H         LINE#         1358
  C:5F4EH         LINE#         1359
  C:5F4EH         LINE#         1360
  C:5F54H         LINE#         1362
  C:5F54H         LINE#         1364
  C:5F66H         LINE#         1368
  C:5F86H         LINE#         1369
  C:5F86H         LINE#         1370
  C:5F89H         LINE#         1375
  C:5F8BH         LINE#         1376
  C:5F8FH         LINE#         1377
  C:5F8FH         LINE#         1378
  C:5F94H         LINE#         1379
  C:5FA5H         LINE#         1380
  C:5FAAH         LINE#         1382
  C:5FAAH         LINE#         1395
  C:5FADH         LINE#         1397
  C:5FB0H         LINE#         1400
  C:5FB9H         LINE#         1402
  C:5FC2H         LINE#         1403
  C:5FC2H         LINE#         1406
  C:5FCDH         LINE#         1407
  C:5FCDH         LINE#         1410
  C:5FD0H         LINE#         1415
  C:5FD5H         LINE#         1417
  C:5FD8H         LINE#         1418
  C:5FD8H         LINE#         1419
  C:5FE5H         LINE#         1420
  C:5FE5H         LINE#         1424
  C:5FF0H         LINE#         1425
  C:5FF0H         LINE#         1428
  C:5FF3H         LINE#         1433
  C:5FF8H         LINE#         1434
  C:5FFBH         LINE#         1435
  C:5FFBH         LINE#         1439
  C:600DH         LINE#         1440
  C:600DH         LINE#         1441
  C:6010H         LINE#         1442
  C:6010H         LINE#         1444
  C:6016H         LINE#         1445
  C:6016H         LINE#         1447
  C:601EH         LINE#         1449
  C:602BH         LINE#         1450
  C:6040H         LINE#         1452
  C:604CH         LINE#         1453
  C:604CH         LINE#         1456
  C:605FH         LINE#         1457
  C:605FH         LINE#         1460
  C:606AH         LINE#         1468
  C:6070H         LINE#         1469
  C:6075H         LINE#         1470
  C:6075H         LINE#         1474
  C:6078H         LINE#         1475
  C:6078H         LINE#         1477
BL51 BANKED LINKER/LOCATER V6.22                                                      11/06/2015  11:37:23  PAGE 109


  C:607BH         LINE#         1478
  C:607BH         LINE#         1480
  C:607BH         LINE#         1506
  C:607BH         LINE#         1531
  C:607BH         LINE#         1572
  C:6080H         LINE#         1574
  -------         ENDPROC       _SC16_SENDDATASELECT
  -------         PROC          _COMMAND_CHECK
  X:040DH         SYMBOL        val
  C:A5ECH         LINE#         1576
  C:A5F1H         LINE#         1577
  C:A5F1H         LINE#         1580
  -------         ENDPROC       _COMMAND_CHECK
  C:9DAAH         SYMBOL        L?0494
  -------         PROC          REPEAT_PWM_COM
  C:9D80H         LINE#         1582
  C:9D80H         LINE#         1583
  C:9D80H         LINE#         1584
  C:9D86H         LINE#         1585
  C:9D8CH         LINE#         1586
  C:9D96H         LINE#         1587
  C:9DA0H         LINE#         1588
  C:9DAAH         LINE#         1591
  -------         ENDPROC       REPEAT_PWM_COM
  -------         PROC          SC16_DATACHECK
  -------         DO            
  X:0006H         SYMBOL        Dev_ID
  X:0007H         SYMBOL        Error
  X:0008H         SYMBOL        count
  -------         ENDDO         
  C:9DB2H         LINE#         1595
  C:9DB2H         LINE#         1596
  C:9DB2H         LINE#         1598
  C:9DBBH         LINE#         1655
  C:9DC1H         LINE#         1656
  C:9DC1H         LINE#         1657
  C:9DC5H         LINE#         1659
  C:9DCBH         LINE#         1660
  C:9DCDH         LINE#         1661
  C:9DD4H         LINE#         1662
  C:9DD4H         LINE#         1663
  C:9DD9H         LINE#         1665
  C:9DDEH         LINE#         1666
  C:9DDEH         LINE#         1674
  C:9DE3H         LINE#         1675
  -------         ENDPROC       SC16_DATACHECK
  -------         PROC          _SC16_DATA_RESET
  D:0006H         SYMBOL        sel
  C:990CH         LINE#         1678
  C:990CH         LINE#         1679
  C:990CH         LINE#         1693
  C:9918H         LINE#         1695
  C:993AH         LINE#         1696
  C:993AH         LINE#         1697
  C:993DH         LINE#         1698
  C:9940H         LINE#         1699
  C:9943H         LINE#         1700
BL51 BANKED LINKER/LOCATER V6.22                                                      11/06/2015  11:37:23  PAGE 110


  C:9946H         LINE#         1701
  C:9946H         LINE#         1702
  C:9946H         LINE#         1703
  C:9946H         LINE#         1704
  C:9946H         LINE#         1705
  C:9946H         LINE#         1706
  C:9946H         LINE#         1707
  C:9946H         LINE#         1708
  C:9949H         LINE#         1709
  C:994CH         LINE#         1715
  C:994CH         LINE#         1716
  C:994CH         LINE#         1719
  -------         ENDPROC       _SC16_DATA_RESET
  C:859EH         SYMBOL        L?0479
  -------         PROC          CAMERA_MOVE
  -------         DO            
  X:0006H         SYMBOL        mask
  X:000AH         SYMBOL        cam
  X:000EH         SYMBOL        BCC
  X:0012H         SYMBOL        loop
  -------         ENDDO         
  C:8513H         LINE#         1722
  C:8513H         LINE#         1723
  C:8513H         LINE#         1724
  C:851EH         LINE#         1725
  C:8529H         LINE#         1726
  C:8538H         LINE#         1729
  C:8547H         LINE#         1730
  C:8547H         LINE#         1731
  C:855DH         LINE#         1732
  C:855DH         LINE#         1733
  C:855FH         LINE#         1734
  C:8567H         LINE#         1735
  C:857EH         LINE#         1736
  C:8580H         LINE#         1737
  C:8595H         LINE#         1738
  C:8595H         LINE#         1739
  C:859DH         LINE#         1742
  -------         ENDPROC       CAMERA_MOVE
  -------         PROC          _CHECK_STARTUP
  X:03E7H         SYMBOL        addr
  -------         DO            
  X:03E8H         SYMBOL        loop
  X:03E9H         SYMBOL        Error
  X:03EAH         SYMBOL        count
  D:0001H         SYMBOL        data_temp
  -------         ENDDO         
  C:85ACH         LINE#         1745
  C:85AFH         LINE#         1746
  C:85AFH         LINE#         1748
  C:85B3H         LINE#         1751
  C:85C5H         LINE#         1752
  C:85C5H         LINE#         1753
  C:85D5H         LINE#         1755
  C:85DDH         LINE#         1764
  C:85F0H         LINE#         1765
  C:85F0H         LINE#         1766
BL51 BANKED LINKER/LOCATER V6.22                                                      11/06/2015  11:37:23  PAGE 111


  C:85FBH         LINE#         1768
  C:8602H         LINE#         1769
  C:8602H         LINE#         1770
  C:8611H         LINE#         1771
  C:8611H         LINE#         1772
  C:8619H         LINE#         1776
  C:861BH         LINE#         1777
  C:861FH         LINE#         1778
  C:861FH         LINE#         1779
  C:8630H         LINE#         1780
  C:8630H         LINE#         1781
  C:863BH         LINE#         1785
  C:863BH         LINE#         1788
  C:8643H         LINE#         1790
  C:8643H         LINE#         1793
  -------         ENDPROC       _CHECK_STARTUP
  -------         PROC          _SC16_COMCHECK
  D:0001H         SYMBOL        addr
  -------         DO            
  X:0012H         SYMBOL        pos
  X:0013H         SYMBOL        temp
  -------         ENDDO         
  C:827AH         LINE#         1798
  C:827AH         LINE#         1799
  C:827AH         LINE#         1802
  C:8281H         LINE#         1803
  C:8282H         LINE#         1804
  C:8290H         LINE#         1805
  C:8290H         LINE#         1806
  C:8290H         LINE#         1807
  C:8290H         LINE#         1808
  C:8298H         LINE#         1809
  C:8298H         LINE#         1810
  C:8299H         LINE#         1811
  C:829FH         LINE#         1812
  C:829FH         LINE#         1813
  C:82A5H         LINE#         1814
  C:82A5H         LINE#         1815
  C:82ABH         LINE#         1816
  C:82ABH         LINE#         1817
  C:82B2H         LINE#         1818
  C:82B8H         LINE#         1819
  C:82BBH         LINE#         1820
  C:82BBH         LINE#         1821
  C:82C0H         LINE#         1822
  C:82C0H         LINE#         1823
  C:82C1H         LINE#         1824
  C:82C7H         LINE#         1825
  C:82C7H         LINE#         1826
  C:82CDH         LINE#         1827
  C:82CDH         LINE#         1828
  C:82D3H         LINE#         1829
  C:82D3H         LINE#         1830
  C:82DAH         LINE#         1831
  C:82E0H         LINE#         1832
  C:82E2H         LINE#         1833
  C:82E2H         LINE#         1852
BL51 BANKED LINKER/LOCATER V6.22                                                      11/06/2015  11:37:23  PAGE 112


  C:82E9H         LINE#         1853
  C:82E9H         LINE#         1854
  C:82EAH         LINE#         1855
  C:82F0H         LINE#         1856
  C:82F0H         LINE#         1857
  C:82F6H         LINE#         1858
  C:82F6H         LINE#         1859
  C:82FDH         LINE#         1860
  C:8303H         LINE#         1861
  C:8305H         LINE#         1862
  C:8305H         LINE#         1865
  C:8305H         LINE#         1866
  C:8305H         LINE#         1867
  C:8305H         LINE#         1868
  C:830CH         LINE#         1869
  C:830CH         LINE#         1870
  C:830DH         LINE#         1871
  C:8313H         LINE#         1872
  C:8313H         LINE#         1873
  C:831AH         LINE#         1874
  C:8321H         LINE#         1875
  C:8324H         LINE#         1876
  C:8324H         LINE#         1877
  C:8324H         LINE#         1897
  C:8324H         LINE#         1898
  C:8326H         LINE#         1899
  C:8326H         LINE#         1900
  C:8326H         LINE#         1928
  -------         ENDPROC       _SC16_COMCHECK
  -------         PROC          _BCC_CAL
  D:0001H         SYMBOL        addr
  X:000DH         SYMBOL        count
  -------         DO            
  D:0007H         SYMBOL        f_val
  X:000EH         SYMBOL        s_val
  D:0006H         SYMBOL        loop
  -------         ENDDO         
  C:A081H         LINE#         1932
  C:A086H         LINE#         1933
  C:A086H         LINE#         1934
  C:A088H         LINE#         1935
  C:A08AH         LINE#         1936
  C:A08BH         LINE#         1937
  C:A091H         LINE#         1939
  C:A09BH         LINE#         1940
  C:A09BH         LINE#         1943
  C:A0A0H         LINE#         1944
  C:A0A7H         LINE#         1945
  C:A0AAH         LINE#         1946
  C:A0AAH         LINE#         1978
  -------         ENDPROC       _BCC_CAL
  -------         PROC          _GET_DATA
  D:0007H         SYMBOL        addr
  X:040EH         SYMBOL        val
  C:8D07H         LINE#         1981
  C:8D0CH         LINE#         1982
  C:8D0CH         LINE#         1984
BL51 BANKED LINKER/LOCATER V6.22                                                      11/06/2015  11:37:23  PAGE 113


  C:8D39H         LINE#         1985
  C:8D39H         LINE#         1986
  C:8D3EH         LINE#         1987
  C:8D43H         LINE#         1988
  C:8D48H         LINE#         1989
  C:8D4DH         LINE#         1990
  C:8D5AH         LINE#         1991
  C:8D5FH         LINE#         1992
  C:8D64H         LINE#         1993
  C:8D6CH         LINE#         1994
  C:8D6CH         LINE#         1995
  C:8D6CH         LINE#         1996
  C:8D6FH         LINE#         1997
  -------         ENDPROC       _GET_DATA
  C:625CH         SYMBOL        L?0506
  -------         PROC          _SC16_BCC_CHECK
  D:0001H         SYMBOL        addr
  X:0006H         SYMBOL        sum
  -------         DO            
  X:0007H         SYMBOL        loop
  X:0008H         SYMBOL        f_val
  X:0009H         SYMBOL        s_val
  X:000AH         SYMBOL        com
  -------         ENDDO         
  C:608DH         LINE#         2004
  C:6092H         LINE#         2005
  C:6092H         LINE#         2007
  C:6097H         LINE#         2008
  C:6099H         LINE#         2021
  C:609CH         LINE#         2022
  C:609CH         LINE#         2023
  C:60A2H         LINE#         2024
  C:60A2H         LINE#         2025
  C:60A2H         LINE#         2026
  C:60A8H         LINE#         2027
  C:60A8H         LINE#         2028
  C:60A8H         LINE#         2029
  C:60B0H         LINE#         2032
  C:60B8H         LINE#         2033
  C:60B8H         LINE#         2034
  C:60BAH         LINE#         2035
  C:60C5H         LINE#         2036
  C:60C5H         LINE#         2037
  C:60C9H         LINE#         2038
  C:60D0H         LINE#         2039
  C:60D0H         LINE#         2040
  C:60D1H         LINE#         2041
  C:60DBH         LINE#         2042
  C:60DBH         LINE#         2043
  C:60DEH         LINE#         2044
  C:60DEH         LINE#         2045
  C:60E1H         LINE#         2046
  C:60E1H         LINE#         2047
  C:60E9H         LINE#         2049
  C:60E9H         LINE#         2051
  C:60E9H         LINE#         2056
  C:60F7H         LINE#         2057
BL51 BANKED LINKER/LOCATER V6.22                                                      11/06/2015  11:37:23  PAGE 114


  C:60F7H         LINE#         2058
  C:6117H         LINE#         2059
  C:6117H         LINE#         2060
  C:611CH         LINE#         2061
  C:6124H         LINE#         2062
  C:612CH         LINE#         2063
  C:6131H         LINE#         2064
  C:6139H         LINE#         2068
  C:6144H         LINE#         2069
  C:6144H         LINE#         2070
  C:614BH         LINE#         2071
  C:6151H         LINE#         2072
  C:6157H         LINE#         2073
  C:615EH         LINE#         2074
  C:6168H         LINE#         2075
  C:6168H         LINE#         2078
  C:616BH         LINE#         2079
  C:6180H         LINE#         2080
  C:6180H         LINE#         2081
  C:6185H         LINE#         2082
  C:6188H         LINE#         2084
  C:6194H         LINE#         2085
  C:6194H         LINE#         2086
  C:6197H         LINE#         2090
  C:619AH         LINE#         2091
  C:61A6H         LINE#         2092
  C:61A6H         LINE#         2093
  C:61A9H         LINE#         2097
  C:61ACH         LINE#         2098
  C:61B8H         LINE#         2099
  C:61B8H         LINE#         2100
  C:61BBH         LINE#         2104
  C:61BEH         LINE#         2105
  C:61CAH         LINE#         2106
  C:61CAH         LINE#         2107
  C:61CDH         LINE#         2111
  C:61D0H         LINE#         2113
  C:61E5H         LINE#         2114
  C:61E5H         LINE#         2115
  C:61EAH         LINE#         2120
  C:61ECH         LINE#         2122
  C:61F8H         LINE#         2123
  C:61F8H         LINE#         2124
  C:61FBH         LINE#         2128
  C:61FDH         LINE#         2129
  C:6209H         LINE#         2130
  C:6209H         LINE#         2131
  C:620CH         LINE#         2135
  C:620EH         LINE#         2136
  C:621AH         LINE#         2137
  C:621AH         LINE#         2138
  C:621DH         LINE#         2142
  C:621FH         LINE#         2156
  C:621FH         LINE#         2162
  C:6225H         LINE#         2163
  C:6225H         LINE#         2165
  C:6238H         LINE#         2166
BL51 BANKED LINKER/LOCATER V6.22                                                      11/06/2015  11:37:23  PAGE 115


  C:6249H         LINE#         2176
  C:6249H         LINE#         2178
  C:6249H         LINE#         2179
  C:624EH         LINE#         2184
  C:624EH         LINE#         2187
  C:6251H         LINE#         2188
  C:6251H         LINE#         2193
  C:6254H         LINE#         2195
  C:6254H         LINE#         2197
  C:6254H         LINE#         2198
  C:6259H         LINE#         2202
  C:625BH         LINE#         2203
  C:625BH         LINE#         2207
  -------         ENDPROC       _SC16_BCC_CHECK
  -------         PROC          CHECK_OTHER_COM
  C:8644H         LINE#         2211
  C:8644H         LINE#         2212
  C:8644H         LINE#         2214
  C:864CH         LINE#         2215
  C:864CH         LINE#         2216
  C:864FH         LINE#         2217
  C:864FH         LINE#         2221
  C:8667H         LINE#         2223
  C:866BH         LINE#         2224
  C:866BH         LINE#         2225
  C:8673H         LINE#         2226
  C:8673H         LINE#         2227
  C:8675H         LINE#         2228
  C:867CH         LINE#         2229
  C:867CH         LINE#         2230
  C:8685H         LINE#         2231
  C:868AH         LINE#         2232
  C:868CH         LINE#         2234
  C:8691H         LINE#         2237
  C:8691H         LINE#         2238
  C:8693H         LINE#         2239
  C:8693H         LINE#         2241
  C:86A9H         LINE#         2243
  C:86ADH         LINE#         2244
  C:86ADH         LINE#         2245
  C:86B5H         LINE#         2246
  C:86B5H         LINE#         2247
  C:86B7H         LINE#         2248
  C:86BEH         LINE#         2249
  C:86BEH         LINE#         2250
  C:86C7H         LINE#         2251
  C:86CCH         LINE#         2252
  C:86CCH         LINE#         2254
  C:86CCH         LINE#         2255
  C:86CEH         LINE#         2256
  C:86CEH         LINE#         2259
  C:86D1H         LINE#         2261
  C:86D1H         LINE#         2262
  C:86D1H         LINE#         2263
  C:86D1H         LINE#         2264
  C:86D1H         LINE#         2267
  C:86D1H         LINE#         2269
BL51 BANKED LINKER/LOCATER V6.22                                                      11/06/2015  11:37:23  PAGE 116


  C:86D1H         LINE#         2274
  C:86D1H         LINE#         2277
  C:86D1H         LINE#         2279
  C:86D1H         LINE#         2281
  C:86D1H         LINE#         2283
  C:86D1H         LINE#         2289
  C:86D1H         LINE#         2292
  C:86D1H         LINE#         2294
  C:86D1H         LINE#         2297
  C:86D1H         LINE#         2299
  C:86D7H         LINE#         2303
  -------         ENDPROC       CHECK_OTHER_COM
  -------         PROC          _PARITY
  D:0007H         SYMBOL        ino
  -------         DO            
  D:0006H         SYMBOL        noofones
  D:0005H         SYMBOL        mask
  -------         ENDDO         
  C:A39FH         LINE#         2325
  C:A39FH         LINE#         2326
  C:A39FH         LINE#         2327
  C:A3A1H         LINE#         2330
  C:A3A3H         LINE#         2332
  C:A3A6H         LINE#         2333
  C:A3A6H         LINE#         2334
  C:A3A9H         LINE#         2335
  C:A3A9H         LINE#         2336
  C:A3AAH         LINE#         2337
  C:A3AAH         LINE#         2338
  C:A3AEH         LINE#         2339
  C:A3B0H         LINE#         2342
  C:A3B4H         LINE#         2345
  -------         ENDPROC       _PARITY
  -------         PROC          ADT75_INIT
  -------         DO            
  X:03FAH         SYMBOL        Ctemp
  X:03FBH         SYMBOL        Dtemp
  -------         ENDDO         
  C:A0D5H         LINE#         2356
  C:A0D5H         LINE#         2357
  C:A0D5H         LINE#         2359
  C:A0DAH         LINE#         2360
  C:A0DEH         LINE#         2365
  C:A0E9H         LINE#         2366
  C:A0F2H         LINE#         2367
  C:A0FBH         LINE#         2379
  C:A0FDH         LINE#         2381
  -------         ENDPROC       ADT75_INIT
  -------         PROC          _RESETDEVICE
  D:0001H         SYMBOL        addr
  -------         DO            
  D:0006H         SYMBOL        temp
  -------         ENDDO         
  C:A4F5H         LINE#         2384
  C:A4F5H         LINE#         2385
  C:A4F5H         LINE#         2387
  C:A4F8H         LINE#         2388
BL51 BANKED LINKER/LOCATER V6.22                                                      11/06/2015  11:37:23  PAGE 117


  C:A4FCH         LINE#         2389
  -------         ENDPROC       _RESETDEVICE
  -------         PROC          _SETBAUDRATE
  X:0007H         SYMBOL        addr
  X:0008H         SYMBOL        baudrate
  -------         DO            
  X:000CH         SYMBOL        divisor
  X:0010H         SYMBOL        prescaler
  D:0001H         SYMBOL        temp_lcr
  -------         ENDDO         
  C:8052H         LINE#         2399
  C:8057H         LINE#         2400
  C:8057H         LINE#         2416
  C:8063H         LINE#         2417
  C:8066H         LINE#         2418
  C:8068H         LINE#         2419
  C:806BH         LINE#         2420
  C:806BH         LINE#         2424
  C:80B5H         LINE#         2436
  C:80C1H         LINE#         2438
  C:80CAH         LINE#         2440
  C:80CDH         LINE#         2442
  C:80D0H         LINE#         2444
  C:80E2H         LINE#         2446
  C:8101H         LINE#         2453
  C:8104H         LINE#         2454
  C:8107H         LINE#         2456
  C:810BH         LINE#         2473
  -------         ENDPROC       _SETBAUDRATE
  -------         PROC          _SETLINE
  D:0001H         SYMBOL        addr
  X:0008H         SYMBOL        data_length
  X:0009H         SYMBOL        parity_select
  X:000AH         SYMBOL        stop_length
  -------         DO            
  D:0006H         SYMBOL        temp_lcr
  -------         ENDDO         
  C:8DD7H         LINE#         2475
  C:8DDFH         LINE#         2476
  C:8DDFH         LINE#         2478
  C:8DE4H         LINE#         2479
  C:8DE8H         LINE#         2484
  C:8DFBH         LINE#         2485
  C:8DFBH         LINE#         2486
  C:8DFBH         LINE#         2487
  C:8DFBH         LINE#         2488
  C:8DFFH         LINE#         2489
  C:8E01H         LINE#         2490
  C:8E01H         LINE#         2491
  C:8E05H         LINE#         2492
  C:8E07H         LINE#         2493
  C:8E07H         LINE#         2496
  C:8E07H         LINE#         2497
  C:8E0BH         LINE#         2498
  C:8E0BH         LINE#         2499
  C:8E0BH         LINE#         2501
  C:8E12H         LINE#         2502
BL51 BANKED LINKER/LOCATER V6.22                                                      11/06/2015  11:37:23  PAGE 118


  C:8E16H         LINE#         2503
  C:8E16H         LINE#         2505
  C:8E25H         LINE#         2506
  C:8E25H         LINE#         2507
  C:8E25H         LINE#         2508
  C:8E25H         LINE#         2509
  C:8E29H         LINE#         2510
  C:8E2BH         LINE#         2511
  C:8E2BH         LINE#         2512
  C:8E2FH         LINE#         2513
  C:8E31H         LINE#         2514
  C:8E31H         LINE#         2515
  C:8E35H         LINE#         2516
  C:8E35H         LINE#         2517
  C:8E35H         LINE#         2518
  C:8E35H         LINE#         2519
  C:8E35H         LINE#         2520
  C:8E35H         LINE#         2521
  C:8E35H         LINE#         2523
  -------         ENDPROC       _SETLINE
  -------         PROC          _GPIOSETPORTMODE
  D:0007H         SYMBOL        addr
  D:0005H         SYMBOL        port_io
  C:A5ACH         LINE#         2571
  C:A5ACH         LINE#         2572
  C:A5ACH         LINE#         2574
  -------         ENDPROC       _GPIOSETPORTMODE
  -------         PROC          _GPIOSETPORTSTATE
  D:0007H         SYMBOL        addr
  D:0005H         SYMBOL        port_state
  C:A5B5H         LINE#         2579
  C:A5B5H         LINE#         2580
  C:A5B5H         LINE#         2581
  -------         ENDPROC       _GPIOSETPORTSTATE
  -------         PROC          _GPIOGETPORTSTATE
  D:0007H         SYMBOL        addr
  C:A5F2H         LINE#         2584
  C:A5F2H         LINE#         2585
  C:A5F2H         LINE#         2590
  C:A5F7H         LINE#         2592
  -------         ENDPROC       _GPIOGETPORTSTATE
  -------         PROC          _FIFOAVAILABLEDATA
  D:0007H         SYMBOL        addr
  C:A5F8H         LINE#         2594
  C:A5F8H         LINE#         2595
  C:A5F8H         LINE#         2600
  C:A5FDH         LINE#         2601
  -------         ENDPROC       _FIFOAVAILABLEDATA
  -------         PROC          _FIFOAVAILABLESPACE
  D:0007H         SYMBOL        addr
  C:A5FEH         LINE#         2603
  C:A5FEH         LINE#         2604
  C:A5FEH         LINE#         2610
  C:A603H         LINE#         2612
  -------         ENDPROC       _FIFOAVAILABLESPACE
  -------         PROC          _ENABLETRANSMIT
  D:0001H         SYMBOL        addr
BL51 BANKED LINKER/LOCATER V6.22                                                      11/06/2015  11:37:23  PAGE 119


  X:040FH         SYMBOL        OnOff
  -------         DO            
  D:0006H         SYMBOL        temp_efcr
  -------         ENDDO         
  C:A283H         LINE#         2614
  C:A288H         LINE#         2615
  C:A288H         LINE#         2617
  C:A28BH         LINE#         2618
  C:A28EH         LINE#         2619
  C:A292H         LINE#         2620
  C:A294H         LINE#         2621
  C:A298H         LINE#         2622
  C:A298H         LINE#         2623
  -------         ENDPROC       _ENABLETRANSMIT
  -------         PROC          _FLUSH
  D:0001H         SYMBOL        addr
  -------         DO            
  D:0007H         SYMBOL        tmp_lsr
  -------         ENDDO         
  C:A569H         LINE#         2629
  C:A56BH         LINE#         2630
  C:A56BH         LINE#         2633
  C:A56BH         LINE#         2638
  C:A56DH         LINE#         2640
  C:A573H         LINE#         2643
  -------         ENDPROC       _FLUSH
  -------         PROC          _PING
  D:0001H         SYMBOL        addr
  C:A264H         LINE#         2646
  C:A266H         LINE#         2647
  C:A266H         LINE#         2649
  C:A268H         LINE#         2651
  C:A26FH         LINE#         2655
  C:A272H         LINE#         2656
  C:A272H         LINE#         2658
  C:A276H         LINE#         2660
  C:A27DH         LINE#         2664
  C:A280H         LINE#         2665
  C:A280H         LINE#         2671
  C:A282H         LINE#         2673
  -------         ENDPROC       _PING
  -------         PROC          _WRITEBYTE
  D:0007H         SYMBOL        addr
  D:0005H         SYMBOL        val
  C:A5BEH         LINE#         2678
  C:A5BEH         LINE#         2679
  C:A5BEH         LINE#         2701
  -------         ENDPROC       _WRITEBYTE
  -------         PROC          _READBYTE
  D:0007H         SYMBOL        addr
  -------         DO            
  X:0012H         SYMBOL        val
  -------         ENDDO         
  C:A53AH         LINE#         2707
  C:A53AH         LINE#         2708
  C:A53AH         LINE#         2711
  C:A544H         LINE#         2712
BL51 BANKED LINKER/LOCATER V6.22                                                      11/06/2015  11:37:23  PAGE 120


  C:A546H         LINE#         2738
  -------         ENDPROC       _READBYTE
  -------         PROC          _TW2835_GET
  X:03D0H         SYMBOL        page
  X:03D1H         SYMBOL        start
  X:03D2H         SYMBOL        count
  -------         DO            
  X:03D3H         SYMBOL        x
  X:03D4H         SYMBOL        loop
  X:03D5H         SYMBOL        step
  D:0006H         SYMBOL        val
  -------         ENDDO         
  C:83D1H         LINE#         2740
  C:83DCH         LINE#         2741
  C:83DCH         LINE#         2742
  C:83E3H         LINE#         2743
  C:83E4H         LINE#         2746
  C:83E5H         LINE#         2747
  C:83E5H         LINE#         2772
  C:83E6H         LINE#         2773
  C:83E6H         LINE#         2774
  C:83EAH         LINE#         2775
  C:83EAH         LINE#         2777
  C:841FH         LINE#         2778
  C:843BH         LINE#         2779
  C:8442H         LINE#         2780
  C:8445H         LINE#         2781
  C:8451H         LINE#         2782
  C:8460H         LINE#         2783
  -------         ENDPROC       _TW2835_GET
  -------         PROC          _PEEK
  X:0410H         SYMBOL        addr
  C:A574H         LINE#         2812
  C:A579H         LINE#         2813
  C:A579H         LINE#         2822
  C:A57DH         LINE#         2824
  -------         ENDPROC       _PEEK
  -------         PROC          _SET_INT
  X:0411H         SYMBOL        addr
  C:A35BH         LINE#         2827
  C:A360H         LINE#         2828
  C:A360H         LINE#         2831
  C:A362H         LINE#         2832
  C:A364H         LINE#         2833
  C:A366H         LINE#         2835
  C:A368H         LINE#         2836
  C:A36AH         LINE#         2837
  C:A36CH         LINE#         2839
  C:A36EH         LINE#         2840
  C:A370H         LINE#         2841
  C:A372H         LINE#         2842
  -------         ENDPROC       _SET_INT
  -------         PROC          MCTRL_SET
  C:A5C7H         LINE#         2845
  C:A5C7H         LINE#         2846
  C:A5C7H         LINE#         2849
  C:A5C9H         LINE#         2850
BL51 BANKED LINKER/LOCATER V6.22                                                      11/06/2015  11:37:23  PAGE 121


  C:A5CBH         LINE#         2851
  C:A5CDH         LINE#         2852
  C:A5CFH         LINE#         2853
  -------         ENDPROC       MCTRL_SET
  -------         ENDMOD        NED

  -------         MODULE        ?C?COPY
  C:2668H         PUBLIC        ?C?COPY
  -------         ENDMOD        ?C?COPY

  -------         MODULE        ?C?CLDPTR
  C:268EH         PUBLIC        ?C?CLDPTR
  -------         ENDMOD        ?C?CLDPTR

  -------         MODULE        ?C?CLDOPTR
  C:26A7H         PUBLIC        ?C?CLDOPTR
  -------         ENDMOD        ?C?CLDOPTR

  -------         MODULE        ?C?CSTPTR
  C:26D4H         PUBLIC        ?C?CSTPTR
  -------         ENDMOD        ?C?CSTPTR

  -------         MODULE        ?C?IMUL
  C:26E6H         PUBLIC        ?C?IMUL
  -------         ENDMOD        ?C?IMUL

  -------         MODULE        ?C?UIDIV
  C:26F8H         PUBLIC        ?C?UIDIV
  -------         ENDMOD        ?C?UIDIV

  -------         MODULE        ?C?IILDX
  C:274DH         PUBLIC        ?C?IILDX
  -------         ENDMOD        ?C?IILDX

  -------         MODULE        ?C?ILDIX
  C:2763H         PUBLIC        ?C?ILDIX
  -------         ENDMOD        ?C?ILDIX

  -------         MODULE        ?C?ILDPTR
  C:2779H         PUBLIC        ?C?ILDPTR
  -------         ENDMOD        ?C?ILDPTR

  -------         MODULE        ?C?IILDOPTR
  C:27A4H         PUBLIC        ?C?IILDOPTR
  -------         ENDMOD        ?C?IILDOPTR

  -------         MODULE        ?C?LMUL
  C:27F1H         PUBLIC        ?C?LMUL
  -------         ENDMOD        ?C?LMUL

  -------         MODULE        ?C?ULDIV
  C:287CH         PUBLIC        ?C?ULDIV
  -------         ENDMOD        ?C?ULDIV

  -------         MODULE        ?C?SLDIV
  C:9885H         PUBLIC        ?C?SLDIV
  -------         ENDMOD        ?C?SLDIV
BL51 BANKED LINKER/LOCATER V6.22                                                      11/06/2015  11:37:23  PAGE 122



  -------         MODULE        ?C?ULCMP
  C:290EH         PUBLIC        ?C?ULCMP
  -------         ENDMOD        ?C?ULCMP

  -------         MODULE        ?C?ULSHR
  C:291FH         PUBLIC        ?C?ULSHR
  -------         ENDMOD        ?C?ULSHR

  -------         MODULE        ?C?LSTXDATA
  C:2932H         PUBLIC        ?C?LSTXDATA
  -------         ENDMOD        ?C?LSTXDATA

  -------         MODULE        ?C?LSTKXDATA
  C:293EH         PUBLIC        ?C?LSTKXDATA
  -------         ENDMOD        ?C?LSTKXDATA

  -------         MODULE        ?C?PLDPTR
  C:296FH         PUBLIC        ?C?PLDPTR
  -------         ENDMOD        ?C?PLDPTR

  -------         MODULE        ?C?PSTPTR
  C:298FH         PUBLIC        ?C?PSTPTR
  -------         ENDMOD        ?C?PSTPTR

  -------         MODULE        ?C?CCASE
  C:29DEH         PUBLIC        ?C?CCASE
  -------         ENDMOD        ?C?CCASE

  -------         MODULE        ?C?ICASE
  C:2A04H         PUBLIC        ?C?ICASE
  -------         ENDMOD        ?C?ICASE

  -------         MODULE        PRINTF
  X:0337H         PUBLIC        ?_PRINTF517?BYTE
  X:0337H         PUBLIC        ?_PRINTF?BYTE
  X:0337H         PUBLIC        ?_SPRINTF517?BYTE
  X:0337H         PUBLIC        ?_SPRINTF?BYTE
  C:4819H         PUBLIC        _PRINTF
  C:4819H         PUBLIC        _PRINTF517
  C:4813H         PUBLIC        _SPRINTF
  C:4813H         PUBLIC        _SPRINTF517
  -------         ENDMOD        PRINTF

  -------         MODULE        PUTS
  C:A0ABH         PUBLIC        _PUTS
  -------         ENDMOD        PUTS

  -------         MODULE        SCANF
  X:01DDH         PUBLIC        ?_SCANF517?BYTE
  X:01DDH         PUBLIC        ?_SCANF?BYTE
  X:01DDH         PUBLIC        ?_SSCANF517?BYTE
  X:01DDH         PUBLIC        ?_SSCANF?BYTE
  C:4BA0H         PUBLIC        _SCANF
  C:4BA0H         PUBLIC        _SCANF517
  C:4B9CH         PUBLIC        _SSCANF
  C:4B9CH         PUBLIC        _SSCANF517
BL51 BANKED LINKER/LOCATER V6.22                                                      11/06/2015  11:37:23  PAGE 123


  -------         ENDMOD        SCANF

  -------         MODULE        ?C?STRCMP
  C:2BAFH         PUBLIC        ?C?STRCMP
  -------         ENDMOD        ?C?STRCMP

  -------         MODULE        STRLEN
  C:A3B5H         PUBLIC        _STRLEN
  -------         ENDMOD        STRLEN

  -------         MODULE        ATOI
  C:7D01H         PUBLIC        _atoi
  -------         ENDMOD        ATOI

  -------         MODULE        ?C?ISTPTR
  C:2BCCH         PUBLIC        ?C?ISTPTR
  -------         ENDMOD        ?C?ISTPTR

  -------         MODULE        ?C?LNEG
  C:2BEBH         PUBLIC        ?C?LNEG
  -------         ENDMOD        ?C?LNEG

  -------         MODULE        ?C?LSTPTR
  C:2BF9H         PUBLIC        ?C?LSTPTR
  -------         ENDMOD        ?C?LSTPTR

  -------         MODULE        ?C?PLDIDATA
  C:2C13H         PUBLIC        ?C?PLDIDATA
  -------         ENDMOD        ?C?PLDIDATA

  -------         MODULE        ?C?PSTIDATA
  C:2C1CH         PUBLIC        ?C?PSTIDATA
  -------         ENDMOD        ?C?PSTIDATA

  -------         MODULE        ?C?PLDXDATA
  C:2C25H         PUBLIC        ?C?PLDXDATA
  -------         ENDMOD        ?C?PLDXDATA

  -------         MODULE        ?C?PLDIXDATA
  C:2C2EH         PUBLIC        ?C?PLDIXDATA
  -------         ENDMOD        ?C?PLDIXDATA

  -------         MODULE        ?C?PILDXDATA
  C:2C45H         PUBLIC        ?C?PILDXDATA
  -------         ENDMOD        ?C?PILDXDATA

  -------         MODULE        ?C?PSTXDATA
  C:2C5CH         PUBLIC        ?C?PSTXDATA
  -------         ENDMOD        ?C?PSTXDATA

  -------         MODULE        ?C?PLDPDATA
  C:2C65H         PUBLIC        ?C?PLDPDATA
  -------         ENDMOD        ?C?PLDPDATA

  -------         MODULE        ?C?PSTPDATA
  C:2C6EH         PUBLIC        ?C?PSTPDATA
  -------         ENDMOD        ?C?PSTPDATA
BL51 BANKED LINKER/LOCATER V6.22                                                      11/06/2015  11:37:23  PAGE 124



  -------         MODULE        ?C?PLDCODE
  C:2C77H         PUBLIC        ?C?PLDCODE
  -------         ENDMOD        ?C?PLDCODE

  -------         MODULE        PUTCHAR
  C:A126H         PUBLIC        _PUTCHAR
  -------         ENDMOD        PUTCHAR

  -------         MODULE        GETCHAR
  B:0025H.2       PUBLIC        ?C?CHARLOADED
  X:0412H         PUBLIC        ?_UNGETCHAR?BYTE
  C:A406H         PUBLIC        GETCHAR
  -------         ENDMOD        GETCHAR

  -------         MODULE        UNGETC
  C:A5D8H         PUBLIC        _UNGETCHAR
  -------         ENDMOD        UNGETC

  -------         MODULE        ISDIGIT
  C:A504H         PUBLIC        _isdigit
  -------         ENDMOD        ISDIGIT

  -------         MODULE        ISSPACE
  C:A41AH         PUBLIC        _isspace
  -------         ENDMOD        ISSPACE

  -------         MODULE        ?C?LSTIDATA
  C:2C83H         PUBLIC        ?C?LSTIDATA
  -------         ENDMOD        ?C?LSTIDATA

  -------         MODULE        ?C?LSTPDATA
  C:2C8FH         PUBLIC        ?C?LSTPDATA
  -------         ENDMOD        ?C?LSTPDATA

  -------         MODULE        _GETKEY
  C:A57EH         PUBLIC        _GETKEY
  -------         ENDMOD        _GETKEY

*** WARNING L16: UNCALLED SEGMENT, IGNORED FOR OVERLAY PROCESS
    SEGMENT: ?PR?_MONIREADPAGEBUFFER?COMMANDSHELL

*** WARNING L16: UNCALLED SEGMENT, IGNORED FOR OVERLAY PROCESS
    SEGMENT: ?PR?_MONIREADONEBUFFER?COMMANDSHELL

*** WARNING L16: UNCALLED SEGMENT, IGNORED FOR OVERLAY PROCESS
    SEGMENT: ?PR?_MONIWRITEONEBUFFER?COMMANDSHELL

*** WARNING L16: UNCALLED SEGMENT, IGNORED FOR OVERLAY PROCESS
    SEGMENT: ?PR?_MONIREADASICBYTE?COMMANDSHELL

*** WARNING L16: UNCALLED SEGMENT, IGNORED FOR OVERLAY PROCESS
    SEGMENT: ?PR?_MONIAUDIOMIXING?COMMANDSHELL

*** WARNING L16: UNCALLED SEGMENT, IGNORED FOR OVERLAY PROCESS
    SEGMENT: ?PR?MONIAUDIOMUTE?COMMANDSHELL

BL51 BANKED LINKER/LOCATER V6.22                                                      11/06/2015  11:37:23  PAGE 125


*** WARNING L16: UNCALLED SEGMENT, IGNORED FOR OVERLAY PROCESS
    SEGMENT: ?PR?_MONIAUDIOGAIN?COMMANDSHELL

*** WARNING L16: UNCALLED SEGMENT, IGNORED FOR OVERLAY PROCESS
    SEGMENT: ?PR?_MONIAUDIOLIVE?COMMANDSHELL

*** WARNING L16: UNCALLED SEGMENT, IGNORED FOR OVERLAY PROCESS
    SEGMENT: ?PR?MONIREGISTERDUMP?COMMANDSHELL

*** WARNING L16: UNCALLED SEGMENT, IGNORED FOR OVERLAY PROCESS
    SEGMENT: ?PR?_MONIVIDEOMIXWIN?COMMANDSHELL

*** WARNING L16: UNCALLED SEGMENT, IGNORED FOR OVERLAY PROCESS
    SEGMENT: ?PR?_MONIVIDEOMIXATTR?COMMANDSHELL

*** WARNING L16: UNCALLED SEGMENT, IGNORED FOR OVERLAY PROCESS
    SEGMENT: ?PR?MONIVIDEOAUTODETECT?COMMANDSHELL

*** WARNING L16: UNCALLED SEGMENT, IGNORED FOR OVERLAY PROCESS
    SEGMENT: ?PR?_MONISETVIDEOFORMAT?COMMANDSHELL

*** WARNING L16: UNCALLED SEGMENT, IGNORED FOR OVERLAY PROCESS
    SEGMENT: ?PR?_MONISHOWSODSTR?COMMANDSHELL

*** WARNING L16: UNCALLED SEGMENT, IGNORED FOR OVERLAY PROCESS
    SEGMENT: ?PR?PCT_AUDIOACTIONFORHS?COMMANDSHELL

*** WARNING L16: UNCALLED SEGMENT, IGNORED FOR OVERLAY PROCESS
    SEGMENT: ?PR?MONIHSCOMMDISSCROLL?COMMANDSHELL

*** WARNING L16: UNCALLED SEGMENT, IGNORED FOR OVERLAY PROCESS
    SEGMENT: ?PR?MONIHSCOMMVERSION?COMMANDSHELL

*** WARNING L16: UNCALLED SEGMENT, IGNORED FOR OVERLAY PROCESS
    SEGMENT: ?PR?NEWLINE?MAIN

*** WARNING L16: UNCALLED SEGMENT, IGNORED FOR OVERLAY PROCESS
    SEGMENT: ?PR?_PUTSP?MAIN

*** WARNING L16: UNCALLED SEGMENT, IGNORED FOR OVERLAY PROCESS
    SEGMENT: ?PR?_CHKSTARTCOMMSHELL?MAIN

*** WARNING L16: UNCALLED SEGMENT, IGNORED FOR OVERLAY PROCESS
    SEGMENT: ?PR?_PCT_SHOWSPEAKICON?OSDACTION_

*** WARNING L16: UNCALLED SEGMENT, IGNORED FOR OVERLAY PROCESS
    SEGMENT: ?PR?PCT_SHOWVLOSS?OSDACTION_

*** WARNING L16: UNCALLED SEGMENT, IGNORED FOR OVERLAY PROCESS
    SEGMENT: ?PR?PCT_AUDIOREGLIST?TW28XX_AUDIO

*** WARNING L16: UNCALLED SEGMENT, IGNORED FOR OVERLAY PROCESS
    SEGMENT: ?PR?PCT_VIDEOLASTMODIFY?TW28XX_VIDEO

*** WARNING L16: UNCALLED SEGMENT, IGNORED FOR OVERLAY PROCESS
    SEGMENT: ?PR?_PCT_WINATTRCLEAR?TW28XX_VIDEO

BL51 BANKED LINKER/LOCATER V6.22                                                      11/06/2015  11:37:23  PAGE 126


*** WARNING L16: UNCALLED SEGMENT, IGNORED FOR OVERLAY PROCESS
    SEGMENT: ?PR?I2C_100KHZ?NED

*** WARNING L16: UNCALLED SEGMENT, IGNORED FOR OVERLAY PROCESS
    SEGMENT: ?PR?I2CSTART2?NED

*** WARNING L16: UNCALLED SEGMENT, IGNORED FOR OVERLAY PROCESS
    SEGMENT: ?PR?I2CSTOP2?NED

*** WARNING L16: UNCALLED SEGMENT, IGNORED FOR OVERLAY PROCESS
    SEGMENT: ?PR?_I2CWRITEDATA2?NED

*** WARNING L16: UNCALLED SEGMENT, IGNORED FOR OVERLAY PROCESS
    SEGMENT: ?PR?I2CREADDATA2?NED

*** WARNING L16: UNCALLED SEGMENT, IGNORED FOR OVERLAY PROCESS
    SEGMENT: ?PR?I2CREADDATAWITHACK2?NED

*** WARNING L16: UNCALLED SEGMENT, IGNORED FOR OVERLAY PROCESS
    SEGMENT: ?PR?_READI2C2?NED

*** WARNING L16: UNCALLED SEGMENT, IGNORED FOR OVERLAY PROCESS
    SEGMENT: ?PR?I2C_ACK?NED

*** WARNING L16: UNCALLED SEGMENT, IGNORED FOR OVERLAY PROCESS
    SEGMENT: ?PR?I2C_ACK2?NED

*** WARNING L16: UNCALLED SEGMENT, IGNORED FOR OVERLAY PROCESS
    SEGMENT: ?PR?_SET_CHANNEL?NED

*** WARNING L16: UNCALLED SEGMENT, IGNORED FOR OVERLAY PROCESS
    SEGMENT: ?PR?SEND_CAMERA_VER?NED

*** WARNING L16: UNCALLED SEGMENT, IGNORED FOR OVERLAY PROCESS
    SEGMENT: ?PR?_GET_CAMERA_IRD?NED

*** WARNING L16: UNCALLED SEGMENT, IGNORED FOR OVERLAY PROCESS
    SEGMENT: ?PR?GET_DVR_VER?NED

*** WARNING L16: UNCALLED SEGMENT, IGNORED FOR OVERLAY PROCESS
    SEGMENT: ?PR?SENT_DVR_VER?NED

*** WARNING L16: UNCALLED SEGMENT, IGNORED FOR OVERLAY PROCESS
    SEGMENT: ?PR?GET_DVR_YEAR?NED

*** WARNING L16: UNCALLED SEGMENT, IGNORED FOR OVERLAY PROCESS
    SEGMENT: ?PR?SENT_DVR_YEAR?NED

*** WARNING L16: UNCALLED SEGMENT, IGNORED FOR OVERLAY PROCESS
    SEGMENT: ?PR?GET_DVR_MD?NED

*** WARNING L16: UNCALLED SEGMENT, IGNORED FOR OVERLAY PROCESS
    SEGMENT: ?PR?SENT_DVR_MDR?NED

*** WARNING L16: UNCALLED SEGMENT, IGNORED FOR OVERLAY PROCESS
    SEGMENT: ?PR?GET_DVR_HS?NED

BL51 BANKED LINKER/LOCATER V6.22                                                      11/06/2015  11:37:23  PAGE 127


*** WARNING L16: UNCALLED SEGMENT, IGNORED FOR OVERLAY PROCESS
    SEGMENT: ?PR?SENT_DVR_HS?NED

*** WARNING L16: UNCALLED SEGMENT, IGNORED FOR OVERLAY PROCESS
    SEGMENT: ?PR?_COMMAND_CHECK?NED

*** WARNING L16: UNCALLED SEGMENT, IGNORED FOR OVERLAY PROCESS
    SEGMENT: ?PR?_CHECK_STARTUP?NED

*** WARNING L16: UNCALLED SEGMENT, IGNORED FOR OVERLAY PROCESS
    SEGMENT: ?PR?_GET_DATA?NED

*** WARNING L16: UNCALLED SEGMENT, IGNORED FOR OVERLAY PROCESS
    SEGMENT: ?PR?_PARITY?NED

*** WARNING L16: UNCALLED SEGMENT, IGNORED FOR OVERLAY PROCESS
    SEGMENT: ?PR?ADT75_INIT?NED

*** WARNING L16: UNCALLED SEGMENT, IGNORED FOR OVERLAY PROCESS
    SEGMENT: ?PR?_FIFOAVAILABLEDATA?NED

*** WARNING L16: UNCALLED SEGMENT, IGNORED FOR OVERLAY PROCESS
    SEGMENT: ?PR?_FIFOAVAILABLESPACE?NED

*** WARNING L16: UNCALLED SEGMENT, IGNORED FOR OVERLAY PROCESS
    SEGMENT: ?PR?_ENABLETRANSMIT?NED

*** WARNING L16: UNCALLED SEGMENT, IGNORED FOR OVERLAY PROCESS
    SEGMENT: ?PR?_FLUSH?NED

*** WARNING L16: UNCALLED SEGMENT, IGNORED FOR OVERLAY PROCESS
    SEGMENT: ?PR?_PING?NED

*** WARNING L16: UNCALLED SEGMENT, IGNORED FOR OVERLAY PROCESS
    SEGMENT: ?PR?_TW2835_GET?NED

*** WARNING L16: UNCALLED SEGMENT, IGNORED FOR OVERLAY PROCESS
    SEGMENT: ?PR?_PEEK?NED

*** WARNING L16: UNCALLED SEGMENT, IGNORED FOR OVERLAY PROCESS
    SEGMENT: ?PR?_SET_INT?NED

Program Size: data=104.3 xdata=1043 code=42510
LINK/LOCATE RUN COMPLETE.  58 WARNING(S),  0 ERROR(S)
