BL51 BANKED LINKER/LOCATER V6.22                                                        12/01/2015  16:17:03  PAGE 1


BL51 BANKED LINKER/LOCATER V6.22, INVOKED BY:
C:\KEIL\C51\BIN\BL51.EXE .\OBJ\STARTUP.obj, .\OBJ\UART.obj, .\OBJ\BusCtrl.obj, .\OBJ\CommandShell.obj, .\OBJ\Main.obj, .
>> \OBJ\OSD_Graph.obj, .\OBJ\OSDAction .obj, .\OBJ\OSDCtrl.obj, .\OBJ\Timer.obj, .\OBJ\TW28xx_Audio.obj, .\OBJ\TW28xx_Vi
>> deo.obj, .\OBJ\TW2835_Init.obj, .\OBJ\NED.obj TO .\OBJ\NED_5MCMOS_v0_a_0_XXXX_20151201 PRINT (.\OBJ\NED_5MCMOS_v0_a_0
>> _XXXX_20151201.m51) RAMSIZE (256) CODE (0X0000-0XFFFF)


MEMORY MODEL: LARGE


INPUT MODULES INCLUDED:
  .\OBJ\STARTUP.obj (?C_STARTUP)
  .\OBJ\UART.obj (UART)
  .\OBJ\BusCtrl.obj (BUSCTRL)
  .\OBJ\CommandShell.obj (COMMANDSHELL)
  .\OBJ\Main.obj (MAIN)
  .\OBJ\OSD_Graph.obj (OSD_GRAPH)
  .\OBJ\OSDAction .obj (OSDACTION_)
  .\OBJ\OSDCtrl.obj (OSDCTRL)
  .\OBJ\Timer.obj (TIMER)
  .\OBJ\TW28xx_Audio.obj (TW28XX_AUDIO)
  .\OBJ\TW28xx_Video.obj (TW28XX_VIDEO)
  .\OBJ\TW2835_Init.obj (TW2835_INIT)
  .\OBJ\NED.obj (NED)
  C:\KEIL\C51\LIB\C51L.LIB (?C_INIT)
  C:\KEIL\C51\LIB\C51L.LIB (?C?COPY)
  C:\KEIL\C51\LIB\C51L.LIB (?C?CLDPTR)
  C:\KEIL\C51\LIB\C51L.LIB (?C?CLDOPTR)
  C:\KEIL\C51\LIB\C51L.LIB (?C?CSTPTR)
  C:\KEIL\C51\LIB\C51L.LIB (?C?IMUL)
  C:\KEIL\C51\LIB\C51L.LIB (?C?UIDIV)
  C:\KEIL\C51\LIB\C51L.LIB (?C?IILDX)
  C:\KEIL\C51\LIB\C51L.LIB (?C?ILDIX)
  C:\KEIL\C51\LIB\C51L.LIB (?C?ILDPTR)
  C:\KEIL\C51\LIB\C51L.LIB (?C?IILDOPTR)
  C:\KEIL\C51\LIB\C51L.LIB (?C?LMUL)
  C:\KEIL\C51\LIB\C51L.LIB (?C?ULDIV)
  C:\KEIL\C51\LIB\C51L.LIB (?C?SLDIV)
  C:\KEIL\C51\LIB\C51L.LIB (?C?ULCMP)
  C:\KEIL\C51\LIB\C51L.LIB (?C?ULSHR)
  C:\KEIL\C51\LIB\C51L.LIB (?C?LSTXDATA)
  C:\KEIL\C51\LIB\C51L.LIB (?C?LSTKXDATA)
  C:\KEIL\C51\LIB\C51L.LIB (?C?PLDPTR)
  C:\KEIL\C51\LIB\C51L.LIB (?C?PSTPTR)
  C:\KEIL\C51\LIB\C51L.LIB (?C?CCASE)
  C:\KEIL\C51\LIB\C51L.LIB (PRINTF)
  C:\KEIL\C51\LIB\C51L.LIB (PUTS)
  C:\KEIL\C51\LIB\C51L.LIB (SCANF)
  C:\KEIL\C51\LIB\C51L.LIB (?C?STRCMP)
  C:\KEIL\C51\LIB\C51L.LIB (STRLEN)
  C:\KEIL\C51\LIB\C51L.LIB (ATOI)
  C:\KEIL\C51\LIB\C51L.LIB (?C?ISTPTR)
  C:\KEIL\C51\LIB\C51L.LIB (?C?LNEG)
  C:\KEIL\C51\LIB\C51L.LIB (?C?LSTPTR)
  C:\KEIL\C51\LIB\C51L.LIB (?C?PLDIDATA)
  C:\KEIL\C51\LIB\C51L.LIB (?C?PSTIDATA)
  C:\KEIL\C51\LIB\C51L.LIB (?C?PLDXDATA)
  C:\KEIL\C51\LIB\C51L.LIB (?C?PLDIXDATA)
BL51 BANKED LINKER/LOCATER V6.22                                                      12/01/2015  16:17:03  PAGE 2


  C:\KEIL\C51\LIB\C51L.LIB (?C?PILDXDATA)
  C:\KEIL\C51\LIB\C51L.LIB (?C?PSTXDATA)
  C:\KEIL\C51\LIB\C51L.LIB (?C?PLDPDATA)
  C:\KEIL\C51\LIB\C51L.LIB (?C?PSTPDATA)
  C:\KEIL\C51\LIB\C51L.LIB (?C?PLDCODE)
  C:\KEIL\C51\LIB\C51L.LIB (PUTCHAR)
  C:\KEIL\C51\LIB\C51L.LIB (GETCHAR)
  C:\KEIL\C51\LIB\C51L.LIB (UNGETC)
  C:\KEIL\C51\LIB\C51L.LIB (ISDIGIT)
  C:\KEIL\C51\LIB\C51L.LIB (ISSPACE)
  C:\KEIL\C51\LIB\C51L.LIB (?C?LSTIDATA)
  C:\KEIL\C51\LIB\C51L.LIB (?C?LSTPDATA)
  C:\KEIL\C51\LIB\C51L.LIB (_GETKEY)


LINK MAP OF MODULE:  .\OBJ\NED_5MCMOS_v0_a_0_XXXX_20151201 (?C_STARTUP)


            TYPE    BASE      LENGTH    RELOCATION   SEGMENT NAME
            -----------------------------------------------------

            * * * * * * *   D A T A   M E M O R Y   * * * * * * *
            REG     0000H     0008H     ABSOLUTE     "REG BANK 0"
            DATA    0008H     000AH     UNIT         ?DT?_MONIAUDIOMIXING?COMMANDSHELL
            DATA    0012H     000AH     UNIT         ?DT?_MONIAUDIOGAIN?COMMANDSHELL
            DATA    001CH     0004H     UNIT         ?DT?_MONIREADASICBYTE?COMMANDSHELL
            DATA    0020H     0001H     BIT_ADDR     ?BA?MAIN
            DATA    0021H     0001H     BIT_ADDR     ?BA?OSDACTION_
            DATA    0022H     0001H     BIT_ADDR     ?BA?OSDCTRL
            BIT     0023H.0   0001H.1   UNIT         ?BI?PRINTF?PRINTF
            BIT     0024H.1   0000H.6   UNIT         _BIT_GROUP_
            BIT     0024H.7   0000H.2   UNIT         ?BI?MAIN
            BIT     0025H.1   0000H.1   UNIT         ?BI?_ATOI?ATOI
            BIT     0025H.2   0000H.1   UNIT         ?BI?GETCHAR
                    0025H.3   0000H.5                *** GAP ***
            DATA    0026H     000AH     UNIT         ?DT?_MONIVIDEOMIXATTR?COMMANDSHELL
            DATA    0030H     0009H     UNIT         _DATA_GROUP_
            DATA    0039H     0008H     UNIT         ?DT?_MONISETVIDEOFORMAT?COMMANDSHELL
            DATA    0041H     0006H     UNIT         ?DT?TIMER
            DATA    0047H     0005H     UNIT         ?DT?PRINTF?PRINTF
            DATA    004CH     0003H     UNIT         ?DT?_MONIREADPAGEBUFFER?COMMANDSHELL
            DATA    004FH     0003H     UNIT         ?DT?_MONIWRITEONEBUFFER?COMMANDSHELL
            DATA    0052H     0003H     UNIT         ?DT?_PCT_WRITEOSDFNTX?OSDCTRL
            DATA    0055H     0002H     UNIT         ?DT?_MONIREADONEBUFFER?COMMANDSHELL
            DATA    0057H     0002H     UNIT         ?DT?MONIREGISTERDUMP?COMMANDSHELL
            DATA    0059H     0002H     UNIT         ?DT?_MONIVIDEOMIXWIN?COMMANDSHELL
            DATA    005BH     0002H     UNIT         ?DT?_MONISHOWSODSTR?COMMANDSHELL
            DATA    005DH     0002H     UNIT         ?DT?PCT_AUDIOACTIONFORHS?COMMANDSHELL
            DATA    005FH     0002H     UNIT         ?DT?OSDCTRL
            DATA    0061H     0002H     UNIT         ?DT?_PCT_WRITEOSDFNTY?OSDCTRL
            DATA    0063H     0001H     UNIT         ?DT?_MONIAUDIOLIVE?COMMANDSHELL
            DATA    0064H     0001H     UNIT         ?DT?_PUTSP?MAIN
            DATA    0065H     0001H     UNIT         ?DT?PCT_SHOWVLOSS?OSDACTION_
            DATA    0066H     0001H     UNIT         ?DT?_PCT_AUDIOMIXMUTE?TW28XX_AUDIO
            DATA    0067H     0001H     UNIT         ?DT?PCT_VIDEOLASTMODIFY?TW28XX_VIDEO
            IDATA   0068H     0001H     UNIT         ?STACK

BL51 BANKED LINKER/LOCATER V6.22                                                      12/01/2015  16:17:03  PAGE 3


            * * * * * * *  X D A T A   M E M O R Y  * * * * * * *
            XDATA   0000H     020BH     UNIT         _XDATA_GROUP_
            XDATA   020BH     0082H     UNIT         ?XD?NED
            XDATA   028DH     0066H     UNIT         ?XD?UART
            XDATA   02F3H     0045H     UNIT         ?XD?MAIN
            XDATA   0338H     0028H     UNIT         ?XD?PRINTF?PRINTF
            XDATA   0360H     001FH     UNIT         ?XD?_PCT_WRITEOSDFNTY?OSDCTRL
            XDATA   037FH     001AH     UNIT         ?XD?COMMANDSHELL
            XDATA   0399H     0013H     UNIT         ?XD?_PCT_WRITEOSDFNTX?OSDCTRL
            XDATA   03ACH     0007H     UNIT         ?XD?_PCT_SHOWOSDSTRING?OSDCTRL
            XDATA   03B3H     0006H     UNIT         ?XD?_MONIAUDIOMIXING?COMMANDSHELL
            XDATA   03B9H     0006H     UNIT         ?XD?_MONIAUDIOGAIN?COMMANDSHELL
            XDATA   03BFH     0006H     UNIT         ?XD?_MONIVIDEOMIXATTR?COMMANDSHELL
            XDATA   03C5H     0006H     UNIT         ?XD?_MONISETVIDEOFORMAT?COMMANDSHELL
            XDATA   03CBH     0006H     UNIT         ?XD?_MONISHOWSODSTR?COMMANDSHELL
            XDATA   03D1H     0006H     UNIT         ?XD?_TW2835_GET?NED
            XDATA   03D7H     0005H     UNIT         ?XD?_ATOI?ATOI
            XDATA   03DCH     0004H     UNIT         ?XD?_PCT_WRITEOSDDATABUFFERX?OSDCTRL
            XDATA   03E0H     0004H     UNIT         ?XD?_PCT_WRITEOSDDATABUFFERY?OSDCTRL
            XDATA   03E4H     0004H     UNIT         ?XD?_PCT_AUDIOMIXCTRL?TW28XX_AUDIO
            XDATA   03E8H     0004H     UNIT         ?XD?_CHECK_STARTUP?NED
            XDATA   03ECH     0003H     UNIT         ?XD?_PUTSP?MAIN
            XDATA   03EFH     0003H     UNIT         ?XD?_CHKSTARTCOMMSHELL?MAIN
            XDATA   03F2H     0003H     UNIT         ?XD?_PCT_SHOWSPEAKICON?OSDACTION_
            XDATA   03F5H     0003H     UNIT         ?XD?_PCT_AUDIOGAINCTRL?TW28XX_AUDIO
            XDATA   03F8H     0003H     UNIT         ?XD?_PCT_WINATTRCLEAR?TW28XX_VIDEO
            XDATA   03FBH     0003H     UNIT         ?XD?ADT75_INIT?NED
            XDATA   03FEH     0002H     UNIT         ?XD?_PCT_AUDIOMIXMUTE?TW28XX_AUDIO
            XDATA   0400H     0002H     UNIT         ?XD?_PCT_SETVIDEOFORMAT?TW28XX_VIDEO
            XDATA   0402H     0002H     UNIT         ?XD?_GET_CAMERA_IRD?NED
            XDATA   0404H     0001H     UNIT         ?XD?OSD_GRAPH
            XDATA   0405H     0001H     UNIT         ?XD?OSDACTION_
            XDATA   0406H     0001H     UNIT         ?XD?_PCT_AUDIOSELLIVE?TW28XX_AUDIO
            XDATA   0407H     0001H     UNIT         ?XD?_PCT_WINPOPUPCTRL?TW28XX_VIDEO
            XDATA   0408H     0001H     UNIT         ?XD?_READI2C2?NED
            XDATA   0409H     0001H     UNIT         ?XD?_SET_CHANNEL?NED
            XDATA   040AH     0001H     UNIT         ?XD?SEND_CAMERA_VER?NED
            XDATA   040BH     0001H     UNIT         ?XD?SENT_DVR_VER?NED
            XDATA   040CH     0001H     UNIT         ?XD?SENT_DVR_YEAR?NED
            XDATA   040DH     0001H     UNIT         ?XD?_COMMAND_CHECK?NED
            XDATA   040EH     0001H     UNIT         ?XD?_GET_DATA?NED
            XDATA   040FH     0001H     UNIT         ?XD?_PEEK?NED
            XDATA   0410H     0001H     UNIT         ?XD?_SET_INT?NED
            XDATA   0411H     0001H     UNIT         ?XD?GETCHAR

            * * * * * * *   C O D E   M E M O R Y   * * * * * * *
            CODE    0000H     0003H     ABSOLUTE     
            CODE    0003H     0008H     UNIT         ?PR?_RS_TX?UART
            CODE    000BH     0003H     ABSOLUTE     
            CODE    000EH     0015H     UNIT         ?PR?_RESETDEVICE?NED
            CODE    0023H     0003H     ABSOLUTE     
            CODE    0026H     0005H     UNIT         ?PR?MONIHSCOMMDISSCROLL?COMMANDSHELL
            CODE    002BH     0003H     ABSOLUTE     
            CODE    002EH     16CAH     UNIT         ?CO?OSD_GRAPH
            CODE    16F8H     0EA0H     UNIT         ?CO?OSDCTRL
            CODE    2598H     06D6H     UNIT         ?C?LIB_CODE
            CODE    2C6EH     0584H     UNIT         ?PR?PCT_SHOWVLOSS?OSDACTION_
BL51 BANKED LINKER/LOCATER V6.22                                                      12/01/2015  16:17:03  PAGE 4


            CODE    31F2H     04DEH     UNIT         ?PR?_PCT_SHOWMIRRORICON?OSDACTION_
            CODE    36D0H     04AAH     UNIT         ?PR?_PCT_SHOWSPEAKICON?OSDACTION_
            CODE    3B7AH     0459H     UNIT         ?CO?TW28XX_VIDEO
            CODE    3FD3H     0400H     UNIT         ?CO?TW2835_INIT
            CODE    43D3H     03AEH     UNIT         ?PR?_PCT_OSD_ACTIONPTHX?OSDACTION_
            CODE    4781H     0365H     UNIT         ?PR?PRINTF?PRINTF
            CODE    4AE6H     0322H     UNIT         ?PR?SCANF?SCANF
            CODE    4E08H     0320H     UNIT         ?PR?_MONITOR_SET?MAIN
            CODE    5128H     02F8H     UNIT         ?PR?_PCT_SETVIDEOHDELAY?TW28XX_VIDEO
            CODE    5420H     027EH     UNIT         ?CO?COMMANDSHELL
            CODE    569EH     021FH     UNIT         ?PR?COMMANDSHELL
            CODE    58BDH     0217H     UNIT         ?PR?_MONIVIDEOMIXATTR?COMMANDSHELL
            CODE    5AD4H     01DFH     UNIT         ?PR?_SC16_BCC_CHECK?NED
            CODE    5CB3H     01DAH     UNIT         ?CO?MAIN
            CODE    5E8DH     01D9H     UNIT         ?PR?PCT_AUDIOREGLIST?TW28XX_AUDIO
            CODE    6066H     01D9H     UNIT         ?PR?_SC16_SENDDATASELECT?NED
            CODE    623FH     01A3H     UNIT         ?PR?_PCT_SETXVIDEOMIXING?TW28XX_VIDEO
            CODE    63E2H     01A2H     UNIT         ?PR?_PCT_OSD16X16GRAPHX?OSD_GRAPH
            CODE    6584H     017CH     UNIT         ?PR?_PCT_WRITEOSDDATABUFFERX?OSDCTRL
            CODE    6700H     0178H     UNIT         ?PR?_MONIAUDIOMIXING?COMMANDSHELL
            CODE    6878H     0178H     UNIT         ?PR?MAIN?MAIN
            CODE    69F0H     016AH     UNIT         ?PR?OSDCTRL
            CODE    6B5AH     0166H     UNIT         ?PR?_PCT_SHOWINDICATEICON?OSDACTION_
            CODE    6CC0H     0163H     UNIT         ?C_INITSEG
            CODE    6E23H     014EH     UNIT         ?PR?_MONIHSCOMM?COMMANDSHELL
            CODE    6F71H     0144H     UNIT         ?PR?_MONIAUDIOGAIN?COMMANDSHELL
            CODE    70B5H     0141H     UNIT         ?PR?_PCT_RECOMPENSEYHDELAY?TW28XX_VIDEO
            CODE    71F6H     013AH     UNIT         ?PR?PCT_INITOSDCOLOR?OSDCTRL
            CODE    7330H     0124H     UNIT         ?PR?_PCT_WRITEOSDFNTX?OSDCTRL
            CODE    7454H     0124H     UNIT         ?PR?_PCT_WRITEOSDDATABUFFERY?OSDCTRL
            CODE    7578H     0122H     UNIT         ?PR?NED
            CODE    769AH     011EH     UNIT         ?PR?PRESS_CHECK?MAIN
            CODE    77B8H     011DH     UNIT         ?PR?_MONISETVIDEOFORMAT?COMMANDSHELL
            CODE    78D5H     011BH     UNIT         ?PR?TW28XX_VIDEO
            CODE    79F0H     00F2H     UNIT         ?PR?_PCT_WRITEOSDFNTY?OSDCTRL
            CODE    7AE2H     00EFH     UNIT         ?PR?_PCT_RUNCOMMSHELL?COMMANDSHELL
            CODE    7BD1H     00E4H     UNIT         ?PR?CAMERA_MOVE?NED
            CODE    7CB5H     00DDH     UNIT         ?PR?TIMER2_INTERRUPT?TIMER
            CODE    7D92H     00DBH     UNIT         ?PR?_ATOI?ATOI
            CODE    7E6DH     00D9H     UNIT         ?PR?COMMANDSHELL?MAIN
            CODE    7F46H     00CFH     UNIT         ?PR?MAIN
            CODE    8015H     00CEH     UNIT         ?PR?_SET_PWM_OUTPUT?MAIN
            CODE    80E3H     00C3H     UNIT         ?PR?_SETBAUDRATE?NED
            CODE    81A6H     00B8H     UNIT         ?PR?OSDACTION_
            CODE    825EH     00B6H     UNIT         ?PR?_PCT_CLEARWORDSPATHX?OSDCTRL
            CODE    8314H     00ADH     UNIT         ?PR?_SC16_COMCHECK?NED
            CODE    83C1H     00AAH     UNIT         ?PR?_PCT_FULLCOLORONOSD?OSDCTRL
            CODE    846BH     00A9H     UNIT         ?PR?_TW2835_GET?NED
            CODE    8514H     009BH     UNIT         ?PR?_I2CWRITEDATA?NED
            CODE    85AFH     0099H     UNIT         ?PR?_PCT_SETCHANELSCALE?TW28XX_VIDEO
            CODE    8648H     0098H     UNIT         ?PR?_CHECK_STARTUP?NED
            CODE    86E0H     0096H     UNIT         ?PR?CHECK_OTHER_COM?NED
            CODE    8776H     008EH     UNIT         ?PR?PCT_VIDEOLASTMODIFY?TW28XX_VIDEO
            CODE    8804H     008CH     UNIT         ?C_C51STARTUP
            CODE    8890H     008CH     UNIT         ?PR?_PCT_READASICBYTE?BUSCTRL
            CODE    891CH     0081H     UNIT         ?PR?_PCT_WRITEASICTABLE?BUSCTRL
            CODE    899DH     0080H     UNIT         ?PR?SC16_INIT?NED
BL51 BANKED LINKER/LOCATER V6.22                                                      12/01/2015  16:17:03  PAGE 5


            CODE    8A1DH     007BH     UNIT         ?PR?_SET_CHANNEL?NED
            CODE    8A98H     0073H     UNIT         ?PR?_BOUND_SET?NED
            CODE    8B0BH     0071H     UNIT         ?PR?_PCT_AUDIOMIXCTRL?TW28XX_AUDIO
            CODE    8B7CH     0070H     UNIT         ?PR?_PCT_GETFIRSTSTR?COMMANDSHELL
            CODE    8BECH     006BH     UNIT         ?PR?_PCT_AUDIOGAINCTRL?TW28XX_AUDIO
            CODE    8C57H     006AH     UNIT         ?PR?_I2CWRITEDATA2?NED
            CODE    8CC1H     0069H     UNIT         ?PR?PCT_CHECKSYSTEM?COMMANDSHELL
            CODE    8D2AH     0069H     UNIT         ?PR?_GET_DATA?NED
            CODE    8D93H     0067H     UNIT         ?PR?PCT_TW2835_INITIAL?TW2835_INIT
            CODE    8DFAH     0064H     UNIT         ?PR?_PCT_WRITEASICBYTE?BUSCTRL
            CODE    8E5EH     0064H     UNIT         ?PR?_PCT_CHANGESYSTEMTYPE?TW2835_INIT
            CODE    8EC2H     0064H     UNIT         ?PR?_SETLINE?NED
            CODE    8F26H     0063H     UNIT         ?PR?GPIO_CHECK?NED
            CODE    8F89H     0061H     UNIT         ?PR?_MONISHOWSODSTR?COMMANDSHELL
            CODE    8FEAH     0061H     UNIT         ?PR?CAMERA_VERSION_CHECK?MAIN
            CODE    904BH     0061H     UNIT         ?PR?_PCT_SHOWGRAPHSTRING?OSD_GRAPH
            CODE    90ACH     005EH     UNIT         ?PR?_PCT_SHOWOSDSTRING?OSDCTRL
            CODE    910AH     005AH     UNIT         ?PR?TEMP_CHECK?MAIN
            CODE    9164H     0059H     UNIT         ?PR?_PCT_SETOSDCOLOR?OSDCTRL
            CODE    91BDH     0056H     UNIT         ?PR?_MONIVIDEOMIXWIN?COMMANDSHELL
            CODE    9213H     0055H     UNIT         ?PR?VERSION_CHECK?MAIN
            CODE    9268H     0052H     UNIT         ?PR?_PCT_WRITESTABLE?BUSCTRL
            CODE    92BAH     0050H     UNIT         ?PR?_WAIT_MS?MAIN
            CODE    930AH     004DH     UNIT         ?PR?_MONIWRITEASICBYTE?COMMANDSHELL
            CODE    9357H     004CH     UNIT         ?PR?PCT_INITIALOSD?OSDACTION_
            CODE    93A3H     004BH     UNIT         ?PR?MONIREGISTERDUMP?COMMANDSHELL
            CODE    93EEH     004BH     UNIT         ?PR?_PCT_DETECTVIDEOFORMAT?TW28XX_VIDEO
            CODE    9439H     004AH     UNIT         ?PR?INITIALMPU?MAIN
            CODE    9483H     004AH     UNIT         ?PR?I2C_ACK2?NED
            CODE    94CDH     004AH     UNIT         ?PR?_SET_CAMERA_SPEED?NED
            CODE    9517H     0048H     UNIT         ?PR?_PCT_CHECKVMIXTYPE?COMMANDSHELL
            CODE    955FH     0048H     UNIT         ?PR?_MONIREADASICBYTE?COMMANDSHELL
            CODE    95A7H     0047H     UNIT         ?PR?_MONIREADPAGEBUFFER?COMMANDSHELL
            CODE    95EEH     0047H     UNIT         ?PR?PCT_AUDIOACTIONFORHS?COMMANDSHELL
            CODE    9635H     0047H     UNIT         ?PR?PCT_GETVIDEOSIGNALSTATUS?OSDACTION_
            CODE    967CH     0047H     UNIT         ?PR?_READI2CWORD?NED
            CODE    96C3H     0047H     UNIT         ?PR?SEND_CAMERA_VER?NED
            CODE    970AH     0047H     UNIT         ?PR?SENT_CAMERA_ANG?NED
            CODE    9751H     0047H     UNIT         ?PR?SENT_CAMERA_RANG?NED
            CODE    9798H     0047H     UNIT         ?PR?SENT_DVR_VER?NED
            CODE    97DFH     0046H     UNIT         ?PR?SEND_CAMERA_PRESS?NED
            CODE    9825H     0046H     UNIT         ?PR?SENT_DVR_YEAR?NED
            CODE    986BH     0045H     UNIT         ?PR?PCT_SHOWMODEICON?OSDACTION_
            CODE    98B0H     0045H     UNIT         ?PR?_GET_CAMERA_IRD?NED
            CODE    98F5H     0044H     UNIT         ?C?LDIV
            CODE    9939H     0043H     UNIT         ?PR?PCT_INITIALTW2835?TW2835_INIT
            CODE    997CH     0041H     UNIT         ?PR?I2CREADDATAWITHACK?NED
            CODE    99BDH     0040H     UNIT         ?CO?TW28XX_AUDIO
            CODE    99FDH     0040H     UNIT         ?PR?_PCT_WINATTRCLEAR?TW28XX_VIDEO
            CODE    9A3DH     003DH     UNIT         ?PR?_PCT_STRTOCOMMCODE?COMMANDSHELL
            CODE    9A7AH     003CH     UNIT         ?PR?BUSCTRL
            CODE    9AB6H     003CH     UNIT         ?PR?_PCT_WINATTRCTRLY?TW28XX_VIDEO
            CODE    9AF2H     003BH     UNIT         ?PR?_SC16_DATA_RESET?NED
            CODE    9B2DH     003AH     UNIT         ?PR?MONIVIDEOAUTODETECT?COMMANDSHELL
            CODE    9B67H     003AH     UNIT         ?PR?SENT_DVR_TEMP?NED
            CODE    9BA1H     0039H     UNIT         ?PR?SEND_CAMERA_TEMP?NED
            CODE    9BDAH     0038H     UNIT         ?PR?OSD_GRAPH
BL51 BANKED LINKER/LOCATER V6.22                                                      12/01/2015  16:17:03  PAGE 6


            CODE    9C12H     0037H     UNIT         ?PR?_MONIREADONEBUFFER?COMMANDSHELL
            CODE    9C49H     0037H     UNIT         ?PR?TW28XX_AUDIO
            CODE    9C80H     0037H     UNIT         ?PR?I2CREADDATA?NED
            CODE    9CB7H     0036H     UNIT         ?PR?_PCT_ENSHOWOSDPAGE?OSDCTRL
            CODE    9CEDH     0036H     UNIT         ?PR?_PCT_AUDIOMIXMUTE?TW28XX_AUDIO
            CODE    9D23H     0036H     UNIT         ?CO?NED
            CODE    9D59H     0035H     UNIT         ?PR?_PUTSP?MAIN
            CODE    9D8EH     0035H     UNIT         ?PR?_PCT_WINATTRCTRL?TW28XX_VIDEO
            CODE    9DC3H     0034H     UNIT         ?PR?_MONIWRITEONEBUFFER?COMMANDSHELL
            CODE    9DF7H     0034H     UNIT         ?PR?_PCT_DISSHOWOSDPAGE?OSDCTRL
            CODE    9E2BH     0032H     UNIT         ?PR?REPEAT_PWM_COM?NED
            CODE    9E5DH     0032H     UNIT         ?PR?SC16_DATACHECK?NED
            CODE    9E8FH     0030H     UNIT         ?PR?_PCT_AUDIOSELLIVE?TW28XX_AUDIO
            CODE    9EBFH     002EH     UNIT         ?PR?_PCT_SETVIDEOFORMAT?TW28XX_VIDEO
            CODE    9EEDH     002DH     UNIT         ?PR?RS_INTERRUPT?UART
            CODE    9F1AH     002DH     UNIT         ?PR?_PWM_SET?MAIN
            CODE    9F47H     002CH     UNIT         ?PR?_CHKSTARTCOMMSHELL?MAIN
            CODE    9F73H     002CH     UNIT         ?PR?GET_CAMERA_VER?NED
            CODE    9F9FH     002CH     UNIT         ?PR?GET_CAMERA_ANG?NED
            CODE    9FCBH     002CH     UNIT         ?PR?GET_CAMERA_RANG?NED
            CODE    9FF7H     002CH     UNIT         ?PR?GET_DVR_TEMP?NED
            CODE    A023H     002CH     UNIT         ?PR?GET_DVR_VER?NED
            CODE    A04FH     002CH     UNIT         ?PR?GET_DVR_YEAR?NED
            CODE    A07BH     002CH     UNIT         ?PR?GET_DVR_MD?NED
            CODE    A0A7H     002CH     UNIT         ?PR?GET_DVR_HS?NED
            CODE    A0D3H     002BH     UNIT         ?PR?I2CREADDATAWITHACK2?NED
            CODE    A0FEH     002BH     UNIT         ?PR?_PING?NED
            CODE    A129H     002AH     UNIT         ?PR?_BCC_CAL?NED
            CODE    A153H     002AH     UNIT         ?PR?_PUTS?PUTS
            CODE    A17DH     0028H     UNIT         ?PR?ADT75_INIT?NED
            CODE    A1A5H     0027H     UNIT         ?PR?PUTCHAR?PUTCHAR
            CODE    A1CCH     0026H     UNIT         ?PR?RESETCOMMSELL?MAIN
            CODE    A1F2H     0026H     UNIT         ?PR?PCT_OSDACTIONFORHS?OSDACTION_
            CODE    A218H     0026H     UNIT         ?PR?_PCT_WINPOPUPCTRL?TW28XX_VIDEO
            CODE    A23EH     0025H     UNIT         ?PR?I2CREADDATA2?NED
            CODE    A263H     0025H     UNIT         ?PR?_READI2C2?NED
            CODE    A288H     0021H     UNIT         ?PR?_SC16_SENDDATA?NED
            CODE    A2A9H     0021H     UNIT         ?PR?_ENABLETRANSMIT?NED
            CODE    A2CAH     0020H     UNIT         ?CO?OSDACTION_
            CODE    A2EAH     0020H     UNIT         ?PR?_ADC_READ?NED
            CODE    A30AH     001FH     UNIT         ?PR?_PCT_SETOSDDRAWPAGE?OSDCTRL
            CODE    A329H     001FH     UNIT         ?PR?_READI2C?NED
            CODE    A348H     001EH     UNIT         ?PR?_WRITEI2CWORD?NED
            CODE    A366H     001DH     UNIT         ?PR?INITIALTIMER2?TIMER
            CODE    A383H     001AH     UNIT         ?PR?_PCT_CLEAROSDPAGEX?OSDCTRL
            CODE    A39DH     0019H     UNIT         ?PR?RS_RX?UART
            CODE    A3B6H     0019H     UNIT         ?PR?TW2835_INIT
            CODE    A3CFH     0018H     UNIT         ?PR?_SET_INT?NED
            CODE    A3E7H     0016H     UNIT         ?PR?INITIALUART?UART
            CODE    A3FDH     0016H     UNIT         ?PR?_MONIHSCOMMSJMODE?COMMANDSHELL
            CODE    A413H     0016H     UNIT         ?PR?_PARITY?NED
            CODE    A429H     0015H     UNIT         ?PR?_STRLEN?STRLEN
            CODE    A43EH     0014H     UNIT         ?PR?_MONIAUDIOLIVE?COMMANDSHELL
            CODE    A452H     0014H     UNIT         ?PR?_PCT_SETYVIDEOMIXING?TW28XX_VIDEO
            CODE    A466H     0014H     UNIT         ?PR?I2C_100KHZ?NED
            CODE    A47AH     0014H     UNIT         ?PR?_WRITEI2C?NED
            CODE    A48EH     0014H     UNIT         ?PR?GETCHAR?GETCHAR
BL51 BANKED LINKER/LOCATER V6.22                                                      12/01/2015  16:17:03  PAGE 7


            CODE    A4A2H     0014H     UNIT         ?PR?_ISSPACE?ISSPACE
            CODE    A4B6H     0013H     UNIT         ?PR?MONIHSCOMMVERSION?COMMANDSHELL
            CODE    A4C9H     0013H     UNIT         ?PR?PCT_TW2835RESETN?TW2835_INIT
            CODE    A4DCH     0013H     UNIT         ?PR?_WRITEI2C2?NED
            CODE    A4EFH     0012H     UNIT         ?PR?_MONIYVIDEOMIX?COMMANDSHELL
            CODE    A501H     0012H     UNIT         ?PR?I2CSTART?NED
            CODE    A513H     0012H     UNIT         ?PR?I2CSTART2?NED
            CODE    A525H     0010H     UNIT         ?PR?RS_RXREADY?UART
            CODE    A535H     0010H     UNIT         ?PR?I2C_ACK?NED
            CODE    A545H     0010H     UNIT         ?PR?_POWER_ONOFF?NED
            CODE    A555H     000FH     UNIT         ?PR?MONIAUDIOMUTE?COMMANDSHELL
            CODE    A564H     000FH     UNIT         ?PR?PWM_INIT?MAIN
            CODE    A573H     000FH     UNIT         ?PR?I2CDELAY2?NED
            CODE    A582H     000FH     UNIT         ?PR?_SENT_CAMERA_IRD?NED
            CODE    A591H     000FH     UNIT         ?PR?_ISDIGIT?ISDIGIT
            CODE    A5A0H     000EH     UNIT         ?PR?_FLUSH?NED
            CODE    A5AEH     000DH     UNIT         ?PR?TIMER0_INTERRUPT?TIMER
            CODE    A5BBH     000DH     UNIT         ?PR?I2CSTOP?NED
            CODE    A5C8H     000DH     UNIT         ?PR?I2CSTOP2?NED
            CODE    A5D5H     000DH     UNIT         ?PR?_READBYTE?NED
            CODE    A5E2H     000CH     UNIT         ?PR?INITIALCOMMSHELL?MAIN
            CODE    A5EEH     000BH     UNIT         ?PR?UART
            CODE    A5F9H     000AH     UNIT         ?PR?_PEEK?NED
            CODE    A603H     000AH     UNIT         ?PR?_GETKEY?_GETKEY
            CODE    A60DH     0009H     UNIT         ?PR?NEWLINE?MAIN
            CODE    A616H     0009H     UNIT         ?PR?_PCT_FLASHOSDCTRL?MAIN
            CODE    A61FH     0009H     UNIT         ?PR?INITIALTIMER0?TIMER
            CODE    A628H     0009H     UNIT         ?PR?_GPIOSETPORTMODE?NED
            CODE    A631H     0009H     UNIT         ?PR?_GPIOSETPORTSTATE?NED
            CODE    A63AH     0009H     UNIT         ?PR?_WRITEBYTE?NED
            CODE    A643H     0009H     UNIT         ?PR?MCTRL_SET?NED
            CODE    A64CH     0008H     UNIT         ?PR?PCT_ENFALSHVLOSS?OSDACTION_
            CODE    A654H     0008H     UNIT         ?PR?GETCHAR?UNGETCHAR
            CODE    A65CH     0006H     UNIT         ?PR?PCT_CLEARGRAPHATTR?OSD_GRAPH
            CODE    A662H     0006H     UNIT         ?PR?_PCT_PRESETGRAPHATTR?OSD_GRAPH
            CODE    A668H     0006H     UNIT         ?PR?_COMMAND_CHECK?NED
            CODE    A66EH     0006H     UNIT         ?PR?_GPIOGETPORTSTATE?NED
            CODE    A674H     0006H     UNIT         ?PR?_FIFOAVAILABLEDATA?NED
            CODE    A67AH     0006H     UNIT         ?PR?_FIFOAVAILABLESPACE?NED
            CODE    A680H     0003H     UNIT         ?PR?_PCT_PRESETFOREGROUNDCOLOR?OSDCTRL
            CODE    A683H     0003H     UNIT         ?PR?_PCT_PRESETBACKGROUNDCOLOR?OSDCTRL
            CODE    A686H     0001H     UNIT         ?PR?PTC_SWITCHTOI2CMODE?BUSCTRL
            CODE    A687H     0001H     UNIT         ?PR?PCT_SENDACK?COMMANDSHELL
            CODE    A688H     0001H     UNIT         ?PR?I2CDELAY?NED
            CODE    A689H     0001H     UNIT         ?PR?SENT_DVR_MDR?NED
            CODE    A68AH     0001H     UNIT         ?PR?SENT_DVR_HS?NED



OVERLAY MAP OF MODULE:   .\OBJ\NED_5MCMOS_v0_a_0_XXXX_20151201 (?C_STARTUP)


SEGMENT                                            BIT_GROUP          DATA_GROUP          XDATA_GROUP
  +--> CALLED SEGMENT                           START    LENGTH     START    LENGTH     START    LENGTH
-------------------------------------------------------------------------------------------------------
?C_C51STARTUP                                   -----    -----      -----    -----      -----    -----
  +--> ?PR?MAIN?MAIN
BL51 BANKED LINKER/LOCATER V6.22                                                      12/01/2015  16:17:03  PAGE 8


  +--> ?C_INITSEG

?PR?MAIN?MAIN                                   -----    -----      -----    -----      0000H    0006H
  +--> ?PR?MAIN
  +--> ?PR?INITIALMPU?MAIN
  +--> ?PR?PWM_INIT?MAIN
  +--> ?PR?INITIALCOMMSHELL?MAIN
  +--> ?PR?RESETCOMMSELL?MAIN
  +--> ?PR?_POWER_ONOFF?NED
  +--> ?PR?SC16_INIT?NED
  +--> ?PR?_MONITOR_SET?MAIN
  +--> ?PR?_GPIOGETPORTSTATE?NED
  +--> ?PR?COMMANDSHELL?MAIN
  +--> ?PR?_PCT_RUNCOMMSHELL?COMMANDSHELL
  +--> ?PR?PCT_CHECKSYSTEM?COMMANDSHELL
  +--> ?PR?RS_RXREADY?UART
  +--> ?PR?PCT_GETVIDEOSIGNALSTATUS?OSDACTION_
  +--> ?PR?GPIO_CHECK?NED
  +--> ?PR?CAMERA_MOVE?NED
  +--> ?PR?_SC16_DATA_RESET?NED
  +--> ?PR?SC16_DATACHECK?NED
  +--> ?PR?_SET_CAMERA_SPEED?NED

?PR?INITIALMPU?MAIN                             -----    -----      -----    -----      -----    -----
  +--> ?PR?INITIALUART?UART
  +--> ?PR?INITIALTIMER0?TIMER
  +--> ?PR?INITIALTIMER2?TIMER

?PR?RESETCOMMSELL?MAIN                          -----    -----      -----    -----      -----    -----
  +--> ?PR?MAIN

?PR?_POWER_ONOFF?NED                            -----    -----      -----    -----      -----    -----
  +--> ?PR?_WAIT_MS?MAIN

?PR?_WAIT_MS?MAIN                               -----    -----      -----    -----      01D5H    0004H

?PR?SC16_INIT?NED                               -----    -----      -----    -----      0006H    0001H
  +--> ?PR?_WAIT_MS?MAIN
  +--> ?PR?NED
  +--> ?PR?_RESETDEVICE?NED
  +--> ?PR?_SETBAUDRATE?NED
  +--> ?PR?_SETLINE?NED
  +--> ?PR?_WRITEI2C?NED
  +--> ?PR?_GPIOSETPORTMODE?NED
  +--> ?PR?_GPIOSETPORTSTATE?NED

?PR?NED                                         -----    -----      -----    -----      -----    -----
  +--> ?PR?I2CDELAY2?NED

?PR?_RESETDEVICE?NED                            -----    -----      -----    -----      -----    -----
  +--> ?PR?_READI2C?NED
  +--> ?PR?_WRITEI2C?NED

?PR?_READI2C?NED                                -----    -----      -----    -----      -----    -----
  +--> ?PR?I2CSTART?NED
  +--> ?PR?_I2CWRITEDATA?NED
  +--> ?PR?NED
BL51 BANKED LINKER/LOCATER V6.22                                                      12/01/2015  16:17:03  PAGE 9


  +--> ?PR?I2CREADDATA?NED
  +--> ?PR?I2CSTOP?NED

?PR?I2CSTART?NED                                -----    -----      -----    -----      -----    -----
  +--> ?PR?I2CDELAY?NED

?PR?I2CDELAY?NED                                -----    -----      -----    -----      01DDH    0002H

?PR?_I2CWRITEDATA?NED                           -----    -----      -----    -----      -----    -----
  +--> ?PR?NED
  +--> ?PR?I2CDELAY?NED

?PR?I2CREADDATA?NED                             -----    -----      -----    -----      -----    -----
  +--> ?PR?I2CDELAY?NED

?PR?I2CSTOP?NED                                 -----    -----      -----    -----      -----    -----
  +--> ?PR?I2CDELAY?NED

?PR?_WRITEI2C?NED                               -----    -----      -----    -----      -----    -----
  +--> ?PR?I2CSTART?NED
  +--> ?PR?_I2CWRITEDATA?NED
  +--> ?PR?NED
  +--> ?PR?I2CSTOP?NED

?PR?_SETBAUDRATE?NED                            -----    -----      -----    -----      0007H    000AH
  +--> ?PR?_READI2C?NED
  +--> ?PR?_WRITEI2C?NED

?PR?_SETLINE?NED                                -----    -----      -----    -----      0007H    0004H
  +--> ?PR?_READI2C?NED
  +--> ?PR?_WRITEI2C?NED

?PR?_GPIOSETPORTMODE?NED                        -----    -----      -----    -----      -----    -----
  +--> ?PR?_WRITEI2C?NED

?PR?_GPIOSETPORTSTATE?NED                       -----    -----      -----    -----      -----    -----
  +--> ?PR?_WRITEI2C?NED

?PR?_MONITOR_SET?MAIN                           -----    -----      -----    -----      0006H    01CFH
  +--> ?CO?MAIN
  +--> ?PR?MAIN
  +--> ?PR?PCT_INITIALTW2835?TW2835_INIT
  +--> ?PR?_PCT_RUNCOMMSHELL?COMMANDSHELL
  +--> ?PR?_PCT_WRITEASICBYTE?BUSCTRL
  +--> ?PR?_BOUND_SET?NED

?PR?PCT_INITIALTW2835?TW2835_INIT               -----    -----      -----    -----      -----    -----
  +--> ?PR?PCT_TW2835RESETN?TW2835_INIT
  +--> ?PR?_PCT_READASICBYTE?BUSCTRL
  +--> ?PR?_PCT_DETECTVIDEOFORMAT?TW28XX_VIDEO
  +--> ?PR?_WAIT_MS?MAIN
  +--> ?PR?PCT_TW2835_INITIAL?TW2835_INIT
  +--> ?PR?PCT_INITIALOSD?OSDACTION_

?PR?_PCT_READASICBYTE?BUSCTRL                   -----    -----      -----    -----      01F2H    0004H
  +--> ?PR?MCTRL_SET?NED
  +--> ?PR?BUSCTRL
BL51 BANKED LINKER/LOCATER V6.22                                                      12/01/2015  16:17:03  PAGE 10



?PR?_PCT_DETECTVIDEOFORMAT?TW28XX_VIDEO         -----    -----      -----    -----      01D5H    0002H
  +--> ?PR?_PCT_READASICBYTE?BUSCTRL

?PR?PCT_TW2835_INITIAL?TW2835_INIT              -----    -----      -----    -----      01D5H    0002H
  +--> ?PR?TW2835_INIT
  +--> ?CO?TW2835_INIT
  +--> ?PR?_PCT_WRITEASICTABLE?BUSCTRL

?PR?TW2835_INIT                                 -----    -----      -----    -----      -----    -----
  +--> ?CO?TW2835_INIT

?PR?_PCT_WRITEASICTABLE?BUSCTRL                 -----    -----      -----    -----      01D7H    0007H
  +--> ?PR?BUSCTRL
  +--> ?PR?MCTRL_SET?NED

?PR?PCT_INITIALOSD?OSDACTION_                   -----    -----      0030H    0001H      -----    -----
  +--> ?PR?PCT_INITOSDCOLOR?OSDCTRL
  +--> ?PR?PCT_CLEARGRAPHATTR?OSD_GRAPH
  +--> ?PR?_PCT_PRESETFOREGROUNDCOLOR?OSDCTRL
  +--> ?PR?_PCT_PRESETBACKGROUNDCOLOR?OSDCTRL
  +--> ?PR?_PCT_ENSHOWOSDPAGE?OSDCTRL
  +--> ?PR?_PCT_SETOSDDRAWPAGE?OSDCTRL
  +--> ?PR?_PCT_FULLCOLORONOSD?OSDCTRL

?PR?PCT_INITOSDCOLOR?OSDCTRL                    -----    -----      -----    -----      -----    -----
  +--> ?PR?_PCT_WRITEASICBYTE?BUSCTRL
  +--> ?PR?OSDCTRL
  +--> ?PR?_PCT_SETOSDCOLOR?OSDCTRL

?PR?_PCT_WRITEASICBYTE?BUSCTRL                  -----    -----      -----    -----      01F2H    0004H
  +--> ?PR?BUSCTRL
  +--> ?PR?MCTRL_SET?NED

?PR?OSDCTRL                                     -----    -----      -----    -----      -----    -----
  +--> ?CO?OSDCTRL

?PR?_PCT_SETOSDCOLOR?OSDCTRL                    -----    -----      -----    -----      01D5H    0005H
  +--> ?PR?_PCT_WRITEASICBYTE?BUSCTRL

?PR?_PCT_ENSHOWOSDPAGE?OSDCTRL                  -----    -----      -----    -----      01DDH    0001H
  +--> ?PR?OSDCTRL
  +--> ?PR?_PCT_WRITEASICBYTE?BUSCTRL
  +--> ?PR?_PCT_READASICBYTE?BUSCTRL

?PR?_PCT_SETOSDDRAWPAGE?OSDCTRL                 -----    -----      -----    -----      01DDH    0001H
  +--> ?PR?OSDCTRL
  +--> ?PR?_PCT_READASICBYTE?BUSCTRL
  +--> ?PR?_PCT_WRITEASICBYTE?BUSCTRL

?PR?_PCT_FULLCOLORONOSD?OSDCTRL                 -----    -----      -----    -----      01DDH    0006H
  +--> ?PR?OSDCTRL
  +--> ?PR?_PCT_WRITEASICBYTE?BUSCTRL
  +--> ?PR?_PCT_READASICBYTE?BUSCTRL

?PR?_PCT_RUNCOMMSHELL?COMMANDSHELL              -----    -----      -----    -----      01D5H    0008H
  +--> ?PR?COMMANDSHELL
BL51 BANKED LINKER/LOCATER V6.22                                                      12/01/2015  16:17:03  PAGE 11


  +--> ?PR?_PCT_GETFIRSTSTR?COMMANDSHELL
  +--> ?PR?_PCT_STRTOCOMMCODE?COMMANDSHELL
  +--> ?CO?COMMANDSHELL
  +--> ?PR?_MONIWRITEASICBYTE?COMMANDSHELL
  +--> ?PR?_MONIYVIDEOMIX?COMMANDSHELL
  +--> ?PR?_MONIHSCOMM?COMMANDSHELL
  +--> ?PR?PCT_OSDACTIONFORHS?OSDACTION_
  +--> ?PR?_PCT_FLASHOSDCTRL?MAIN
  +--> ?PR?_MONIHSCOMMSJMODE?COMMANDSHELL
  +--> ?PR?REPEAT_PWM_COM?NED
  +--> ?PR?_PWM_SET?MAIN

?PR?COMMANDSHELL                                -----    -----      -----    -----      -----    -----
  +--> ?CO?COMMANDSHELL
  +--> ?PR?PCT_SENDACK?COMMANDSHELL

?PR?_PCT_GETFIRSTSTR?COMMANDSHELL               -----    -----      -----    -----      01DDH    0006H
  +--> ?PR?COMMANDSHELL

?PR?_PCT_STRTOCOMMCODE?COMMANDSHELL             -----    -----      0030H    0002H      01DDH    0003H
  +--> ?PR?COMMANDSHELL

?PR?_MONIWRITEASICBYTE?COMMANDSHELL             -----    -----      0030H    0004H      -----    -----
  +--> ?PR?COMMANDSHELL
  +--> ?CO?COMMANDSHELL
  +--> ?PR?SCANF?SCANF
  +--> ?PR?_PCT_WRITEASICBYTE?BUSCTRL

?PR?SCANF?SCANF                                 0024H.1  0000H.6    0034H    0005H      01DDH    002EH
  +--> ?PR?GETCHAR?UNGETCHAR
  +--> ?PR?_ISSPACE?ISSPACE
  +--> ?PR?GETCHAR?GETCHAR

?PR?GETCHAR?GETCHAR                             -----    -----      -----    -----      -----    -----
  +--> ?PR?_GETKEY?_GETKEY
  +--> ?PR?PUTCHAR?PUTCHAR

?PR?_MONIYVIDEOMIX?COMMANDSHELL                 -----    -----      0030H    0001H      -----    -----
  +--> ?PR?COMMANDSHELL
  +--> ?PR?SCANF?SCANF
  +--> ?PR?_PCT_SETYVIDEOMIXING?TW28XX_VIDEO

?PR?_PCT_SETYVIDEOMIXING?TW28XX_VIDEO           -----    -----      -----    -----      -----    -----
  +--> ?CO?TW28XX_VIDEO
  +--> ?PR?_PCT_WRITESTABLE?BUSCTRL

?PR?_PCT_WRITESTABLE?BUSCTRL                    -----    -----      -----    -----      01E4H    0003H
  +--> ?PR?BUSCTRL
  +--> ?PR?_PCT_READASICBYTE?BUSCTRL
  +--> ?PR?_PCT_WRITEASICBYTE?BUSCTRL

?PR?_MONIHSCOMM?COMMANDSHELL                    -----    -----      0030H    0003H      -----    -----
  +--> ?PR?COMMANDSHELL
  +--> ?CO?COMMANDSHELL
  +--> ?PR?SCANF?SCANF
  +--> ?PR?_PCT_WINATTRCTRLY?TW28XX_VIDEO
  +--> ?PR?_PCT_RECOMPENSEYHDELAY?TW28XX_VIDEO
BL51 BANKED LINKER/LOCATER V6.22                                                      12/01/2015  16:17:03  PAGE 12


  +--> ?PR?_PCT_SETVIDEOHDELAY?TW28XX_VIDEO
  +--> ?PR?_PCT_SETXVIDEOMIXING?TW28XX_VIDEO
  +--> ?PR?_PCT_WINATTRCTRL?TW28XX_VIDEO
  +--> ?PR?_PCT_FLASHOSDCTRL?MAIN
  +--> ?PR?_PCT_CHECKVMIXTYPE?COMMANDSHELL
  +--> ?PR?_PCT_DISSHOWOSDPAGE?OSDCTRL
  +--> ?PR?_PCT_CLEAROSDPAGEX?OSDCTRL
  +--> ?PR?PCT_SHOWMODEICON?OSDACTION_
  +--> ?PR?_PCT_OSD_ACTIONPTHX?OSDACTION_

?PR?_PCT_WINATTRCTRLY?TW28XX_VIDEO              -----    -----      -----    -----      01DDH    0003H
  +--> ?PR?TW28XX_VIDEO
  +--> ?PR?_PCT_READASICBYTE?BUSCTRL
  +--> ?PR?_PCT_WRITEASICBYTE?BUSCTRL

?PR?TW28XX_VIDEO                                -----    -----      -----    -----      -----    -----
  +--> ?CO?TW28XX_VIDEO

?PR?_PCT_RECOMPENSEYHDELAY?TW28XX_VIDEO         -----    -----      -----    -----      01DDH    0003H
  +--> ?PR?TW28XX_VIDEO
  +--> ?PR?_PCT_READASICBYTE?BUSCTRL
  +--> ?CO?TW28XX_VIDEO
  +--> ?PR?_PCT_WRITEASICBYTE?BUSCTRL

?PR?_PCT_SETVIDEOHDELAY?TW28XX_VIDEO            -----    -----      -----    -----      01DDH    0008H
  +--> ?PR?TW28XX_VIDEO
  +--> ?PR?_PCT_READASICBYTE?BUSCTRL
  +--> ?PR?_PCT_WRITEASICBYTE?BUSCTRL
  +--> ?CO?TW28XX_VIDEO

?PR?_PCT_SETXVIDEOMIXING?TW28XX_VIDEO           -----    -----      -----    -----      01DDH    0007H
  +--> ?PR?TW28XX_VIDEO
  +--> ?PR?_PCT_WRITEASICBYTE?BUSCTRL
  +--> ?CO?TW28XX_VIDEO
  +--> ?PR?_PCT_SETCHANELSCALE?TW28XX_VIDEO
  +--> ?PR?_PCT_WRITESTABLE?BUSCTRL

?PR?_PCT_SETCHANELSCALE?TW28XX_VIDEO            -----    -----      -----    -----      01E4H    0008H
  +--> ?PR?TW28XX_VIDEO
  +--> ?CO?TW28XX_VIDEO
  +--> ?PR?_PCT_WRITEASICBYTE?BUSCTRL

?PR?_PCT_WINATTRCTRL?TW28XX_VIDEO               -----    -----      -----    -----      01DDH    0003H
  +--> ?PR?TW28XX_VIDEO
  +--> ?PR?_PCT_READASICBYTE?BUSCTRL
  +--> ?PR?_PCT_WRITEASICBYTE?BUSCTRL

?PR?_PCT_CHECKVMIXTYPE?COMMANDSHELL             -----    -----      0033H    0001H      -----    -----
  +--> ?PR?COMMANDSHELL

?PR?_PCT_DISSHOWOSDPAGE?OSDCTRL                 -----    -----      -----    -----      01DDH    0003H
  +--> ?PR?OSDCTRL
  +--> ?PR?_PCT_READASICBYTE?BUSCTRL
  +--> ?PR?_PCT_WRITEASICBYTE?BUSCTRL

?PR?_PCT_CLEAROSDPAGEX?OSDCTRL                  -----    -----      -----    -----      -----    -----
  +--> ?PR?_PCT_SETOSDDRAWPAGE?OSDCTRL
BL51 BANKED LINKER/LOCATER V6.22                                                      12/01/2015  16:17:03  PAGE 13


  +--> ?PR?_PCT_PRESETBACKGROUNDCOLOR?OSDCTRL
  +--> ?PR?_PCT_FULLCOLORONOSD?OSDCTRL

?PR?PCT_SHOWMODEICON?OSDACTION_                 -----    -----      -----    -----      -----    -----
  +--> ?PR?_PCT_SETOSDDRAWPAGE?OSDCTRL
  +--> ?PR?OSDACTION_
  +--> ?CO?OSDACTION_
  +--> ?PR?_PCT_SHOWGRAPHSTRING?OSD_GRAPH
  +--> ?PR?_PCT_PRESETBACKGROUNDCOLOR?OSDCTRL
  +--> ?PR?_PCT_PRESETFOREGROUNDCOLOR?OSDCTRL

?PR?OSDACTION_                                  -----    -----      -----    -----      -----    -----
  +--> ?CO?OSDACTION_

?PR?_PCT_SHOWGRAPHSTRING?OSD_GRAPH              -----    -----      -----    -----      01E0H    0007H
  +--> ?PR?OSD_GRAPH
  +--> ?PR?_STRLEN?STRLEN
  +--> ?PR?_PCT_OSD16X16GRAPHX?OSD_GRAPH
  +--> ?PR?PTC_SWITCHTOI2CMODE?BUSCTRL

?PR?_PCT_OSD16X16GRAPHX?OSD_GRAPH               -----    -----      -----    -----      01E7H    000BH
  +--> ?CO?OSD_GRAPH
  +--> ?PR?OSD_GRAPH
  +--> ?PR?_PCT_WRITEASICBYTE?BUSCTRL
  +--> ?PR?_PCT_READASICBYTE?BUSCTRL

?PR?_PCT_OSD_ACTIONPTHX?OSDACTION_              -----    -----      -----    -----      01DDH    0003H
  +--> ?PR?OSDACTION_
  +--> ?PR?_PCT_PRESETFOREGROUNDCOLOR?OSDCTRL
  +--> ?PR?_PCT_PRESETBACKGROUNDCOLOR?OSDCTRL
  +--> ?PR?_PCT_SHOWGRAPHSTRING?OSD_GRAPH

?PR?PCT_OSDACTIONFORHS?OSDACTION_               -----    -----      -----    -----      -----    -----
  +--> ?PR?_PCT_SETOSDDRAWPAGE?OSDCTRL
  +--> ?PR?_PCT_SHOWMIRRORICON?OSDACTION_
  +--> ?PR?_PCT_SHOWINDICATEICON?OSDACTION_
  +--> ?PR?PCT_ENFALSHVLOSS?OSDACTION_
  +--> ?PR?_PCT_ENSHOWOSDPAGE?OSDCTRL

?PR?_PCT_SHOWMIRRORICON?OSDACTION_              -----    -----      -----    -----      01DDH    0003H
  +--> ?PR?OSDACTION_
  +--> ?PR?_PCT_PRESETFOREGROUNDCOLOR?OSDCTRL
  +--> ?PR?_PCT_CLEARWORDSPATHX?OSDCTRL
  +--> ?PR?_PCT_SHOWGRAPHSTRING?OSD_GRAPH
  +--> ?CO?OSDACTION_

?PR?_PCT_CLEARWORDSPATHX?OSDCTRL                -----    -----      -----    -----      01E0H    0007H
  +--> ?PR?OSDCTRL
  +--> ?PR?_PCT_WRITEASICBYTE?BUSCTRL
  +--> ?PR?_PCT_READASICBYTE?BUSCTRL

?PR?_PCT_SHOWINDICATEICON?OSDACTION_            -----    -----      0030H    0001H      01DDH    0003H
  +--> ?PR?OSDACTION_
  +--> ?PR?_PCT_PRESETFOREGROUNDCOLOR?OSDCTRL
  +--> ?PR?_PCT_SHOWGRAPHSTRING?OSD_GRAPH
  +--> ?PR?_PCT_CLEARWORDSPATHX?OSDCTRL
  +--> ?CO?OSDACTION_
BL51 BANKED LINKER/LOCATER V6.22                                                      12/01/2015  16:17:03  PAGE 14



?PR?_MONIHSCOMMSJMODE?COMMANDSHELL              -----    -----      -----    -----      -----    -----
  +--> ?PR?COMMANDSHELL
  +--> ?CO?COMMANDSHELL
  +--> ?PR?SCANF?SCANF

?PR?REPEAT_PWM_COM?NED                          -----    -----      -----    -----      -----    -----
  +--> ?PR?_WRITEBYTE?NED

?PR?_WRITEBYTE?NED                              -----    -----      -----    -----      -----    -----
  +--> ?PR?_WRITEI2C?NED

?PR?_PWM_SET?MAIN                               -----    -----      -----    -----      -----    -----
  +--> ?PR?MAIN
  +--> ?PR?_SET_PWM_OUTPUT?MAIN

?PR?_SET_PWM_OUTPUT?MAIN                        -----    -----      -----    -----      01DDH    0008H
  +--> ?CO?MAIN
  +--> ?PR?MAIN

?PR?_BOUND_SET?NED                              -----    -----      -----    -----      01D5H    0004H
  +--> ?CO?NED
  +--> ?PR?NED
  +--> ?PR?_PCT_WRITEASICBYTE?BUSCTRL

?PR?_GPIOGETPORTSTATE?NED                       -----    -----      -----    -----      -----    -----
  +--> ?PR?_READI2C?NED

?PR?COMMANDSHELL?MAIN                           -----    -----      0030H    0001H      -----    -----
  +--> ?PR?RS_RXREADY?UART
  +--> ?PR?RS_RX?UART
  +--> ?PR?MAIN
  +--> ?PR?_SC16_BCC_CHECK?NED
  +--> ?PR?RESETCOMMSELL?MAIN

?PR?RS_RX?UART                                  -----    -----      -----    -----      -----    -----
  +--> ?PR?UART

?PR?_SC16_BCC_CHECK?NED                         -----    -----      -----    -----      0006H    0006H
  +--> ?PR?NED
  +--> ?PR?_RS_TX?UART
  +--> ?PR?_WRITEBYTE?NED
  +--> ?PR?SEND_CAMERA_TEMP?NED
  +--> ?PR?SEND_CAMERA_PRESS?NED
  +--> ?PR?SENT_CAMERA_ANG?NED
  +--> ?PR?SENT_CAMERA_RANG?NED
  +--> ?PR?_SENT_CAMERA_IRD?NED
  +--> ?PR?SENT_DVR_TEMP?NED
  +--> ?PR?VERSION_CHECK?MAIN
  +--> ?PR?CAMERA_VERSION_CHECK?MAIN
  +--> ?PR?CHECK_OTHER_COM?NED
  +--> ?PR?_SC16_SENDDATA?NED

?PR?SEND_CAMERA_TEMP?NED                        -----    -----      -----    -----      000CH    0001H
  +--> ?PR?NED
  +--> ?PR?_BCC_CAL?NED
  +--> ?PR?_RS_TX?UART
BL51 BANKED LINKER/LOCATER V6.22                                                      12/01/2015  16:17:03  PAGE 15



?PR?_BCC_CAL?NED                                -----    -----      -----    -----      000DH    0002H

?PR?SEND_CAMERA_PRESS?NED                       -----    -----      -----    -----      000CH    0001H
  +--> ?PR?NED
  +--> ?PR?_BCC_CAL?NED
  +--> ?PR?_RS_TX?UART

?PR?SENT_CAMERA_ANG?NED                         -----    -----      -----    -----      000CH    0001H
  +--> ?PR?NED
  +--> ?PR?_BCC_CAL?NED
  +--> ?PR?_RS_TX?UART

?PR?SENT_CAMERA_RANG?NED                        -----    -----      -----    -----      000CH    0001H
  +--> ?PR?NED
  +--> ?PR?_BCC_CAL?NED
  +--> ?PR?_RS_TX?UART

?PR?_SENT_CAMERA_IRD?NED                        -----    -----      -----    -----      000CH    0003H
  +--> ?PR?_RS_TX?UART

?PR?SENT_DVR_TEMP?NED                           -----    -----      -----    -----      000CH    0001H
  +--> ?PR?NED
  +--> ?PR?_BCC_CAL?NED
  +--> ?PR?_RS_TX?UART

?PR?VERSION_CHECK?MAIN                          -----    -----      -----    -----      000CH    0001H
  +--> ?PR?MAIN
  +--> ?PR?_RS_TX?UART

?PR?CAMERA_VERSION_CHECK?MAIN                   -----    -----      -----    -----      000CH    0001H
  +--> ?PR?MAIN
  +--> ?PR?_RS_TX?UART

?PR?CHECK_OTHER_COM?NED                         -----    -----      -----    -----      -----    -----
  +--> ?PR?_RS_TX?UART

?PR?_SC16_SENDDATA?NED                          -----    -----      -----    -----      000CH    0002H
  +--> ?PR?_WRITEBYTE?NED

?PR?PCT_CHECKSYSTEM?COMMANDSHELL                -----    -----      -----    -----      -----    -----
  +--> ?PR?_PCT_DETECTVIDEOFORMAT?TW28XX_VIDEO
  +--> ?PR?_PCT_ENSHOWOSDPAGE?OSDCTRL
  +--> ?PR?_PCT_CHANGESYSTEMTYPE?TW2835_INIT
  +--> ?PR?_PCT_RECOMPENSEYHDELAY?TW28XX_VIDEO
  +--> ?PR?COMMANDSHELL
  +--> ?PR?_PCT_SETVIDEOHDELAY?TW28XX_VIDEO
  +--> ?PR?_PCT_SETXVIDEOMIXING?TW28XX_VIDEO
  +--> ?PR?_PCT_CLEAROSDPAGEX?OSDCTRL
  +--> ?PR?PCT_SHOWMODEICON?OSDACTION_
  +--> ?PR?_PCT_OSD_ACTIONPTHX?OSDACTION_
  +--> ?PR?PCT_OSDACTIONFORHS?OSDACTION_

?PR?_PCT_CHANGESYSTEMTYPE?TW2835_INIT           -----    -----      -----    -----      0006H    0002H
  +--> ?PR?TW2835_INIT
  +--> ?CO?TW2835_INIT
  +--> ?PR?_PCT_WRITEASICTABLE?BUSCTRL
BL51 BANKED LINKER/LOCATER V6.22                                                      12/01/2015  16:17:03  PAGE 16



?PR?PCT_GETVIDEOSIGNALSTATUS?OSDACTION_         -----    -----      -----    -----      -----    -----
  +--> ?PR?_PCT_READASICBYTE?BUSCTRL
  +--> ?PR?_PCT_WRITEASICBYTE?BUSCTRL
  +--> ?PR?_PCT_PRESETFOREGROUNDCOLOR?OSDCTRL
  +--> ?PR?_PCT_PRESETGRAPHATTR?OSD_GRAPH
  +--> ?PR?PCT_CLEARGRAPHATTR?OSD_GRAPH

?PR?GPIO_CHECK?NED                              -----    -----      -----    -----      0006H    0002H
  +--> ?PR?_GPIOGETPORTSTATE?NED

?PR?CAMERA_MOVE?NED                             -----    -----      -----    -----      0006H    000DH
  +--> ?CO?NED
  +--> ?PR?NED
  +--> ?PR?_WRITEBYTE?NED

?PR?_SC16_DATA_RESET?NED                        -----    -----      -----    -----      -----    -----
  +--> ?PR?TEMP_CHECK?MAIN
  +--> ?PR?PRESS_CHECK?MAIN
  +--> ?PR?GET_CAMERA_ANG?NED
  +--> ?PR?GET_CAMERA_RANG?NED
  +--> ?PR?GET_DVR_TEMP?NED
  +--> ?PR?GET_CAMERA_VER?NED

?PR?TEMP_CHECK?MAIN                             -----    -----      -----    -----      -----    -----
  +--> ?PR?_READI2CWORD?NED

?PR?_READI2CWORD?NED                            -----    -----      -----    -----      0006H    0002H
  +--> ?PR?I2CSTART?NED
  +--> ?PR?_I2CWRITEDATA?NED
  +--> ?PR?I2CREADDATAWITHACK?NED
  +--> ?PR?I2CREADDATA?NED
  +--> ?PR?I2CSTOP?NED

?PR?I2CREADDATAWITHACK?NED                      -----    -----      -----    -----      -----    -----
  +--> ?PR?I2CDELAY?NED

?PR?PRESS_CHECK?MAIN                            -----    -----      -----    -----      0006H    0007H
  +--> ?PR?MAIN
  +--> ?PR?_ADC_READ?NED

?PR?GET_CAMERA_ANG?NED                          -----    -----      -----    -----      -----    -----
  +--> ?PR?_WRITEBYTE?NED

?PR?GET_CAMERA_RANG?NED                         -----    -----      -----    -----      -----    -----
  +--> ?PR?_WRITEBYTE?NED

?PR?GET_DVR_TEMP?NED                            -----    -----      -----    -----      -----    -----
  +--> ?PR?_WRITEBYTE?NED

?PR?GET_CAMERA_VER?NED                          -----    -----      -----    -----      -----    -----
  +--> ?PR?_WRITEBYTE?NED

?PR?SC16_DATACHECK?NED                          -----    -----      -----    -----      0006H    0003H
  +--> ?PR?_SC16_SENDDATASELECT?NED

?PR?_SC16_SENDDATASELECT?NED                    -----    -----      -----    -----      0009H    0009H
BL51 BANKED LINKER/LOCATER V6.22                                                      12/01/2015  16:17:03  PAGE 17


  +--> ?PR?NED
  +--> ?PR?_READI2C?NED
  +--> ?PR?_READBYTE?NED
  +--> ?PR?_RS_TX?UART
  +--> ?PR?_SC16_COMCHECK?NED

?PR?_READBYTE?NED                               -----    -----      -----    -----      0012H    0001H
  +--> ?PR?_READI2C?NED

?PR?_SC16_COMCHECK?NED                          -----    -----      -----    -----      0012H    0002H
  +--> ?PR?NED

?PR?_SET_CAMERA_SPEED?NED                       -----    -----      -----    -----      -----    -----
  +--> ?PR?_WRITEBYTE?NED

*** NEW ROOT ***************************************************

?PR?RS_INTERRUPT?UART                           -----    -----      -----    -----      -----    -----
  +--> ?PR?UART



SYMBOL TABLE OF MODULE:  .\OBJ\NED_5MCMOS_v0_a_0_XXXX_20151201 (?C_STARTUP)

  VALUE           TYPE          NAME
  ----------------------------------

  -------         MODULE        ?C_STARTUP
  C:8804H         SEGMENT       ?C_C51STARTUP
  I:0068H         SEGMENT       ?STACK
  C:0000H         PUBLIC        ?C_STARTUP
  D:00E0H         SYMBOL        ACC
  D:00F0H         SYMBOL        B
  D:0083H         SYMBOL        DPH
  D:0082H         SYMBOL        DPL
  N:0000H         SYMBOL        IBPSTACK
  N:0100H         SYMBOL        IBPSTACKTOP
  N:0080H         SYMBOL        IDATALEN
  C:8807H         SYMBOL        IDATALOOP
  N:0000H         SYMBOL        PBPSTACK
  N:0100H         SYMBOL        PBPSTACKTOP
  N:0000H         SYMBOL        PDATALEN
  N:0000H         SYMBOL        PDATASTART
  N:0000H         SYMBOL        PPAGE
  N:0000H         SYMBOL        PPAGEENABLE
  D:00A0H         SYMBOL        PPAGE_SFR
  D:0081H         SYMBOL        SP
  C:8804H         SYMBOL        STARTUP1
  N:0000H         SYMBOL        XBPSTACK
  N:0000H         SYMBOL        XBPSTACKTOP
  N:0000H         SYMBOL        XDATALEN
  N:0000H         SYMBOL        XDATASTART
  C:0000H         LINE#         126
  C:8804H         LINE#         133
  C:8806H         LINE#         134
  C:8807H         LINE#         135
  C:8808H         LINE#         136
BL51 BANKED LINKER/LOCATER V6.22                                                      12/01/2015  16:17:03  PAGE 18


  C:880AH         LINE#         185
  C:880DH         LINE#         196
  -------         ENDMOD        ?C_STARTUP

  -------         MODULE        UART
  C:0000H         SYMBOL        _ICE_DUMMY_
  D:0080H         PUBLIC        P0
  D:0090H         PUBLIC        P1
  D:00A0H         PUBLIC        P2
  D:00C0H         PUBLIC        XICON
  D:00B0H         PUBLIC        P3
  D:00E8H         PUBLIC        P4
  C:A3E7H         PUBLIC        InitialUART
  D:00A8H         PUBLIC        IE
  X:028DH         PUBLIC        RS_RECVBUF
  B:00A8H.4       PUBLIC        ES
  D:00B8H         PUBLIC        IP
  B:0098H.0       PUBLIC        RI
  B:0098H.1       PUBLIC        TI
  B:00B8H.4       PUBLIC        PS
  D:00D8H         PUBLIC        CCON
  D:0099H         PUBLIC        SBUF
  D:00C0H         PUBLIC        WDTC
  D:0098H         PUBLIC        SCON
  D:0088H         PUBLIC        TCON
  C:A525H         PUBLIC        RS_RxReady
  D:008DH         PUBLIC        TH1
  D:008BH         PUBLIC        TL1
  X:02F1H         PUBLIC        RsRxRp
  B:0088H.6       PUBLIC        TR1
  X:02F2H         PUBLIC        RsRxWp
  D:00F8H         PUBLIC        IPA
  D:00C8H         PUBLIC        T2CON
  C:A39DH         PUBLIC        RS_rx
  C:0003H         PUBLIC        _RS_tx
  C:9EEDH         PUBLIC        RS_interrupt
  D:00D0H         PUBLIC        PSW
  C:A5EEH         SYMBOL        Com000E
  C:A5EEH         SYMBOL        L?0015
  -------         PROC          COM000E
  -------         ENDPROC       COM000E
  -------         PROC          INITIALUART
  C:A3E7H         LINE#         75
  C:A3E7H         LINE#         76
  C:A3E7H         LINE#         79
  C:A3E9H         LINE#         80
  C:A3EBH         LINE#         84
  C:A3EEH         LINE#         99
  C:A3F1H         LINE#         103
  C:A3F4H         LINE#         104
  C:A3F6H         LINE#         106
  C:A3FAH         LINE#         107
  C:A3FCH         LINE#         108
  -------         ENDPROC       INITIALUART
  -------         PROC          RS_RXREADY
  C:A525H         LINE#         114
  C:A525H         LINE#         115
BL51 BANKED LINKER/LOCATER V6.22                                                      12/01/2015  16:17:03  PAGE 19


  C:A525H         LINE#         116
  C:A532H         LINE#         117
  C:A534H         LINE#         118
  -------         ENDPROC       RS_RXREADY
  -------         PROC          RS_RX
  -------         DO            
  D:0007H         SYMBOL        ret
  -------         ENDDO         
  C:A39DH         LINE#         124
  C:A39DH         LINE#         125
  C:A39DH         LINE#         131
  C:A3A5H         LINE#         132
  C:A3ABH         LINE#         133
  C:A3B1H         LINE#         134
  C:A3B3H         LINE#         138
  C:A3B5H         LINE#         140
  C:A3B5H         LINE#         141
  -------         ENDPROC       RS_RX
  -------         PROC          _RS_TX
  D:0007H         SYMBOL        tx_buf
  C:0003H         LINE#         147
  C:0003H         LINE#         148
  C:0003H         LINE#         166
  C:0003H         LINE#         167
  C:0003H         LINE#         169
  C:0006H         LINE#         178
  C:0008H         LINE#         179
  C:000AH         LINE#         180
  C:000AH         LINE#         181
  C:000AH         LINE#         182
  C:000AH         LINE#         185
  -------         ENDPROC       _RS_TX
  -------         PROC          RS_INTERRUPT
  C:9EEDH         LINE#         193
  C:9EF5H         LINE#         196
  C:9EF8H         LINE#         197
  C:9EFAH         LINE#         206
  C:9F03H         LINE#         210
  C:9F09H         LINE#         211
  C:9F11H         LINE#         218
  C:9F11H         LINE#         221
  -------         ENDPROC       RS_INTERRUPT
  -------         ENDMOD        UART

  -------         MODULE        BUSCTRL
  C:0000H         SYMBOL        _ICE_DUMMY_
  D:0080H         PUBLIC        P0
  D:0090H         PUBLIC        P1
  D:00A0H         PUBLIC        P2
  D:00C0H         PUBLIC        XICON
  D:00B0H         PUBLIC        P3
  D:00E8H         PUBLIC        P4
  B:00A8H.7       PUBLIC        EA
  D:00A8H         PUBLIC        IE
  C:9268H         PUBLIC        _PCT_WriteSTable
  D:00B8H         PUBLIC        IP
  B:00A0H.3       PUBLIC        HALE
BL51 BANKED LINKER/LOCATER V6.22                                                      12/01/2015  16:17:03  PAGE 20


  B:00A0H.2       PUBLIC        HRDB
  D:00D8H         PUBLIC        CCON
  D:00C0H         PUBLIC        WDTC
  B:00A0H.1       PUBLIC        HWRB
  D:0098H         PUBLIC        SCON
  D:0088H         PUBLIC        TCON
  C:891CH         PUBLIC        _PCT_WriteAsicTable
  C:A686H         PUBLIC        PTC_SwitchToI2CMode
  B:00B0H.6       PUBLIC        HCSB0
  B:00B0H.7       PUBLIC        HCSB1
  D:00F8H         PUBLIC        IPA
  C:8890H         PUBLIC        _PCT_ReadAsicByte
  D:00C8H         PUBLIC        T2CON
  C:8DFAH         PUBLIC        _PCT_WriteAsicByte
  D:00D0H         PUBLIC        PSW
  C:9A7AH         SYMBOL        Com0038
  C:9A7AH         SYMBOL        L?0057
  C:9A7DH         SYMBOL        L?0058
  C:9A7FH         SYMBOL        L?0059
  C:9A87H         SYMBOL        L?0060
  C:9A87H         SYMBOL        L?0061
  C:9A8FH         SYMBOL        L?0062
  C:9A8FH         SYMBOL        L?0063
  C:9A96H         SYMBOL        L?0064
  C:9AA2H         SYMBOL        L?0065
  C:9AACH         SYMBOL        L?0066
  -------         PROC          COM0038
  -------         ENDPROC       COM0038
  -------         PROC          _PCT_WRITEASICBYTE
  D:0007H         SYMBOL        _dvc
  X:01F3H         SYMBOL        _pg
  X:01F4H         SYMBOL        _addr
  X:01F5H         SYMBOL        _wdat
  C:8DFAH         LINE#         63
  C:8DFDH         LINE#         64
  C:8DFDH         LINE#         65
  C:8DFDH         LINE#         67
  C:8E00H         LINE#         70
  C:8E03H         LINE#         75
  C:8E10H         LINE#         76
  C:8E1AH         LINE#         77
  C:8E22H         LINE#         78
  C:8E25H         LINE#         79
  C:8E25H         LINE#         82
  C:8E38H         LINE#         84
  C:8E3AH         LINE#         85
  C:8E40H         LINE#         86
  C:8E42H         LINE#         89
  C:8E55H         LINE#         92
  C:8E57H         LINE#         96
  C:8E5AH         LINE#         101
  C:8E5AH         LINE#         102
  C:8E5AH         LINE#         103
  C:8E5AH         LINE#         104
  C:8E5DH         LINE#         105
  -------         ENDPROC       _PCT_WRITEASICBYTE
  -------         PROC          _PCT_WRITEASICTABLE
BL51 BANKED LINKER/LOCATER V6.22                                                      12/01/2015  16:17:03  PAGE 21


  D:0007H         SYMBOL        _dvc
  X:01D8H         SYMBOL        _pg
  X:01D9H         SYMBOL        _addr
  X:01DAH         SYMBOL        _tbl_ptr
  X:01DDH         SYMBOL        _tbl_cnt
  C:891CH         LINE#         111
  C:891FH         LINE#         112
  C:891FH         LINE#         113
  C:891FH         LINE#         115
  C:8922H         LINE#         119
  C:8925H         LINE#         124
  C:8932H         LINE#         125
  C:893CH         LINE#         126
  C:8944H         LINE#         128
  C:8944H         LINE#         129
  C:894DH         LINE#         130
  C:894DH         LINE#         133
  C:8960H         LINE#         136
  C:8962H         LINE#         138
  C:8977H         LINE#         139
  C:8979H         LINE#         142
  C:898CH         LINE#         145
  C:898EH         LINE#         146
  C:8996H         LINE#         150
  C:8999H         LINE#         155
  C:8999H         LINE#         156
  C:8999H         LINE#         157
  C:8999H         LINE#         158
  C:899CH         LINE#         159
  -------         ENDPROC       _PCT_WRITEASICTABLE
  -------         PROC          _PCT_READASICBYTE
  X:01F2H         SYMBOL        _dvc
  X:01F3H         SYMBOL        _pg
  X:01F4H         SYMBOL        _addr
  -------         DO            
  X:01F5H         SYMBOL        _rdat_
  -------         ENDDO         
  C:8890H         LINE#         165
  C:889BH         LINE#         166
  C:889BH         LINE#         169
  C:889DH         LINE#         173
  C:88A0H         LINE#         178
  C:88A5H         LINE#         179
  C:88B0H         LINE#         180
  C:88BAH         LINE#         181
  C:88C2H         LINE#         183
  C:88C5H         LINE#         184
  C:88C5H         LINE#         186
  C:88D8H         LINE#         189
  C:88DAH         LINE#         190
  C:88DDH         LINE#         192
  C:88F0H         LINE#         196
  C:88F2H         LINE#         197
  C:88F8H         LINE#         201
  C:890BH         LINE#         204
  C:890DH         LINE#         208
  C:8910H         LINE#         213
BL51 BANKED LINKER/LOCATER V6.22                                                      12/01/2015  16:17:03  PAGE 22


  C:8912H         LINE#         214
  C:8914H         LINE#         215
  C:8916H         LINE#         216
  C:891BH         LINE#         217
  -------         ENDPROC       _PCT_READASICBYTE
  -------         PROC          _PCT_WRITESTABLE
  D:0007H         SYMBOL        _dvc
  X:01E4H         SYMBOL        _tbl_ptr
  C:9268H         LINE#         224
  C:9273H         LINE#         225
  C:9273H         LINE#         229
  C:9273H         LINE#         230
  C:9281H         LINE#         231
  C:929BH         LINE#         232
  C:929BH         LINE#         233
  C:92ADH         LINE#         234
  C:92ADH         LINE#         235
  C:92B7H         LINE#         236
  C:92B9H         LINE#         237
  -------         ENDPROC       _PCT_WRITESTABLE
  -------         PROC          PTC_SWITCHTOI2CMODE
  C:A686H         LINE#         243
  C:A686H         LINE#         244
  C:A686H         LINE#         254
  -------         ENDPROC       PTC_SWITCHTOI2CMODE
  -------         ENDMOD        BUSCTRL

  -------         MODULE        COMMANDSHELL
  C:0000H         SYMBOL        _ICE_DUMMY_
  D:0080H         PUBLIC        P0
  D:0090H         PUBLIC        P1
  D:00A0H         PUBLIC        P2
  D:00C0H         PUBLIC        XICON
  D:00B0H         PUBLIC        P3
  D:00E8H         PUBLIC        P4
  C:A3FDH         PUBLIC        _MoniHSCommSJmode
  C:9B2DH         PUBLIC        MoniVideoAutoDetect
  C:7AE2H         PUBLIC        _PCT_RunCommShell
  C:6F71H         PUBLIC        _MoniAudioGain
  D:00A8H         PUBLIC        IE
  C:9C12H         PUBLIC        _MoniReadOneBuffer
  D:00B8H         PUBLIC        IP
  C:A4EFH         PUBLIC        _MoniYVideoMix
  X:037FH         PUBLIC        sysdat
  C:A43EH         PUBLIC        _MoniAudioLive
  D:00D8H         PUBLIC        CCON
  C:A687H         PUBLIC        PCT_SendACK
  C:9DC3H         PUBLIC        _MoniWriteOneBuffer
  C:A555H         PUBLIC        MoniAudioMute
  C:A4B6H         PUBLIC        MoniHSCommVersion
  C:77B8H         PUBLIC        _MoniSetVideoFormat
  C:955FH         PUBLIC        _MoniReadAsicByte
  C:8B7CH         PUBLIC        _PCT_GetFirstStr
  C:8CC1H         PUBLIC        PCT_CheckSystem
  D:00C0H         PUBLIC        WDTC
  D:0098H         PUBLIC        SCON
  D:0088H         PUBLIC        TCON
BL51 BANKED LINKER/LOCATER V6.22                                                      12/01/2015  16:17:03  PAGE 23


  C:930AH         PUBLIC        _MoniWriteAsicByte
  C:6E23H         PUBLIC        _MoniHSComm
  X:0390H         PUBLIC        msg
  C:9A3DH         PUBLIC        _PCT_StrToCommCode
  C:9517H         PUBLIC        _PCT_CheckVMixType
  C:0026H         PUBLIC        MoniHSCommDisScroll
  D:00F8H         PUBLIC        IPA
  C:8F89H         PUBLIC        _MoniShowSODStr
  C:58BDH         PUBLIC        _MoniVideoMixAttr
  C:95EEH         PUBLIC        PCT_AudioActionForHS
  D:00C8H         PUBLIC        T2CON
  C:91BDH         PUBLIC        _MoniVideoMixWin
  C:95A7H         PUBLIC        _MoniReadPageBuffer
  X:0398H         PUBLIC        Original_selwintype
  C:93A3H         PUBLIC        MoniRegisterDump
  D:00D0H         PUBLIC        PSW
  C:6700H         PUBLIC        _MoniAudioMixing
  C:569EH         SYMBOL        Com00B2
  C:569EH         SYMBOL        L?0179
  C:569FH         SYMBOL        L?0180
  C:56D5H         SYMBOL        L?0181
  C:56DCH         SYMBOL        L?0182
  C:56DDH         SYMBOL        L?0183
  C:5713H         SYMBOL        L?0184
  C:571AH         SYMBOL        L?0185
  C:571BH         SYMBOL        L?0186
  C:573BH         SYMBOL        L?0187
  C:5742H         SYMBOL        L?0188
  C:5743H         SYMBOL        L?0189
  C:5747H         SYMBOL        L?0190
  C:5750H         SYMBOL        L?0191
  C:5750H         SYMBOL        L?0192
  C:575CH         SYMBOL        L?0193
  C:5763H         SYMBOL        L?0194
  C:5773H         SYMBOL        L?0195
  C:577AH         SYMBOL        L?0196
  C:578AH         SYMBOL        L?0197
  C:5791H         SYMBOL        L?0198
  C:57A1H         SYMBOL        L?0199
  C:57A8H         SYMBOL        L?0200
  C:57B4H         SYMBOL        L?0201
  C:57BBH         SYMBOL        L?0202
  C:57C7H         SYMBOL        L?0203
  C:57CEH         SYMBOL        L?0204
  C:57D3H         SYMBOL        L?0205
  C:57DAH         SYMBOL        L?0206
  C:57DFH         SYMBOL        L?0207
  C:57E6H         SYMBOL        L?0208
  C:57E6H         SYMBOL        L?0209
  C:57EEH         SYMBOL        L?0210
  C:57EEH         SYMBOL        L?0211
  C:57F6H         SYMBOL        L?0212
  C:57FEH         SYMBOL        L?0213
  C:580AH         SYMBOL        L?0214
  C:580BH         SYMBOL        L?0215
  C:5812H         SYMBOL        L?0216
  C:5819H         SYMBOL        L?0219
BL51 BANKED LINKER/LOCATER V6.22                                                      12/01/2015  16:17:03  PAGE 24


  C:5820H         SYMBOL        L?0222
  C:5827H         SYMBOL        L?0224
  C:582EH         SYMBOL        L?0228
  C:5835H         SYMBOL        L?0229
  C:5836H         SYMBOL        L?0230
  C:5843H         SYMBOL        L?0232
  C:5853H         SYMBOL        L?0233
  C:585AH         SYMBOL        L?0235
  C:5861H         SYMBOL        L?0237
  C:5868H         SYMBOL        L?0242
  C:5868H         SYMBOL        L?0243
  C:5869H         SYMBOL        L?0244
  C:5871H         SYMBOL        L?0245
  C:5871H         SYMBOL        L?0246
  C:587BH         SYMBOL        L?0247
  C:5886H         SYMBOL        L?0249
  C:588DH         SYMBOL        L?0250
  C:588DH         SYMBOL        L?0251
  C:5894H         SYMBOL        L?0252
  C:5894H         SYMBOL        L?0253
  C:589DH         SYMBOL        L?0255
  C:58A9H         SYMBOL        L?0258
  C:58A9H         SYMBOL        L?0259
  C:58AFH         SYMBOL        L?0260
  C:58B6H         SYMBOL        L?0261
  C:58B6H         SYMBOL        L?0262
  -------         PROC          COM00B2
  -------         ENDPROC       COM00B2
  -------         PROC          _PCT_GETFIRSTSTR
  X:01DDH         SYMBOL        tagStr
  X:01E0H         SYMBOL        sourceStr
  C:8B7CH         LINE#         88
  C:8B82H         LINE#         89
  C:8B82H         LINE#         90
  C:8B8DH         LINE#         91
  C:8BA4H         LINE#         92
  C:8BBCH         LINE#         93
  C:8BBEH         LINE#         94
  C:8BBEH         LINE#         95
  C:8BCBH         LINE#         96
  C:8BCFH         LINE#         97
  C:8BD8H         LINE#         98
  C:8BDBH         LINE#         99
  C:8BDEH         LINE#         100
  C:8BE1H         LINE#         101
  C:8BEAH         LINE#         102
  -------         ENDPROC       _PCT_GETFIRSTSTR
  -------         PROC          _PCT_STRTOCOMMCODE
  X:01DDH         SYMBOL        Str
  -------         DO            
  D:0030H         SYMBOL        ret
  -------         ENDDO         
  C:9A3DH         LINE#         112
  C:9A43H         LINE#         113
  C:9A43H         LINE#         114
  C:9A48H         LINE#         116
  C:9A75H         LINE#         117
BL51 BANKED LINKER/LOCATER V6.22                                                      12/01/2015  16:17:03  PAGE 25


  C:9A79H         LINE#         118
  -------         ENDPROC       _PCT_STRTOCOMMCODE
  -------         PROC          PCT_SENDACK
  C:A687H         LINE#         124
  C:A687H         LINE#         125
  C:A687H         LINE#         131
  -------         ENDPROC       PCT_SENDACK
  -------         PROC          _PCT_CHECKVMIXTYPE
  D:0007H         SYMBOL        _typ
  -------         DO            
  D:0033H         SYMBOL        tmplktp
  -------         ENDDO         
  C:9517H         LINE#         143
  C:9517H         LINE#         144
  C:9517H         LINE#         145
  C:951AH         LINE#         147
  C:9520H         LINE#         148
  C:9527H         LINE#         149
  C:952DH         LINE#         150
  C:9539H         LINE#         152
  C:9547H         LINE#         153
  C:954DH         LINE#         155
  C:954DH         LINE#         156
  C:9553H         LINE#         157
  C:9559H         LINE#         158
  C:955EH         LINE#         159
  -------         ENDPROC       _PCT_CHECKVMIXTYPE
  -------         PROC          _MONIREADPAGEBUFFER
  D:0001H         SYMBOL        szParam
  -------         DO            
  D:004CH         SYMBOL        page
  D:004DH         SYMBOL        start
  D:004EH         SYMBOL        end
  -------         ENDDO         
  C:95A7H         LINE#         170
  C:95A7H         LINE#         171
  C:95A7H         LINE#         174
  C:95CCH         LINE#         176
  C:95CCH         LINE#         177
  C:95E6H         LINE#         178
  C:95E8H         LINE#         179
  C:95EDH         LINE#         180
  -------         ENDPROC       _MONIREADPAGEBUFFER
  -------         PROC          _MONIREADONEBUFFER
  D:0001H         SYMBOL        szParam
  -------         DO            
  D:0055H         SYMBOL        page
  D:0056H         SYMBOL        addr
  -------         ENDDO         
  C:9C12H         LINE#         186
  C:9C12H         LINE#         187
  C:9C12H         LINE#         190
  C:9C2FH         LINE#         192
  -------         ENDPROC       _MONIREADONEBUFFER
  -------         PROC          _MONIWRITEONEBUFFER
  D:0001H         SYMBOL        szParam
  -------         DO            
BL51 BANKED LINKER/LOCATER V6.22                                                      12/01/2015  16:17:03  PAGE 26


  D:004FH         SYMBOL        page
  D:0050H         SYMBOL        addr
  D:0051H         SYMBOL        dat
  -------         ENDDO         
  C:9DC3H         LINE#         199
  C:9DC3H         LINE#         200
  C:9DC3H         LINE#         203
  C:9DE8H         LINE#         204
  -------         ENDPROC       _MONIWRITEONEBUFFER
  -------         PROC          _MONIWRITEASICBYTE
  D:0001H         SYMBOL        szParam
  -------         DO            
  D:0030H         SYMBOL        _dev
  D:0031H         SYMBOL        _pg
  D:0032H         SYMBOL        _addr
  D:0033H         SYMBOL        _wdat
  -------         ENDDO         
  C:930AH         LINE#         211
  C:930AH         LINE#         212
  C:930AH         LINE#         213
  C:930DH         LINE#         214
  C:930FH         LINE#         215
  C:9311H         LINE#         216
  C:9313H         LINE#         218
  C:9348H         LINE#         219
  -------         ENDPROC       _MONIWRITEASICBYTE
  -------         PROC          _MONIREADASICBYTE
  D:0001H         SYMBOL        szParam
  -------         DO            
  D:001CH         SYMBOL        _dev
  D:001DH         SYMBOL        _pg
  D:001EH         SYMBOL        _addr
  D:001FH         SYMBOL        _rdat
  -------         ENDDO         
  C:955FH         LINE#         226
  C:955FH         LINE#         227
  C:955FH         LINE#         228
  C:9562H         LINE#         229
  C:9564H         LINE#         230
  C:9566H         LINE#         231
  C:9568H         LINE#         233
  C:958DH         LINE#         234
  C:9598H         LINE#         235
  -------         ENDPROC       _MONIREADASICBYTE
  C:6829H         SYMBOL        L?0217
  C:683FH         SYMBOL        L?0225
  C:6855H         SYMBOL        L?0227
  -------         PROC          _MONIAUDIOMIXING
  X:03B3H         SYMBOL        szParam
  -------         DO            
  D:0008H         SYMBOL        selch0
  D:0009H         SYMBOL        selch1
  D:000AH         SYMBOL        selch2
  D:000BH         SYMBOL        selch3
  D:000CH         SYMBOL        selch4
  D:000DH         SYMBOL        valch0
  D:000EH         SYMBOL        valch1
BL51 BANKED LINKER/LOCATER V6.22                                                      12/01/2015  16:17:03  PAGE 27


  D:000FH         SYMBOL        valch2
  D:0010H         SYMBOL        valch3
  D:0011H         SYMBOL        valch4
  X:03B6H         SYMBOL        getStr
  C:5699H         SYMBOL        chaddr
  -------         ENDDO         
  C:6700H         LINE#         243
  C:6703H         LINE#         244
  C:6703H         LINE#         255
  C:6716H         LINE#         257
  C:671EH         LINE#         263
  C:6745H         LINE#         264
  C:6745H         LINE#         265
  C:6756H         LINE#         266
  C:675FH         LINE#         267
  C:6765H         LINE#         268
  C:6768H         LINE#         270
  C:6768H         LINE#         271
  C:6786H         LINE#         273
  C:6786H         LINE#         274
  C:6789H         LINE#         275
  C:678CH         LINE#         276
  C:678FH         LINE#         278
  C:678FH         LINE#         279
  C:67A3H         LINE#         281
  C:67A3H         LINE#         282
  C:67A6H         LINE#         283
  C:67AAH         LINE#         284
  C:67ADH         LINE#         285
  C:67B0H         LINE#         287
  C:67B0H         LINE#         288
  C:67C7H         LINE#         290
  C:67C7H         LINE#         291
  C:67C7H         LINE#         292
  C:67C7H         LINE#         293
  C:67CAH         LINE#         295
  C:67D2H         LINE#         296
  C:67D5H         LINE#         298
  C:67D5H         LINE#         299
  C:67FDH         LINE#         301
  C:67FDH         LINE#         302
  C:67FDH         LINE#         303
  C:67FDH         LINE#         304
  C:6805H         LINE#         305
  C:680EH         LINE#         307
  C:6828H         LINE#         308
  C:6828H         LINE#         310
  C:6828H         LINE#         311
  C:6828H         LINE#         312
  C:6828H         LINE#         313
  -------         ENDPROC       _MONIAUDIOMIXING
  -------         PROC          MONIAUDIOMUTE
  C:A555H         LINE#         320
  C:A555H         LINE#         321
  C:A555H         LINE#         322
  C:A55DH         LINE#         327
  -------         ENDPROC       MONIAUDIOMUTE
BL51 BANKED LINKER/LOCATER V6.22                                                      12/01/2015  16:17:03  PAGE 28


  C:7080H         SYMBOL        L?0221
  C:709AH         SYMBOL        L?0248
  C:70ABH         SYMBOL        L?0263
  -------         PROC          _MONIAUDIOGAIN
  X:03B9H         SYMBOL        szParam
  -------         DO            
  D:0012H         SYMBOL        selch0
  D:0013H         SYMBOL        selch1
  D:0014H         SYMBOL        selch2
  D:0015H         SYMBOL        selch3
  D:0016H         SYMBOL        selch4
  D:0017H         SYMBOL        ch0val
  D:0018H         SYMBOL        ch1val
  D:0019H         SYMBOL        ch2val
  D:001AH         SYMBOL        ch3val
  D:001BH         SYMBOL        ch4val
  X:03BCH         SYMBOL        getStr
  -------         ENDDO         
  C:6F71H         LINE#         335
  C:6F74H         LINE#         336
  C:6F74H         LINE#         341
  C:6F87H         LINE#         343
  C:6FAEH         LINE#         344
  C:6FAEH         LINE#         345
  C:6FC4H         LINE#         346
  C:6FC8H         LINE#         347
  C:6FCBH         LINE#         349
  C:6FCBH         LINE#         350
  C:6FEEH         LINE#         352
  C:6FEEH         LINE#         353
  C:6FF1H         LINE#         354
  C:6FF4H         LINE#         356
  C:6FF4H         LINE#         357
  C:700CH         LINE#         359
  C:700CH         LINE#         360
  C:700CH         LINE#         361
  C:700FH         LINE#         362
  C:7012H         LINE#         364
  C:7012H         LINE#         365
  C:702DH         LINE#         367
  C:702DH         LINE#         368
  C:702DH         LINE#         369
  C:7030H         LINE#         370
  C:7033H         LINE#         371
  C:7036H         LINE#         373
  C:7036H         LINE#         374
  C:7062H         LINE#         376
  C:7062H         LINE#         377
  C:706AH         LINE#         378
  C:706EH         LINE#         379
  C:7076H         LINE#         380
  C:707FH         LINE#         381
  C:707FH         LINE#         383
  C:707FH         LINE#         384
  C:707FH         LINE#         385
  C:707FH         LINE#         386
  -------         ENDPROC       _MONIAUDIOGAIN
BL51 BANKED LINKER/LOCATER V6.22                                                      12/01/2015  16:17:03  PAGE 29


  -------         PROC          _MONIAUDIOLIVE
  D:0001H         SYMBOL        szParam
  -------         DO            
  D:0063H         SYMBOL        chan
  -------         ENDDO         
  C:A43EH         LINE#         393
  C:A43EH         LINE#         394
  C:A43EH         LINE#         397
  C:A44BH         LINE#         399
  -------         ENDPROC       _MONIAUDIOLIVE
  -------         PROC          MONIREGISTERDUMP
  -------         DO            
  D:0057H         SYMBOL        addr
  D:0058H         SYMBOL        page
  -------         ENDDO         
  C:93A3H         LINE#         406
  C:93A3H         LINE#         407
  C:93A3H         LINE#         411
  C:93A6H         LINE#         412
  C:93B5H         LINE#         413
  C:93B8H         LINE#         414
  C:93B8H         LINE#         415
  C:93CFH         LINE#         416
  C:93D1H         LINE#         417
  C:93E0H         LINE#         418
  C:93E4H         LINE#         419
  C:93EDH         LINE#         420
  -------         ENDPROC       MONIREGISTERDUMP
  -------         PROC          _MONIVIDEOMIXWIN
  D:0001H         SYMBOL        szParam
  -------         DO            
  D:0059H         SYMBOL        chose
  D:005AH         SYMBOL        wintp
  -------         ENDDO         
  C:91BDH         LINE#         426
  C:91BDH         LINE#         427
  C:91BDH         LINE#         430
  C:91FFH         LINE#         432
  C:920CH         LINE#         433
  -------         ENDPROC       _MONIVIDEOMIXWIN
  C:5A92H         SYMBOL        L?0220
  C:5A99H         SYMBOL        L?0223
  C:5AA0H         SYMBOL        L?0226
  C:5AA7H         SYMBOL        L?0234
  C:5AAEH         SYMBOL        L?0236
  C:5AB5H         SYMBOL        L?0239
  C:5AC6H         SYMBOL        L?0241
  C:5ACDH         SYMBOL        L?0254
  -------         PROC          _MONIVIDEOMIXATTR
  X:03BFH         SYMBOL        szParam
  -------         DO            
  D:0026H         SYMBOL        chose
  D:0028H         SYMBOL        attrsel
  D:0029H         SYMBOL        setval
  D:002AH         SYMBOL        winNm
  D:002EH         SYMBOL        wincnt
  D:002FH         SYMBOL        division
BL51 BANKED LINKER/LOCATER V6.22                                                      12/01/2015  16:17:03  PAGE 30


  X:03C2H         SYMBOL        getStr
  -------         ENDDO         
  C:58BDH         LINE#         443
  C:58C3H         LINE#         444
  C:58C3H         LINE#         447
  C:58C6H         LINE#         451
  C:58DCH         LINE#         452
  C:58E7H         LINE#         454
  C:58EDH         LINE#         455
  C:58FAH         LINE#         457
  C:5908H         LINE#         458
  C:590BH         LINE#         459
  C:590BH         LINE#         460
  C:591CH         LINE#         461
  C:591FH         LINE#         462
  C:591FH         LINE#         463
  C:5930H         LINE#         464
  C:5933H         LINE#         465
  C:5933H         LINE#         466
  C:5943H         LINE#         467
  C:5946H         LINE#         468
  C:5946H         LINE#         469
  C:5956H         LINE#         470
  C:5959H         LINE#         471
  C:5959H         LINE#         472
  C:5969H         LINE#         473
  C:596CH         LINE#         474
  C:596CH         LINE#         475
  C:597CH         LINE#         476
  C:597FH         LINE#         477
  C:597FH         LINE#         478
  C:598FH         LINE#         479
  C:5992H         LINE#         480
  C:5995H         LINE#         481
  C:59A6H         LINE#         482
  C:59A9H         LINE#         483
  C:59A9H         LINE#         484
  C:59BAH         LINE#         485
  C:59BDH         LINE#         486
  C:59BDH         LINE#         487
  C:59CDH         LINE#         488
  C:59D0H         LINE#         489
  C:59D0H         LINE#         490
  C:59E0H         LINE#         491
  C:59E3H         LINE#         492
  C:59E3H         LINE#         493
  C:59F3H         LINE#         494
  C:59F6H         LINE#         495
  C:59F6H         LINE#         496
  C:5A06H         LINE#         497
  C:5A09H         LINE#         498
  C:5A09H         LINE#         499
  C:5A1CH         LINE#         500
  C:5A1FH         LINE#         501
  C:5A22H         LINE#         502
  C:5A37H         LINE#         503
  C:5A3AH         LINE#         504
BL51 BANKED LINKER/LOCATER V6.22                                                      12/01/2015  16:17:03  PAGE 31


  C:5A3CH         LINE#         505
  C:5A3CH         LINE#         507
  C:5A3CH         LINE#         509
  C:5A45H         LINE#         510
  C:5A63H         LINE#         511
  C:5A63H         LINE#         512
  C:5A74H         LINE#         513
  C:5A76H         LINE#         514
  C:5A76H         LINE#         515
  C:5A78H         LINE#         516
  C:5A7CH         LINE#         517
  C:5A86H         LINE#         518
  C:5A8DH         LINE#         519
  C:5A8DH         LINE#         520
  C:5A91H         LINE#         521
  -------         ENDPROC       _MONIVIDEOMIXATTR
  -------         PROC          _MONIYVIDEOMIX
  D:0001H         SYMBOL        szParam
  -------         DO            
  D:0030H         SYMBOL        chan
  -------         ENDDO         
  C:A4EFH         LINE#         528
  C:A4EFH         LINE#         529
  C:A4EFH         LINE#         532
  C:A4FCH         LINE#         533
  -------         ENDPROC       _MONIYVIDEOMIX
  -------         PROC          MONIVIDEOAUTODETECT
  C:9B2DH         LINE#         540
  C:9B2DH         LINE#         541
  C:9B2DH         LINE#         542
  -------         ENDPROC       MONIVIDEOAUTODETECT
  C:78ABH         SYMBOL        L?0218
  C:78C9H         SYMBOL        L?0256
  -------         PROC          _MONISETVIDEOFORMAT
  X:03C5H         SYMBOL        szParam
  -------         DO            
  D:0039H         SYMBOL        selch0
  D:003AH         SYMBOL        selch1
  D:003BH         SYMBOL        selch2
  D:003CH         SYMBOL        selch3
  D:003DH         SYMBOL        valch0
  D:003EH         SYMBOL        valch1
  D:003FH         SYMBOL        valch2
  D:0040H         SYMBOL        valch3
  X:03C8H         SYMBOL        getStr
  -------         ENDDO         
  C:77B8H         LINE#         554
  C:77BBH         LINE#         555
  C:77BBH         LINE#         560
  C:77CEH         LINE#         562
  C:77EFH         LINE#         563
  C:77EFH         LINE#         564
  C:7807H         LINE#         565
  C:780AH         LINE#         566
  C:780DH         LINE#         568
  C:780DH         LINE#         569
  C:7825H         LINE#         571
BL51 BANKED LINKER/LOCATER V6.22                                                      12/01/2015  16:17:03  PAGE 32


  C:782DH         LINE#         572
  C:7835H         LINE#         573
  C:7838H         LINE#         575
  C:7838H         LINE#         576
  C:7853H         LINE#         578
  C:7853H         LINE#         579
  C:7856H         LINE#         580
  C:785EH         LINE#         581
  C:7861H         LINE#         583
  C:7861H         LINE#         584
  C:788DH         LINE#         586
  C:788DH         LINE#         587
  C:7890H         LINE#         588
  C:789DH         LINE#         589
  C:78AAH         LINE#         590
  C:78AAH         LINE#         592
  C:78AAH         LINE#         593
  C:78AAH         LINE#         594
  C:78AAH         LINE#         595
  -------         ENDPROC       _MONISETVIDEOFORMAT
  C:8FD6H         SYMBOL        L?0240
  -------         PROC          _MONISHOWSODSTR
  X:03CBH         SYMBOL        szParam
  -------         DO            
  D:005BH         SYMBOL        addrx
  D:005CH         SYMBOL        addry
  X:03CEH         SYMBOL        getStr
  -------         ENDDO         
  C:8F89H         LINE#         601
  C:8F8CH         LINE#         602
  C:8F8CH         LINE#         606
  C:8F8FH         LINE#         607
  C:8F9AH         LINE#         608
  C:8F9DH         LINE#         609
  C:8FA8H         LINE#         611
  C:8FADH         LINE#         612
  C:8FB2H         LINE#         613
  C:8FB7H         LINE#         614
  C:8FD1H         LINE#         615
  C:8FD6H         LINE#         616
  -------         ENDPROC       _MONISHOWSODSTR
  -------         PROC          PCT_AUDIOACTIONFORHS
  -------         DO            
  D:005DH         SYMBOL        winid
  D:005EH         SYMBOL        muteFlage
  -------         ENDDO         
  C:95EEH         LINE#         622
  C:95EEH         LINE#         623
  C:95EEH         LINE#         625
  C:95F1H         LINE#         628
  C:95F4H         LINE#         629
  C:9603H         LINE#         630
  C:9615H         LINE#         631
  C:9618H         LINE#         632
  C:9618H         LINE#         633
  C:9621H         LINE#         635
  C:9625H         LINE#         637
BL51 BANKED LINKER/LOCATER V6.22                                                      12/01/2015  16:17:03  PAGE 33


  C:962DH         LINE#         642
  C:9634H         LINE#         643
  C:9634H         LINE#         645
  -------         ENDPROC       PCT_AUDIOACTIONFORHS
  -------         PROC          _MONIHSCOMM
  D:0001H         SYMBOL        szParam
  -------         DO            
  D:0030H         SYMBOL        winid
  D:0031H         SYMBOL        chose
  D:0032H         SYMBOL        wintp
  -------         ENDDO         
  C:6E23H         LINE#         652
  C:6E23H         LINE#         656
  C:6E8DH         LINE#         659
  C:6EA9H         LINE#         663
  C:6EB3H         LINE#         664
  C:6EBDH         LINE#         665
  C:6EC8H         LINE#         666
  C:6ED3H         LINE#         668
  C:6EDEH         LINE#         669
  C:6EE9H         LINE#         670
  C:6EF4H         LINE#         671
  C:6EFFH         LINE#         678
  C:6F08H         LINE#         679
  C:6F11H         LINE#         682
  C:6F1CH         LINE#         685
  C:6F1FH         LINE#         686
  C:6F3BH         LINE#         691
  C:6F40H         LINE#         692
  C:6F45H         LINE#         693
  C:6F4AH         LINE#         695
  C:6F52H         LINE#         696
  C:6F57H         LINE#         697
  C:6F5CH         LINE#         698
  C:6F5FH         LINE#         699
  C:6F68H         LINE#         700
  C:6F70H         LINE#         718
  -------         ENDPROC       _MONIHSCOMM
  -------         PROC          PCT_CHECKSYSTEM
  -------         DO            
  D:0007H         SYMBOL        TempSystem
  -------         ENDDO         
  C:8CC1H         LINE#         725
  C:8CC1H         LINE#         726
  C:8CC1H         LINE#         729
  C:8CC6H         LINE#         731
  C:8CCAH         LINE#         732
  C:8CCCH         LINE#         733
  C:8CD3H         LINE#         734
  C:8CD5H         LINE#         735
  C:8CDAH         LINE#         738
  C:8CEAH         LINE#         740
  C:8CEFH         LINE#         744
  C:8CF7H         LINE#         745
  C:8D00H         LINE#         746
  C:8D09H         LINE#         748
  C:8D14H         LINE#         752
BL51 BANKED LINKER/LOCATER V6.22                                                      12/01/2015  16:17:03  PAGE 34


  C:8D19H         LINE#         753
  C:8D1CH         LINE#         754
  C:8D25H         LINE#         755
  C:8D28H         LINE#         758
  C:8D29H         LINE#         759
  -------         ENDPROC       PCT_CHECKSYSTEM
  -------         PROC          _MONIHSCOMMSJMODE
  D:0001H         SYMBOL        szParam
  C:A3FDH         LINE#         766
  C:A3FDH         LINE#         767
  C:A3FDH         LINE#         768
  -------         ENDPROC       _MONIHSCOMMSJMODE
  -------         PROC          MONIHSCOMMDISSCROLL
  C:0026H         LINE#         775
  C:0026H         LINE#         776
  C:0026H         LINE#         777
  -------         ENDPROC       MONIHSCOMMDISSCROLL
  -------         PROC          MONIHSCOMMVERSION
  C:A4B6H         LINE#         784
  C:A4B6H         LINE#         785
  C:A4B6H         LINE#         786
  C:A4BFH         LINE#         787
  -------         ENDPROC       MONIHSCOMMVERSION
  C:7BB5H         SYMBOL        L?0231
  C:7BBFH         SYMBOL        L?0238
  C:7BC8H         SYMBOL        L?0257
  -------         PROC          _PCT_RUNCOMMSHELL
  X:01D5H         SYMBOL        strptr
  -------         DO            
  X:01D8H         SYMBOL        commcode
  X:01DAH         SYMBOL        getStr
  -------         ENDDO         
  C:7AE2H         LINE#         795
  C:7AE5H         LINE#         796
  C:7AE5H         LINE#         812
  C:7AF8H         LINE#         815
  C:7B09H         LINE#         831
  C:7B18H         LINE#         834
  C:7B21H         LINE#         836
  C:7B24H         LINE#         889
  C:7B33H         LINE#         891
  C:7B33H         LINE#         893
  C:7B3CH         LINE#         895
  C:7B3FH         LINE#         917
  C:7B4FH         LINE#         918
  C:7B4FH         LINE#         920
  C:7B58H         LINE#         923
  C:7B5BH         LINE#         924
  C:7B60H         LINE#         937
  C:7B72H         LINE#         938
  C:7B72H         LINE#         940
  C:7B7BH         LINE#         941
  C:7B7DH         LINE#         955
  C:7B8DH         LINE#         956
  C:7B8DH         LINE#         958
  C:7B95H         LINE#         963
  C:7B97H         LINE#         964
BL51 BANKED LINKER/LOCATER V6.22                                                      12/01/2015  16:17:03  PAGE 35


  C:7BA7H         LINE#         965
  C:7BA7H         LINE#         967
  C:7BAAH         LINE#         968
  C:7BB2H         LINE#         975
  C:7BB2H         LINE#         1005
  C:7BB2H         LINE#         1006
  C:7BB2H         LINE#         1011
  C:7BB4H         LINE#         1012
  -------         ENDPROC       _PCT_RUNCOMMSHELL
  -------         ENDMOD        COMMANDSHELL

  -------         MODULE        MAIN
  C:0000H         SYMBOL        _ICE_DUMMY_
  C:9D59H         PUBLIC        _PutsP
  D:0094H         PUBLIC        P0M1
  D:0091H         PUBLIC        P1M0
  D:00F6H         PUBLIC        PCAPWM4
  D:0095H         PUBLIC        P2M0
  D:0092H         PUBLIC        P1M1
  D:00F7H         PUBLIC        PCAPWM5
  D:0080H         PUBLIC        P0
  D:00B1H         PUBLIC        P3M0
  D:0096H         PUBLIC        P2M1
  D:0090H         PUBLIC        P1
  X:02F4H         PUBLIC        CB_flag
  D:00B2H         PUBLIC        P3M1
  D:00B3H         PUBLIC        P4M0
  D:00A0H         PUBLIC        P2
  D:00B4H         PUBLIC        P4M1
  D:00C0H         PUBLIC        XICON
  D:00B0H         PUBLIC        P3
  D:00E8H         PUBLIC        P4
  X:02F5H         PUBLIC        Temp_timeout
  D:00E1H         PUBLIC        WDTCR
  B:00A8H.7       PUBLIC        EA
  X:02F6H         PUBLIC        RScommand
  D:00F9H         PUBLIC        CH
  C:A564H         PUBLIC        PWM_init
  D:00A8H         PUBLIC        IE
  D:00E9H         PUBLIC        CL
  D:00FAH         PUBLIC        CCAP0H
  B:0090H.1       PUBLIC        P1_1
  D:00FBH         PUBLIC        CCAP1H
  B:0090H.2       PUBLIC        P1_2
  D:00FCH         PUBLIC        CCAP2H
  B:0090H.3       PUBLIC        P1_3
  D:00FDH         PUBLIC        CCAP3H
  B:00E8H.1       PUBLIC        P4_1
  B:0090H.4       PUBLIC        P1_4
  D:00FEH         PUBLIC        CCAP4H
  D:00EAH         PUBLIC        CCAP0L
  B:0090H.5       PUBLIC        P1_5
  D:00FFH         PUBLIC        CCAP5H
  D:00EBH         PUBLIC        CCAP1L
  D:00DAH         PUBLIC        CCAPM0
  B:0024H.7       PUBLIC        VlossFlag
  B:0090H.6       PUBLIC        P1_6
BL51 BANKED LINKER/LOCATER V6.22                                                      12/01/2015  16:17:03  PAGE 36


  D:00ECH         PUBLIC        CCAP2L
  D:00DBH         PUBLIC        CCAPM1
  B:0090H.7       PUBLIC        P1_7
  D:00EDH         PUBLIC        CCAP3L
  D:00DCH         PUBLIC        CCAPM2
  D:00EEH         PUBLIC        CCAP4L
  D:00DDH         PUBLIC        CCAPM3
  D:00B8H         PUBLIC        IP
  D:00EFH         PUBLIC        CCAP5L
  D:00DEH         PUBLIC        CCAPM4
  C:4E08H         PUBLIC        _Monitor_set
  D:00DFH         PUBLIC        CCAPM5
  B:0098H.1       PUBLIC        TI
  C:9F1AH         PUBLIC        _PWM_set
  X:0321H         PUBLIC        SC16_com_state
  D:00D9H         PUBLIC        CMOD
  D:00D8H         PUBLIC        CCON
  C:6878H         PUBLIC        main
  C:A1CCH         PUBLIC        ResetCommSell
  D:0020H         PUBLIC        commFlag
  X:0322H         PUBLIC        timerout1
  B:0025H.0       PUBLIC        data_chk_flag
  X:0324H         PUBLIC        timerout2
  D:0087H         PUBLIC        PCON
  X:0326H         PUBLIC        timerout3
  X:0328H         PUBLIC        timerout4
  X:032AH         PUBLIC        boot_flag
  D:00C0H         PUBLIC        WDTC
  D:0098H         PUBLIC        SCON
  D:0089H         PUBLIC        TMOD
  D:0088H         PUBLIC        TCON
  C:A60DH         PUBLIC        NewLine
  C:A616H         PUBLIC        _PCT_FlashOSDCtrl
  C:7E6DH         PUBLIC        CommandShell
  D:008EH         PUBLIC        AUXR
  X:032BH         PUBLIC        work_flag
  X:032CH         PUBLIC        Small_f
  C:9439H         PUBLIC        InitialMPU
  C:5CBAH         SYMBOL        _?ix1000
  B:0020H.0       PUBLIC        comm_chk_flag
  C:5DA9H         SYMBOL        _?ix1010
  C:5CC0H         SYMBOL        _?ix1001
  C:5DCFH         SYMBOL        _?ix1011
  C:5CCEH         SYMBOL        _?ix1002
  C:5DF5H         SYMBOL        _?ix1012
  C:5CDCH         SYMBOL        _?ix1003
  C:5E1BH         SYMBOL        _?ix1013
  C:5CE4H         SYMBOL        _?ix1004
  C:5E41H         SYMBOL        _?ix1014
  C:5CEBH         SYMBOL        _?ix1005
  C:5E67H         SYMBOL        _?ix1015
  C:5D11H         SYMBOL        _?ix1006
  C:5D37H         SYMBOL        _?ix1007
  C:5D5DH         SYMBOL        _?ix1008
  C:5D83H         SYMBOL        _?ix1009
  C:9213H         PUBLIC        Version_check
  X:032DH         PUBLIC        Main_f
BL51 BANKED LINKER/LOCATER V6.22                                                      12/01/2015  16:17:03  PAGE 37


  X:032EH         PUBLIC        ADC_Val
  C:9F47H         PUBLIC        _chkStartCommShell
  X:0332H         PUBLIC        m_current
  C:92BAH         PUBLIC        _Wait_ms
  C:A5E2H         PUBLIC        InitialCommShell
  D:00F8H         PUBLIC        IPA
  B:0020H.1       PUBLIC        osd_chk_flag
  X:0333H         PUBLIC        PIP_flag
  D:00C8H         PUBLIC        T2CON
  X:0334H         PUBLIC        CB_timeout
  C:769AH         PUBLIC        Press_check
  X:0335H         PUBLIC        _delay
  D:00A2H         PUBLIC        AUXR1
  X:0337H         PUBLIC        timer2_loop
  D:00A6H         PUBLIC        AUXR2
  C:8015H         PUBLIC        _Set_PWM_Output
  C:8FEAH         PUBLIC        Camera_Version_check
  C:910AH         PUBLIC        Temp_check
  D:00F2H         PUBLIC        PCAPWM0
  D:00D0H         PUBLIC        PSW
  D:00F3H         PUBLIC        PCAPWM1
  D:00F4H         PUBLIC        PCAPWM2
  D:0093H         PUBLIC        P0M0
  D:00F5H         PUBLIC        PCAPWM3
  C:7F46H         SYMBOL        Com00B7
  C:7F46H         SYMBOL        L?0184
  C:7F4AH         SYMBOL        L?0185
  C:7F51H         SYMBOL        L?0187
  C:7F56H         SYMBOL        L?0188
  C:7F59H         SYMBOL        L?0189
  C:7F61H         SYMBOL        L?0190
  C:7F61H         SYMBOL        L?0191
  C:7F6DH         SYMBOL        L?0192
  C:7F77H         SYMBOL        L?0193
  C:7F7DH         SYMBOL        L?0194
  C:7F7DH         SYMBOL        L?0195
  C:7F86H         SYMBOL        L?0196
  C:7F8FH         SYMBOL        L?0197
  C:7F91H         SYMBOL        L?0198
  C:7FA1H         SYMBOL        L?0199
  C:7FA2H         SYMBOL        L?0200
  C:7FA9H         SYMBOL        L?0201
  C:7FBEH         SYMBOL        L?0202
  C:7FC9H         SYMBOL        L?0203
  C:7FC9H         SYMBOL        L?0204
  C:7FD3H         SYMBOL        L?0205
  C:7FD6H         SYMBOL        L?0206
  C:7FDCH         SYMBOL        L?0207
  C:7FE9H         SYMBOL        L?0208
  C:7FE9H         SYMBOL        L?0209
  C:7FF1H         SYMBOL        L?0210
  C:7FFDH         SYMBOL        L?0211
  C:8007H         SYMBOL        L?0212
  C:8007H         SYMBOL        L?0213
  C:800EH         SYMBOL        L?0214
  C:800EH         SYMBOL        L?0215
  -------         PROC          COM00B7
BL51 BANKED LINKER/LOCATER V6.22                                                      12/01/2015  16:17:03  PAGE 38


  -------         ENDPROC       COM00B7
  -------         PROC          COMMANDSHELL
  -------         DO            
  D:0030H         SYMBOL        ch
  X:02F3H         SYMBOL        etx_flag
  -------         ENDDO         
  C:7E6DH         LINE#         138
  C:7E6DH         LINE#         139
  C:7E6DH         LINE#         144
  C:7E78H         LINE#         145
  C:7E78H         LINE#         147
  C:7E7BH         LINE#         148
  C:7E80H         LINE#         156
  C:7E8BH         LINE#         157
  C:7E8BH         LINE#         158
  C:7E90H         LINE#         160
  C:7E96H         LINE#         165
  C:7E9CH         LINE#         166
  C:7E9DH         LINE#         168
  C:7EC0H         LINE#         169
  C:7EC0H         LINE#         170
  C:7EC6H         LINE#         171
  C:7EC9H         LINE#         172
  C:7ECCH         LINE#         173
  C:7ECDH         LINE#         174
  C:7ED8H         LINE#         175
  C:7ED8H         LINE#         177
  C:7EDEH         LINE#         178
  C:7EE1H         LINE#         179
  C:7EE7H         LINE#         180
  C:7EECH         LINE#         185
  C:7EEDH         LINE#         186
  C:7EF5H         LINE#         187
  C:7EF5H         LINE#         189
  C:7EFEH         LINE#         199
  C:7F0CH         LINE#         200
  C:7F0CH         LINE#         201
  C:7F12H         LINE#         203
  C:7F1AH         LINE#         204
  C:7F1DH         LINE#         206
  C:7F25H         LINE#         208
  C:7F2BH         LINE#         209
  C:7F2CH         LINE#         217
  C:7F2CH         LINE#         218
  C:7F32H         LINE#         219
  C:7F35H         LINE#         220
  C:7F3EH         LINE#         225
  C:7F3EH         LINE#         266
  C:7F3EH         LINE#         268
  C:7F3EH         LINE#         269
  C:7F45H         LINE#         270
  C:7F45H         LINE#         274
  -------         ENDPROC       COMMANDSHELL
  -------         PROC          NEWLINE
  C:A60DH         LINE#         281
  C:A60DH         LINE#         282
  C:A60DH         LINE#         283
BL51 BANKED LINKER/LOCATER V6.22                                                      12/01/2015  16:17:03  PAGE 39


  -------         ENDPROC       NEWLINE
  -------         PROC          _PUTSP
  X:03ECH         SYMBOL        ptr
  -------         DO            
  D:0064H         SYMBOL        ch
  -------         ENDDO         
  C:9D59H         LINE#         290
  C:9D64H         LINE#         291
  C:9D64H         LINE#         294
  C:9D74H         LINE#         295
  C:9D87H         LINE#         296
  C:9D8BH         LINE#         297
  C:9D8DH         LINE#         298
  -------         ENDPROC       _PUTSP
  -------         PROC          RESETCOMMSELL
  C:A1CCH         LINE#         304
  C:A1CCH         LINE#         305
  C:A1CCH         LINE#         308
  C:A1D1H         LINE#         309
  C:A1D5H         LINE#         310
  C:A1D9H         LINE#         311
  C:A1DCH         LINE#         312
  C:A1DCH         LINE#         313
  C:A1DCH         LINE#         314
  C:A1DFH         LINE#         315
  C:A1DFH         LINE#         316
  C:A1DFH         LINE#         317
  C:A1E3H         LINE#         318
  C:A1E5H         LINE#         319
  C:A1E7H         LINE#         321
  C:A1EBH         LINE#         322
  C:A1EDH         LINE#         323
  C:A1F1H         LINE#         324
  -------         ENDPROC       RESETCOMMSELL
  -------         PROC          _PCT_FLASHOSDCTRL
  D:0007H         SYMBOL        _on
  C:A616H         LINE#         330
  C:A616H         LINE#         331
  C:A616H         LINE#         332
  C:A61CH         LINE#         333
  C:A61EH         LINE#         334
  -------         ENDPROC       _PCT_FLASHOSDCTRL
  -------         PROC          INITIALCOMMSHELL
  C:A5E2H         LINE#         341
  C:A5E2H         LINE#         342
  C:A5E2H         LINE#         343
  C:A5E4H         LINE#         344
  C:A5E6H         LINE#         347
  C:A5E8H         LINE#         348
  C:A5EDH         LINE#         349
  -------         ENDPROC       INITIALCOMMSHELL
  -------         PROC          _CHKSTARTCOMMSHELL
  X:03EFH         SYMBOL        ptr
  C:9F47H         LINE#         355
  C:9F52H         LINE#         356
  C:9F52H         LINE#         357
  C:9F55H         LINE#         358
BL51 BANKED LINKER/LOCATER V6.22                                                      12/01/2015  16:17:03  PAGE 40


  C:9F72H         LINE#         359
  -------         ENDPROC       _CHKSTARTCOMMSHELL
  -------         PROC          _WAIT_MS
  X:01D5H         SYMBOL        Tms
  -------         DO            
  X:01D7H         SYMBOL        count
  -------         ENDDO         
  C:92BAH         LINE#         361
  C:92C2H         LINE#         363
  C:92C2H         LINE#         372
  C:92CCH         LINE#         374
  C:92CCH         LINE#         376
  C:92F9H         LINE#         378
  C:9307H         LINE#         380
  C:9309H         LINE#         381
  -------         ENDPROC       _WAIT_MS
  -------         PROC          MAIN
  -------         DO            
  X:0000H         SYMBOL        Counter
  X:0001H         SYMBOL        readtemp
  X:0003H         SYMBOL        OsdCount1
  X:0004H         SYMBOL        OsdCount2
  X:0005H         SYMBOL        Camera_speed
  -------         ENDDO         
  C:6878H         LINE#         389
  C:6878H         LINE#         390
  C:6878H         LINE#         391
  C:687BH         LINE#         392
  C:687BH         LINE#         393
  C:6881H         LINE#         394
  C:6885H         LINE#         395
  C:6888H         LINE#         409
  C:688BH         LINE#         410
  C:688EH         LINE#         463
  C:6891H         LINE#         464
  C:6894H         LINE#         475
  C:6899H         LINE#         476
  C:689CH         LINE#         479
  C:68A1H         LINE#         495
  C:68A7H         LINE#         496
  C:68ADH         LINE#         497
  C:68B7H         LINE#         499
  C:68BDH         LINE#         500
  C:68C4H         LINE#         502
  C:68D4H         LINE#         504
  C:68D4H         LINE#         506
  C:68D7H         LINE#         507
  C:68E4H         LINE#         508
  C:68EEH         LINE#         510
  C:68F1H         LINE#         511
  C:68F1H         LINE#         512
  C:68F6H         LINE#         513
  C:68F8H         LINE#         514
  C:68F8H         LINE#         518
  C:6907H         LINE#         522
  C:690FH         LINE#         523
  C:690FH         LINE#         527
BL51 BANKED LINKER/LOCATER V6.22                                                      12/01/2015  16:17:03  PAGE 41


  C:6913H         LINE#         528
  C:691CH         LINE#         529
  C:691CH         LINE#         531
  C:692AH         LINE#         532
  C:692AH         LINE#         535
  C:692DH         LINE#         536
  C:6930H         LINE#         538
  C:693CH         LINE#         539
  C:693CH         LINE#         540
  C:693FH         LINE#         541
  C:693FH         LINE#         548
  C:6945H         LINE#         550
  C:6945H         LINE#         552
  C:695DH         LINE#         553
  C:695DH         LINE#         554
  C:6963H         LINE#         555
  C:6966H         LINE#         557
  C:6966H         LINE#         568
  C:697BH         LINE#         569
  C:697BH         LINE#         574
  C:6994H         LINE#         575
  C:699AH         LINE#         576
  C:69A0H         LINE#         577
  C:69A8H         LINE#         579
  C:69AAH         LINE#         581
  C:69ADH         LINE#         584
  C:69B9H         LINE#         585
  C:69B9H         LINE#         586
  C:69BFH         LINE#         587
  C:69C8H         LINE#         591
  C:69C8H         LINE#         598
  C:69DBH         LINE#         599
  C:69DBH         LINE#         600
  C:69E3H         LINE#         601
  C:69EAH         LINE#         602
  C:69EAH         LINE#         604
  C:69EDH         LINE#         625
  -------         ENDPROC       MAIN
  -------         PROC          INITIALMPU
  C:9439H         LINE#         641
  C:9439H         LINE#         643
  C:943CH         LINE#         644
  C:943EH         LINE#         648
  C:9440H         LINE#         651
  C:9443H         LINE#         653
  C:9445H         LINE#         654
  C:9448H         LINE#         659
  C:944AH         LINE#         667
  C:944DH         LINE#         668
  C:9450H         LINE#         669
  C:9453H         LINE#         674
  C:9456H         LINE#         675
  C:9458H         LINE#         676
  C:945AH         LINE#         677
  C:945CH         LINE#         678
  C:945DH         LINE#         734
  C:945FH         LINE#         735
BL51 BANKED LINKER/LOCATER V6.22                                                      12/01/2015  16:17:03  PAGE 42


  C:9461H         LINE#         737
  C:9464H         LINE#         738
  C:9467H         LINE#         740
  C:9469H         LINE#         741
  C:946BH         LINE#         743
  C:946DH         LINE#         744
  C:946FH         LINE#         746
  C:9471H         LINE#         747
  C:9474H         LINE#         748
  C:9476H         LINE#         751
  C:9478H         LINE#         752
  C:947AH         LINE#         753
  C:947CH         LINE#         754
  C:947EH         LINE#         755
  C:9480H         LINE#         756
  C:9482H         LINE#         760
  -------         ENDPROC       INITIALMPU
  -------         PROC          _SET_PWM_OUTPUT
  X:01DDH         SYMBOL        addr
  X:01DEH         SYMBOL        val
  -------         DO            
  X:01DFH         SYMBOL        num
  -------         ENDDO         
  C:8015H         LINE#         763
  C:801DH         LINE#         764
  C:801DH         LINE#         766
  C:802AH         LINE#         777
  C:8047H         LINE#         778
  C:8047H         LINE#         779
  C:8047H         LINE#         780
  C:804AH         LINE#         781
  C:8055H         LINE#         782
  C:8058H         LINE#         784
  C:805DH         LINE#         785
  C:8060H         LINE#         786
  C:8061H         LINE#         787
  C:8061H         LINE#         788
  C:8064H         LINE#         789
  C:806FH         LINE#         790
  C:8072H         LINE#         792
  C:8077H         LINE#         793
  C:807AH         LINE#         794
  C:807BH         LINE#         795
  C:807BH         LINE#         796
  C:807EH         LINE#         797
  C:8089H         LINE#         798
  C:808CH         LINE#         800
  C:8091H         LINE#         801
  C:8094H         LINE#         802
  C:8095H         LINE#         803
  C:8095H         LINE#         804
  C:8098H         LINE#         805
  C:80A3H         LINE#         806
  C:80A6H         LINE#         808
  C:80ABH         LINE#         809
  C:80AEH         LINE#         810
  C:80AFH         LINE#         811
BL51 BANKED LINKER/LOCATER V6.22                                                      12/01/2015  16:17:03  PAGE 43


  C:80AFH         LINE#         812
  C:80B2H         LINE#         813
  C:80BDH         LINE#         814
  C:80C0H         LINE#         816
  C:80C5H         LINE#         817
  C:80C8H         LINE#         818
  C:80C9H         LINE#         819
  C:80C9H         LINE#         820
  C:80CCH         LINE#         821
  C:80D7H         LINE#         822
  C:80DAH         LINE#         824
  C:80DFH         LINE#         825
  C:80E2H         LINE#         826
  C:80E2H         LINE#         827
  C:80E2H         LINE#         828
  C:80E2H         LINE#         829
  C:80E2H         LINE#         832
  -------         ENDPROC       _SET_PWM_OUTPUT
  -------         PROC          PWM_INIT
  C:A564H         LINE#         835
  C:A564H         LINE#         836
  C:A564H         LINE#         838
  C:A567H         LINE#         839
  C:A569H         LINE#         840
  C:A56CH         LINE#         843
  C:A56FH         LINE#         851
  C:A572H         LINE#         888
  -------         ENDPROC       PWM_INIT
  C:510FH         SYMBOL        L?0186
  -------         PROC          _MONITOR_SET
  X:0006H         SYMBOL        val
  -------         DO            
  X:0007H         SYMBOL        busw1
  X:0015H         SYMBOL        busw2
  X:0023H         SYMBOL        yvmix
  X:002BH         SYMBOL        mode
  X:0032H         SYMBOL        conf1
  X:0058H         SYMBOL        conf2
  X:007EH         SYMBOL        conf3
  X:00A4H         SYMBOL        conf4
  X:00CAH         SYMBOL        conf5
  X:00F0H         SYMBOL        conf6
  X:0116H         SYMBOL        conf7
  X:013CH         SYMBOL        conf8
  X:0162H         SYMBOL        conf9
  X:0188H         SYMBOL        conf10
  X:01AEH         SYMBOL        conf11
  X:01D4H         SYMBOL        Error
  D:0007H         SYMBOL        ch
  -------         ENDDO         
  C:4E08H         LINE#         891
  C:4E0DH         LINE#         892
  C:4E0DH         LINE#         893
  C:4E18H         LINE#         894
  C:4E23H         LINE#         895
  C:4E36H         LINE#         896
  C:4E43H         LINE#         908
BL51 BANKED LINKER/LOCATER V6.22                                                      12/01/2015  16:17:03  PAGE 44


  C:4E4EH         LINE#         909
  C:4E59H         LINE#         910
  C:4E68H         LINE#         912
  C:4E77H         LINE#         913
  C:4E86H         LINE#         915
  C:4E95H         LINE#         916
  C:4EA4H         LINE#         918
  C:4EB3H         LINE#         919
  C:4EC2H         LINE#         921
  C:4ED1H         LINE#         942
  C:4EE0H         LINE#         945
  C:4EE5H         LINE#         946
  C:4EE5H         LINE#         948
  C:4EEDH         LINE#         951
  C:4EF2H         LINE#         952
  C:4EF8H         LINE#         954
  C:4EFDH         LINE#         958
  C:4F02H         LINE#         960
  C:4F27H         LINE#         961
  C:4F27H         LINE#         962
  C:4F2CH         LINE#         963
  C:4F33H         LINE#         964
  C:4F33H         LINE#         965
  C:4F37H         LINE#         966
  C:4F37H         LINE#         967
  C:4F39H         LINE#         968
  C:4F3EH         LINE#         969
  C:4F3EH         LINE#         970
  C:4F40H         LINE#         971
  C:4F46H         LINE#         972
  C:4F4CH         LINE#         973
  C:4F4EH         LINE#         974
  C:4F53H         LINE#         975
  C:4F58H         LINE#         976
  C:4F5AH         LINE#         978
  C:4F5AH         LINE#         979
  C:4F60H         LINE#         980
  C:4F62H         LINE#         981
  C:4F62H         LINE#         982
  C:4F68H         LINE#         983
  C:4F6AH         LINE#         985
  C:4F70H         LINE#         986
  C:4F70H         LINE#         989
  C:4F7AH         LINE#         990
  C:4F7AH         LINE#         991
  C:4F7FH         LINE#         992
  C:4F82H         LINE#         993
  C:4F8AH         LINE#         994
  C:4F8AH         LINE#         995
  C:4F90H         LINE#         996
  C:4F90H         LINE#         997
  C:4F96H         LINE#         998
  C:4F96H         LINE#         999
  C:4F99H         LINE#         1000
  C:4F9FH         LINE#         1001
  C:4FA1H         LINE#         1003
  C:4FA1H         LINE#         1004
BL51 BANKED LINKER/LOCATER V6.22                                                      12/01/2015  16:17:03  PAGE 45


  C:4FA4H         LINE#         1005
  C:4FA9H         LINE#         1006
  C:4FA9H         LINE#         1007
  C:4FABH         LINE#         1009
  C:4FABH         LINE#         1010
  C:4FB1H         LINE#         1011
  C:4FB1H         LINE#         1012
  C:4FB4H         LINE#         1013
  C:4FBAH         LINE#         1014
  C:4FBCH         LINE#         1016
  C:4FBCH         LINE#         1017
  C:4FBFH         LINE#         1018
  C:4FC4H         LINE#         1019
  C:4FC4H         LINE#         1021
  C:4FC4H         LINE#         1023
  C:4FD1H         LINE#         1025
  C:4FD3H         LINE#         1027
  C:4FD3H         LINE#         1029
  C:4FD9H         LINE#         1030
  C:4FD9H         LINE#         1031
  C:4FDCH         LINE#         1032
  C:4FDEH         LINE#         1034
  C:4FDEH         LINE#         1035
  C:4FE4H         LINE#         1036
  C:4FE4H         LINE#         1037
  C:4FE7H         LINE#         1038
  C:4FEDH         LINE#         1039
  C:4FEFH         LINE#         1041
  C:4FEFH         LINE#         1042
  C:4FF2H         LINE#         1043
  C:4FF7H         LINE#         1044
  C:4FF7H         LINE#         1046
  C:4FF7H         LINE#         1048
  C:5003H         LINE#         1050
  C:5003H         LINE#         1055
  C:5009H         LINE#         1056
  C:5009H         LINE#         1059
  C:500CH         LINE#         1062
  C:5013H         LINE#         1063
  C:5013H         LINE#         1065
  C:501AH         LINE#         1066
  C:501AH         LINE#         1071
  C:5028H         LINE#         1073
  C:502EH         LINE#         1074
  C:502EH         LINE#         1076
  C:502EH         LINE#         1097
  C:502EH         LINE#         1104
  C:5054H         LINE#         1105
  C:5054H         LINE#         1108
  C:5056H         LINE#         1109
  C:505FH         LINE#         1110
  C:507AH         LINE#         1111
  C:507CH         LINE#         1112
  C:507EH         LINE#         1113
  C:5087H         LINE#         1114
  C:5090H         LINE#         1115
  C:5099H         LINE#         1116
BL51 BANKED LINKER/LOCATER V6.22                                                      12/01/2015  16:17:03  PAGE 46


  C:50A2H         LINE#         1133
  C:50A2H         LINE#         1134
  C:50ACH         LINE#         1147
  C:50ACH         LINE#         1156
  C:50B1H         LINE#         1158
  C:50B7H         LINE#         1161
  C:50DDH         LINE#         1162
  C:50DDH         LINE#         1164
  C:50DFH         LINE#         1165
  C:50E3H         LINE#         1166
  C:50E7H         LINE#         1167
  C:50EBH         LINE#         1168
  C:50EFH         LINE#         1169
  C:50F3H         LINE#         1170
  C:50FAH         LINE#         1171
  C:50FEH         LINE#         1172
  C:5109H         LINE#         1174
  C:5109H         LINE#         1175
  C:5109H         LINE#         1176
  C:5109H         LINE#         1204
  C:510EH         LINE#         1206
  -------         ENDPROC       _MONITOR_SET
  -------         PROC          _PWM_SET
  D:0003H         SYMBOL        val
  -------         DO            
  D:0007H         SYMBOL        Error
  D:0002H         SYMBOL        ch
  D:0006H         SYMBOL        set_val
  -------         ENDDO         
  C:9F1AH         LINE#         1210
  C:9F1CH         LINE#         1211
  C:9F1CH         LINE#         1213
  C:9F1FH         LINE#         1215
  C:9F2BH         LINE#         1216
  C:9F2BH         LINE#         1217
  C:9F35H         LINE#         1218
  C:9F3FH         LINE#         1221
  C:9F44H         LINE#         1227
  C:9F46H         LINE#         1228
  C:9F46H         LINE#         1230
  C:9F46H         LINE#         1231
  -------         ENDPROC       _PWM_SET
  -------         PROC          TEMP_CHECK
  -------         DO            
  D:0002H         SYMBOL        val
  -------         ENDDO         
  C:910AH         LINE#         1235
  C:910AH         LINE#         1236
  C:910AH         LINE#         1237
  C:910DH         LINE#         1241
  C:912FH         LINE#         1242
  C:9132H         LINE#         1243
  C:9136H         LINE#         1250
  C:914AH         LINE#         1252
  C:9151H         LINE#         1254
  C:9163H         LINE#         1289
  -------         ENDPROC       TEMP_CHECK
BL51 BANKED LINKER/LOCATER V6.22                                                      12/01/2015  16:17:03  PAGE 47


  -------         PROC          PRESS_CHECK
  -------         DO            
  X:0006H         SYMBOL        val
  X:0008H         SYMBOL        loop
  X:0009H         SYMBOL        temp_val
  -------         ENDDO         
  C:769AH         LINE#         1294
  C:769AH         LINE#         1295
  C:769AH         LINE#         1304
  C:769DH         LINE#         1305
  C:769DH         LINE#         1315
  C:76A7H         LINE#         1316
  C:76B4H         LINE#         1318
  C:76BCH         LINE#         1319
  C:76BFH         LINE#         1321
  C:76C8H         LINE#         1322
  C:76C8H         LINE#         1323
  C:76E1H         LINE#         1324
  C:76E1H         LINE#         1326
  C:76FFH         LINE#         1327
  C:7701H         LINE#         1329
  C:7701H         LINE#         1330
  C:7708H         LINE#         1331
  C:7708H         LINE#         1332
  C:770AH         LINE#         1334
  C:770AH         LINE#         1336
  C:7713H         LINE#         1337
  C:7713H         LINE#         1339
  C:772FH         LINE#         1340
  C:7731H         LINE#         1342
  C:7731H         LINE#         1343
  C:773BH         LINE#         1344
  C:773BH         LINE#         1345
  C:773BH         LINE#         1348
  C:775CH         LINE#         1351
  C:775FH         LINE#         1355
  C:7772H         LINE#         1359
  C:778FH         LINE#         1360
  C:77A0H         LINE#         1361
  C:77B1H         LINE#         1362
  C:77B7H         LINE#         1411
  -------         ENDPROC       PRESS_CHECK
  -------         PROC          VERSION_CHECK
  -------         DO            
  X:000CH         SYMBOL        loop
  -------         ENDDO         
  C:9213H         LINE#         1414
  C:9213H         LINE#         1415
  C:9213H         LINE#         1420
  C:9213H         LINE#         1421
  C:9213H         LINE#         1422
  C:9219H         LINE#         1423
  C:921DH         LINE#         1424
  C:9221H         LINE#         1426
  C:9224H         LINE#         1427
  C:9224H         LINE#         1428
  C:9224H         LINE#         1429
BL51 BANKED LINKER/LOCATER V6.22                                                      12/01/2015  16:17:03  PAGE 48


  C:9227H         LINE#         1435
  C:9235H         LINE#         1436
  C:9248H         LINE#         1441
  C:9257H         LINE#         1442
  C:9257H         LINE#         1443
  C:925FH         LINE#         1445
  C:9267H         LINE#         1447
  -------         ENDPROC       VERSION_CHECK
  -------         PROC          CAMERA_VERSION_CHECK
  -------         DO            
  X:000CH         SYMBOL        loop
  -------         ENDDO         
  C:8FEAH         LINE#         1449
  C:8FEAH         LINE#         1450
  C:8FEAH         LINE#         1454
  C:8FEAH         LINE#         1455
  C:8FEAH         LINE#         1456
  C:8FF0H         LINE#         1457
  C:8FF8H         LINE#         1458
  C:9000H         LINE#         1460
  C:9007H         LINE#         1461
  C:9007H         LINE#         1462
  C:9007H         LINE#         1463
  C:900AH         LINE#         1469
  C:9018H         LINE#         1470
  C:902BH         LINE#         1475
  C:903AH         LINE#         1476
  C:903AH         LINE#         1477
  C:9042H         LINE#         1479
  C:904AH         LINE#         1481
  -------         ENDPROC       CAMERA_VERSION_CHECK
  -------         ENDMOD        MAIN

  -------         MODULE        OSD_GRAPH
  C:0000H         SYMBOL        _ICE_DUMMY_
  D:0080H         PUBLIC        P0
  D:0090H         PUBLIC        P1
  D:00A0H         PUBLIC        P2
  D:00C0H         PUBLIC        XICON
  D:00B0H         PUBLIC        P3
  D:00E8H         PUBLIC        P4
  D:00A8H         PUBLIC        IE
  D:00B8H         PUBLIC        IP
  D:00D8H         PUBLIC        CCON
  C:1354H         PUBLIC        GRAPH16_TABLE
  C:A662H         PUBLIC        _PCT_PreSetGraphAttr
  D:00C0H         PUBLIC        WDTC
  D:0098H         PUBLIC        SCON
  D:0088H         PUBLIC        TCON
  C:002EH         PUBLIC        GRAPH_TABLE
  C:63E2H         PUBLIC        _PCT_OSD16x16GraphX
  C:A65CH         PUBLIC        PCT_ClearGraphAttr
  X:0404H         PUBLIC        graphattr
  D:00F8H         PUBLIC        IPA
  C:904BH         PUBLIC        _PCT_ShowGraphString
  D:00C8H         PUBLIC        T2CON
  D:00D0H         PUBLIC        PSW
BL51 BANKED LINKER/LOCATER V6.22                                                      12/01/2015  16:17:03  PAGE 49


  C:9BDAH         SYMBOL        Com001D
  C:9BDAH         SYMBOL        L?0030
  C:9BDAH         SYMBOL        L?0031
  C:9BDDH         SYMBOL        L?0032
  C:9BE8H         SYMBOL        L?0033
  C:9BEBH         SYMBOL        L?0034
  C:9BF4H         SYMBOL        L?0035
  C:9C08H         SYMBOL        L?0039
  -------         PROC          COM001D
  -------         ENDPROC       COM001D
  -------         PROC          PCT_CLEARGRAPHATTR
  C:A65CH         LINE#         73
  C:A65CH         LINE#         74
  C:A65CH         LINE#         75
  C:A661H         LINE#         76
  -------         ENDPROC       PCT_CLEARGRAPHATTR
  -------         PROC          _PCT_PRESETGRAPHATTR
  D:0007H         SYMBOL        _attribute
  C:A662H         LINE#         82
  C:A662H         LINE#         83
  C:A662H         LINE#         84
  C:A667H         LINE#         86
  -------         ENDPROC       _PCT_PRESETGRAPHATTR
  C:652AH         SYMBOL        L?0027
  C:6553H         SYMBOL        L?0028
  C:6566H         SYMBOL        L?0036
  C:656EH         SYMBOL        L?0037
  C:6579H         SYMBOL        L?0038
  -------         PROC          _PCT_OSD16X16GRAPHX
  X:01E7H         SYMBOL        _posx
  X:01E8H         SYMBOL        _posy
  D:0003H         SYMBOL        _indx
  -------         DO            
  X:01EAH         SYMBOL        row
  X:01EBH         SYMBOL        column
  X:01ECH         SYMBOL        cntr
  X:01EDH         SYMBOL        cntc
  X:01EEH         SYMBOL        posx
  X:01EFH         SYMBOL        graph
  -------         ENDDO         
  C:63E2H         LINE#         92
  C:63EDH         LINE#         93
  C:63EDH         LINE#         97
  C:63F5H         LINE#         98
  C:63FDH         LINE#         99
  C:6413H         LINE#         100
  C:641FH         LINE#         101
  C:643DH         LINE#         102
  C:6443H         LINE#         103
  C:644AH         LINE#         105
  C:645DH         LINE#         106
  C:6470H         LINE#         107
  C:6481H         LINE#         108
  C:648CH         LINE#         109
  C:6497H         LINE#         110
  C:64A5H         LINE#         111
  C:64B0H         LINE#         112
BL51 BANKED LINKER/LOCATER V6.22                                                      12/01/2015  16:17:03  PAGE 50


  C:64BAH         LINE#         114
  C:64C4H         LINE#         115
  C:64CFH         LINE#         117
  C:64DEH         LINE#         118
  C:64E1H         LINE#         119
  C:64E7H         LINE#         121
  C:64F1H         LINE#         122
  C:64F4H         LINE#         123
  C:64FAH         LINE#         125
  C:6500H         LINE#         126
  C:650AH         LINE#         127
  C:6512H         LINE#         128
  C:6520H         LINE#         129
  C:6529H         LINE#         130
  -------         ENDPROC       _PCT_OSD16X16GRAPHX
  -------         PROC          _PCT_SHOWGRAPHSTRING
  X:01E0H         SYMBOL        _path
  X:01E1H         SYMBOL        _addrx
  X:01E2H         SYMBOL        _addry
  X:01E3H         SYMBOL        _strptr
  -------         DO            
  X:01E6H         SYMBOL        slen
  -------         ENDDO         
  C:904BH         LINE#         136
  C:9056H         LINE#         137
  C:9056H         LINE#         140
  C:9062H         LINE#         141
  C:9069H         LINE#         142
  C:9070H         LINE#         143
  C:9070H         LINE#         144
  C:9085H         LINE#         145
  C:908BH         LINE#         146
  C:9095H         LINE#         147
  C:909CH         LINE#         148
  C:90A1H         LINE#         149
  C:90A3H         LINE#         150
  C:90A3H         LINE#         151
  C:90A8H         LINE#         152
  C:90A8H         LINE#         153
  C:90ABH         LINE#         155
  -------         ENDPROC       _PCT_SHOWGRAPHSTRING
  -------         ENDMOD        OSD_GRAPH

  -------         MODULE        OSDACTION_
  C:0000H         SYMBOL        _ICE_DUMMY_
  C:9357H         PUBLIC        PCT_InitialOSD
  C:986BH         PUBLIC        PCT_ShowModeIcon
  D:0080H         PUBLIC        P0
  D:0090H         PUBLIC        P1
  D:00A0H         PUBLIC        P2
  D:00C0H         PUBLIC        XICON
  D:00B0H         PUBLIC        P3
  D:00E8H         PUBLIC        P4
  C:A64CH         PUBLIC        PCT_EnfalshVLoss
  C:A2CAH         PUBLIC        camstr
  D:00A8H         PUBLIC        IE
  D:00B8H         PUBLIC        IP
BL51 BANKED LINKER/LOCATER V6.22                                                      12/01/2015  16:17:03  PAGE 51


  C:6B5AH         PUBLIC        _PCT_ShowIndicateIcon
  C:A2E7H         PUBLIC        SPEAKICON
  D:00D8H         PUBLIC        CCON
  X:0405H         PUBLIC        VlossCount
  D:00C0H         PUBLIC        WDTC
  D:0098H         PUBLIC        SCON
  D:0088H         PUBLIC        TCON
  B:0021H.0       PUBLIC        OSDPAGE2
  B:0021H.1       PUBLIC        OSDPAGE3
  B:0021H.2       PUBLIC        OSDPAGE4
  B:0021H.3       PUBLIC        OSDPAGE5
  D:0021H         PUBLIC        osdflage
  C:9635H         PUBLIC        PCT_GetVideoSignalStatus
  C:A2DFH         PUBLIC        indicate_icon
  C:A1F2H         PUBLIC        PCT_OSDActionForHS
  D:00F8H         PUBLIC        IPA
  C:A2E9H         PUBLIC        msgVLOSS
  C:2C6EH         PUBLIC        PCT_ShowVLoss
  D:00C8H         PUBLIC        T2CON
  C:36D0H         PUBLIC        _PCT_ShowSpeakIcon
  C:31F2H         PUBLIC        _PCT_ShowMirrorIcon
  C:43D3H         PUBLIC        _PCT_OSD_ActionPthX
  D:00D0H         PUBLIC        PSW
  C:81A6H         SYMBOL        Com020E
  C:81A6H         SYMBOL        L?0527
  C:81A6H         SYMBOL        L?0528
  C:81A9H         SYMBOL        L?0529
  C:81B5H         SYMBOL        L?0530
  C:81B6H         SYMBOL        L?0531
  C:81BEH         SYMBOL        L?0532
  C:81BEH         SYMBOL        L?0533
  C:81C1H         SYMBOL        L?0534
  C:81CAH         SYMBOL        L?0535
  C:81CAH         SYMBOL        L?0536
  C:81CDH         SYMBOL        L?0537
  C:81D7H         SYMBOL        L?0538
  C:81D7H         SYMBOL        L?0539
  C:81E0H         SYMBOL        L?0542
  C:81E0H         SYMBOL        L?0543
  C:81E8H         SYMBOL        L?0547
  C:81E8H         SYMBOL        L?0548
  C:81EEH         SYMBOL        L?0550
  C:81EEH         SYMBOL        L?0551
  C:81F6H         SYMBOL        L?0554
  C:81F6H         SYMBOL        L?0555
  C:81FEH         SYMBOL        L?0565
  C:81FEH         SYMBOL        L?0566
  C:8206H         SYMBOL        L?0569
  C:8206H         SYMBOL        L?0570
  C:820CH         SYMBOL        L?0580
  C:820CH         SYMBOL        L?0581
  C:820FH         SYMBOL        L?0582
  C:8218H         SYMBOL        L?0598
  C:8218H         SYMBOL        L?0599
  C:8220H         SYMBOL        L?0603
  C:8220H         SYMBOL        L?0604
  C:8227H         SYMBOL        L?0609
BL51 BANKED LINKER/LOCATER V6.22                                                      12/01/2015  16:17:03  PAGE 52


  C:8227H         SYMBOL        L?0610
  C:8229H         SYMBOL        L?0611
  C:8230H         SYMBOL        L?0614
  C:8230H         SYMBOL        L?0615
  C:8239H         SYMBOL        L?0616
  C:8239H         SYMBOL        L?0617
  C:823FH         SYMBOL        L?0618
  C:823FH         SYMBOL        L?0619
  C:8246H         SYMBOL        L?0623
  C:8246H         SYMBOL        L?0624
  C:824EH         SYMBOL        L?0630
  C:824EH         SYMBOL        L?0631
  C:8256H         SYMBOL        L?0632
  C:8256H         SYMBOL        L?0633
  -------         PROC          COM020E
  -------         ENDPROC       COM020E
  C:938DH         SYMBOL        L?0606
  -------         PROC          PCT_INITIALOSD
  -------         DO            
  D:0030H         SYMBOL        page
  -------         ENDDO         
  C:9357H         LINE#         101
  C:9357H         LINE#         102
  C:9357H         LINE#         105
  C:935AH         LINE#         106
  C:935DH         LINE#         108
  C:9362H         LINE#         109
  C:9367H         LINE#         110
  C:936AH         LINE#         111
  C:936CH         LINE#         112
  C:936FH         LINE#         113
  C:9378H         LINE#         114
  C:937DH         LINE#         115
  C:9382H         LINE#         116
  C:9384H         LINE#         117
  C:9387H         LINE#         119
  C:938CH         LINE#         120
  -------         ENDPROC       PCT_INITIALOSD
  C:4725H         SYMBOL        L?0544
  C:4734H         SYMBOL        L?0552
  C:4743H         SYMBOL        L?0560
  C:4752H         SYMBOL        L?0593
  C:4761H         SYMBOL        L?0612
  C:4769H         SYMBOL        L?0625
  C:4771H         SYMBOL        L?0634
  C:4779H         SYMBOL        L?0635
  -------         PROC          _PCT_OSD_ACTIONPTHX
  X:01DDH         SYMBOL        _attr
  C:43D3H         LINE#         127
  C:43D9H         LINE#         128
  C:43D9H         LINE#         129
  C:43DEH         LINE#         130
  C:43E3H         LINE#         132
  C:4418H         LINE#         134
  C:4418H         LINE#         135
  C:4424H         LINE#         136
  C:4427H         LINE#         138
BL51 BANKED LINKER/LOCATER V6.22                                                      12/01/2015  16:17:03  PAGE 53


  C:4427H         LINE#         139
  C:443DH         LINE#         140
  C:4458H         LINE#         141
  C:445BH         LINE#         143
  C:445BH         LINE#         144
  C:4475H         LINE#         145
  C:448CH         LINE#         146
  C:448FH         LINE#         148
  C:448FH         LINE#         149
  C:44A1H         LINE#         150
  C:44B3H         LINE#         151
  C:44CAH         LINE#         152
  C:44CDH         LINE#         154
  C:44CDH         LINE#         155
  C:44CDH         LINE#         157
  C:44CDH         LINE#         158
  C:44DCH         LINE#         159
  C:44EEH         LINE#         160
  C:4505H         LINE#         161
  C:4508H         LINE#         163
  C:4508H         LINE#         164
  C:4517H         LINE#         165
  C:4529H         LINE#         166
  C:4540H         LINE#         167
  C:4543H         LINE#         169
  C:4543H         LINE#         170
  C:4552H         LINE#         171
  C:4567H         LINE#         172
  C:4579H         LINE#         173
  C:4590H         LINE#         174
  C:4593H         LINE#         177
  C:4593H         LINE#         178
  C:45A7H         LINE#         179
  C:45AAH         LINE#         181
  C:45AAH         LINE#         182
  C:45BCH         LINE#         183
  C:45D3H         LINE#         184
  C:45D6H         LINE#         186
  C:45D6H         LINE#         187
  C:45E5H         LINE#         188
  C:45FCH         LINE#         189
  C:45FFH         LINE#         191
  C:45FFH         LINE#         192
  C:4615H         LINE#         193
  C:462AH         LINE#         194
  C:4641H         LINE#         195
  C:4644H         LINE#         197
  C:4644H         LINE#         198
  C:4644H         LINE#         200
  C:4644H         LINE#         201
  C:4656H         LINE#         202
  C:466BH         LINE#         203
  C:4682H         LINE#         204
  C:4685H         LINE#         206
  C:4685H         LINE#         207
  C:4697H         LINE#         208
  C:46B0H         LINE#         209
BL51 BANKED LINKER/LOCATER V6.22                                                      12/01/2015  16:17:03  PAGE 54


  C:46C4H         LINE#         210
  C:46C7H         LINE#         212
  C:46C7H         LINE#         213
  C:46D9H         LINE#         214
  C:46F2H         LINE#         215
  C:470BH         LINE#         216
  C:4724H         LINE#         217
  C:4724H         LINE#         219
  C:4724H         LINE#         220
  C:4724H         LINE#         221
  C:4724H         LINE#         222
  -------         ENDPROC       _PCT_OSD_ACTIONPTHX
  -------         PROC          PCT_ENFALSHVLOSS
  C:A64CH         LINE#         228
  C:A64CH         LINE#         229
  C:A64CH         LINE#         230
  C:A653H         LINE#         231
  -------         ENDPROC       PCT_ENFALSHVLOSS
  -------         PROC          PCT_GETVIDEOSIGNALSTATUS
  C:9635H         LINE#         237
  C:9635H         LINE#         238
  C:9635H         LINE#         242
  C:9646H         LINE#         244
  C:964DH         LINE#         250
  C:964FH         LINE#         251
  C:9666H         LINE#         253
  C:966BH         LINE#         254
  C:9670H         LINE#         256
  C:9673H         LINE#         258
  C:967BH         LINE#         259
  -------         ENDPROC       PCT_GETVIDEOSIGNALSTATUS
  C:6C8EH         SYMBOL        L?0559
  C:6CA7H         SYMBOL        L?0586
  -------         PROC          _PCT_SHOWINDICATEICON
  X:01DDH         SYMBOL        _attr
  -------         DO            
  D:0030H         SYMBOL        iconid
  -------         ENDDO         
  C:6B5AH         LINE#         277
  C:6B60H         LINE#         278
  C:6B60H         LINE#         282
  C:6B65H         LINE#         283
  C:6B94H         LINE#         285
  C:6B94H         LINE#         286
  C:6B94H         LINE#         287
  C:6B9DH         LINE#         288
  C:6B9FH         LINE#         289
  C:6B9FH         LINE#         290
  C:6B9FH         LINE#         291
  C:6BA2H         LINE#         292
  C:6BA2H         LINE#         293
  C:6BA2H         LINE#         294
  C:6BA5H         LINE#         296
  C:6BA5H         LINE#         297
  C:6BA5H         LINE#         299
  C:6BAEH         LINE#         300
  C:6BB0H         LINE#         301
BL51 BANKED LINKER/LOCATER V6.22                                                      12/01/2015  16:17:03  PAGE 55


  C:6BB0H         LINE#         302
  C:6BC0H         LINE#         303
  C:6BC2H         LINE#         304
  C:6BC8H         LINE#         305
  C:6BC8H         LINE#         308
  C:6BD4H         LINE#         309
  C:6BD6H         LINE#         310
  C:6BD6H         LINE#         311
  C:6BD6H         LINE#         312
  C:6BD9H         LINE#         317
  C:6BD9H         LINE#         318
  C:6BD9H         LINE#         320
  C:6BE2H         LINE#         321
  C:6BE4H         LINE#         322
  C:6BE4H         LINE#         323
  C:6BF4H         LINE#         324
  C:6BF6H         LINE#         325
  C:6BFCH         LINE#         326
  C:6BFCH         LINE#         329
  C:6C08H         LINE#         330
  C:6C0AH         LINE#         331
  C:6C0AH         LINE#         332
  C:6C0AH         LINE#         333
  C:6C0DH         LINE#         334
  C:6C0DH         LINE#         335
  C:6C0DH         LINE#         336
  C:6C10H         LINE#         338
  C:6C10H         LINE#         339
  C:6C10H         LINE#         341
  C:6C19H         LINE#         342
  C:6C1BH         LINE#         343
  C:6C1BH         LINE#         344
  C:6C26H         LINE#         345
  C:6C29H         LINE#         346
  C:6C30H         LINE#         347
  C:6C30H         LINE#         348
  C:6C33H         LINE#         350
  C:6C33H         LINE#         351
  C:6C33H         LINE#         352
  C:6C33H         LINE#         354
  C:6C33H         LINE#         355
  C:6C33H         LINE#         357
  C:6C3CH         LINE#         358
  C:6C3EH         LINE#         359
  C:6C3EH         LINE#         360
  C:6C49H         LINE#         361
  C:6C4BH         LINE#         362
  C:6C4EH         LINE#         363
  C:6C4EH         LINE#         365
  C:6C50H         LINE#         367
  C:6C50H         LINE#         368
  C:6C50H         LINE#         370
  C:6C5CH         LINE#         371
  C:6C5EH         LINE#         372
  C:6C67H         LINE#         373
  C:6C83H         LINE#         374
  C:6C83H         LINE#         375
BL51 BANKED LINKER/LOCATER V6.22                                                      12/01/2015  16:17:03  PAGE 56


  C:6C8DH         LINE#         376
  C:6C8DH         LINE#         377
  C:6C8DH         LINE#         379
  C:6C8DH         LINE#         380
  C:6C8DH         LINE#         381
  C:6C8DH         LINE#         383
  C:6C8DH         LINE#         384
  C:6C8DH         LINE#         385
  C:6C8DH         LINE#         386
  -------         ENDPROC       _PCT_SHOWINDICATEICON
  C:35FCH         SYMBOL        L?0540
  C:360DH         SYMBOL        L?0545
  C:361EH         SYMBOL        L?0553
  C:3629H         SYMBOL        L?0558
  C:3634H         SYMBOL        L?0563
  C:363FH         SYMBOL        L?0564
  C:3649H         SYMBOL        L?0572
  C:3653H         SYMBOL        L?0573
  C:365EH         SYMBOL        L?0578
  C:3669H         SYMBOL        L?0583
  C:3673H         SYMBOL        L?0588
  C:367EH         SYMBOL        L?0591
  C:3688H         SYMBOL        L?0595
  C:3693H         SYMBOL        L?0596
  C:369DH         SYMBOL        L?0608
  C:36A8H         SYMBOL        L?0620
  C:36B2H         SYMBOL        L?0621
  C:36BCH         SYMBOL        L?0637
  C:36C6H         SYMBOL        L?0638
  -------         PROC          _PCT_SHOWMIRRORICON
  X:01DDH         SYMBOL        _attr
  C:31F2H         LINE#         396
  C:31F8H         LINE#         397
  C:31F8H         LINE#         398
  C:31FDH         LINE#         399
  C:3232H         LINE#         401
  C:3232H         LINE#         403
  C:323EH         LINE#         404
  C:323EH         LINE#         405
  C:3241H         LINE#         406
  C:3241H         LINE#         407
  C:3241H         LINE#         408
  C:3244H         LINE#         410
  C:3244H         LINE#         412
  C:3250H         LINE#         413
  C:3259H         LINE#         414
  C:325BH         LINE#         415
  C:325EH         LINE#         416
  C:325EH         LINE#         418
  C:326AH         LINE#         419
  C:326AH         LINE#         420
  C:326DH         LINE#         421
  C:326DH         LINE#         422
  C:326DH         LINE#         423
  C:3270H         LINE#         425
  C:3270H         LINE#         427
  C:327CH         LINE#         428
BL51 BANKED LINKER/LOCATER V6.22                                                      12/01/2015  16:17:03  PAGE 57


  C:3282H         LINE#         429
  C:3284H         LINE#         430
  C:3287H         LINE#         431
  C:3287H         LINE#         434
  C:3293H         LINE#         435
  C:3293H         LINE#         436
  C:3296H         LINE#         437
  C:3296H         LINE#         438
  C:3296H         LINE#         440
  C:3299H         LINE#         442
  C:3299H         LINE#         444
  C:32A5H         LINE#         445
  C:32AEH         LINE#         446
  C:32B0H         LINE#         447
  C:32B3H         LINE#         448
  C:32B3H         LINE#         451
  C:32BFH         LINE#         452
  C:32C8H         LINE#         453
  C:32CAH         LINE#         454
  C:32D2H         LINE#         455
  C:32D2H         LINE#         458
  C:32DEH         LINE#         459
  C:32DEH         LINE#         460
  C:32E1H         LINE#         461
  C:32E1H         LINE#         462
  C:32E1H         LINE#         463
  C:32E4H         LINE#         465
  C:32E4H         LINE#         466
  C:32E4H         LINE#         468
  C:32E4H         LINE#         470
  C:32F0H         LINE#         471
  C:32F6H         LINE#         472
  C:32F8H         LINE#         473
  C:32FBH         LINE#         474
  C:32FBH         LINE#         477
  C:3307H         LINE#         478
  C:3310H         LINE#         479
  C:3312H         LINE#         480
  C:3315H         LINE#         481
  C:3315H         LINE#         484
  C:3321H         LINE#         485
  C:3321H         LINE#         486
  C:3324H         LINE#         487
  C:3324H         LINE#         488
  C:3324H         LINE#         489
  C:3327H         LINE#         491
  C:3327H         LINE#         493
  C:3333H         LINE#         494
  C:3339H         LINE#         495
  C:333BH         LINE#         496
  C:333EH         LINE#         497
  C:333EH         LINE#         500
  C:334AH         LINE#         501
  C:3353H         LINE#         502
  C:3355H         LINE#         503
  C:3358H         LINE#         504
  C:3358H         LINE#         507
BL51 BANKED LINKER/LOCATER V6.22                                                      12/01/2015  16:17:03  PAGE 58


  C:3364H         LINE#         508
  C:336CH         LINE#         509
  C:336FH         LINE#         510
  C:3373H         LINE#         511
  C:3373H         LINE#         512
  C:3376H         LINE#         514
  C:3376H         LINE#         516
  C:3382H         LINE#         517
  C:3388H         LINE#         518
  C:338AH         LINE#         519
  C:338DH         LINE#         520
  C:338DH         LINE#         523
  C:3399H         LINE#         524
  C:33A2H         LINE#         525
  C:33A4H         LINE#         526
  C:33A7H         LINE#         527
  C:33A7H         LINE#         530
  C:33B3H         LINE#         531
  C:33BCH         LINE#         532
  C:33BEH         LINE#         533
  C:33C6H         LINE#         534
  C:33C6H         LINE#         537
  C:33D2H         LINE#         538
  C:33DAH         LINE#         539
  C:33DDH         LINE#         540
  C:33E1H         LINE#         541
  C:33E1H         LINE#         542
  C:33E4H         LINE#         545
  C:33E4H         LINE#         547
  C:33F0H         LINE#         548
  C:33F8H         LINE#         549
  C:33FAH         LINE#         550
  C:33FFH         LINE#         551
  C:33FFH         LINE#         552
  C:3401H         LINE#         554
  C:3401H         LINE#         556
  C:340DH         LINE#         557
  C:3416H         LINE#         558
  C:3418H         LINE#         559
  C:341BH         LINE#         560
  C:341BH         LINE#         562
  C:3427H         LINE#         563
  C:3431H         LINE#         564
  C:3434H         LINE#         565
  C:3439H         LINE#         566
  C:3439H         LINE#         567
  C:343CH         LINE#         569
  C:343CH         LINE#         571
  C:3448H         LINE#         572
  C:3451H         LINE#         573
  C:3453H         LINE#         574
  C:3456H         LINE#         575
  C:3456H         LINE#         578
  C:3462H         LINE#         579
  C:346CH         LINE#         580
  C:346FH         LINE#         581
  C:3472H         LINE#         582
BL51 BANKED LINKER/LOCATER V6.22                                                      12/01/2015  16:17:03  PAGE 59


  C:3472H         LINE#         584
  C:3475H         LINE#         586
  C:3475H         LINE#         588
  C:3481H         LINE#         589
  C:348AH         LINE#         590
  C:348CH         LINE#         591
  C:348FH         LINE#         592
  C:348FH         LINE#         595
  C:349BH         LINE#         596
  C:34A4H         LINE#         597
  C:34A6H         LINE#         598
  C:34AEH         LINE#         599
  C:34AEH         LINE#         602
  C:34BAH         LINE#         603
  C:34C4H         LINE#         604
  C:34C7H         LINE#         605
  C:34CFH         LINE#         606
  C:34CFH         LINE#         607
  C:34D2H         LINE#         609
  C:34D2H         LINE#         610
  C:34D2H         LINE#         612
  C:34D2H         LINE#         614
  C:34DEH         LINE#         615
  C:34E7H         LINE#         616
  C:34E9H         LINE#         617
  C:34ECH         LINE#         618
  C:34ECH         LINE#         621
  C:34F8H         LINE#         622
  C:3501H         LINE#         623
  C:3503H         LINE#         624
  C:3506H         LINE#         625
  C:3506H         LINE#         628
  C:3512H         LINE#         629
  C:351CH         LINE#         630
  C:351FH         LINE#         631
  C:3524H         LINE#         632
  C:3524H         LINE#         633
  C:3527H         LINE#         635
  C:3527H         LINE#         637
  C:3533H         LINE#         638
  C:353CH         LINE#         639
  C:353EH         LINE#         640
  C:3541H         LINE#         641
  C:3541H         LINE#         644
  C:354DH         LINE#         645
  C:3556H         LINE#         646
  C:3558H         LINE#         647
  C:355EH         LINE#         648
  C:355EH         LINE#         651
  C:356AH         LINE#         652
  C:3574H         LINE#         653
  C:3577H         LINE#         654
  C:357FH         LINE#         655
  C:357FH         LINE#         656
  C:3582H         LINE#         658
  C:3582H         LINE#         660
  C:358EH         LINE#         661
BL51 BANKED LINKER/LOCATER V6.22                                                      12/01/2015  16:17:03  PAGE 60


  C:3597H         LINE#         662
  C:3599H         LINE#         663
  C:359CH         LINE#         664
  C:359CH         LINE#         667
  C:35A8H         LINE#         668
  C:35B1H         LINE#         669
  C:35B3H         LINE#         670
  C:35B9H         LINE#         671
  C:35B9H         LINE#         674
  C:35C5H         LINE#         675
  C:35CEH         LINE#         676
  C:35D0H         LINE#         677
  C:35D8H         LINE#         678
  C:35D8H         LINE#         681
  C:35E4H         LINE#         682
  C:35F3H         LINE#         683
  C:35F3H         LINE#         684
  C:35FBH         LINE#         685
  C:35FBH         LINE#         686
  C:35FBH         LINE#         688
  C:35FBH         LINE#         689
  C:35FBH         LINE#         690
  C:35FBH         LINE#         691
  -------         ENDPROC       _PCT_SHOWMIRRORICON
  C:3AB0H         SYMBOL        L?0541
  C:3AC1H         SYMBOL        L?0546
  C:3AD2H         SYMBOL        L?0556
  C:3ADDH         SYMBOL        L?0561
  C:3AE8H         SYMBOL        L?0567
  C:3AF3H         SYMBOL        L?0568
  C:3AFDH         SYMBOL        L?0574
  C:3B07H         SYMBOL        L?0577
  C:3B12H         SYMBOL        L?0584
  C:3B1DH         SYMBOL        L?0587
  C:3B27H         SYMBOL        L?0592
  C:3B32H         SYMBOL        L?0594
  C:3B3CH         SYMBOL        L?0602
  C:3B47H         SYMBOL        L?0605
  C:3B51H         SYMBOL        L?0622
  C:3B5BH         SYMBOL        L?0626
  C:3B66H         SYMBOL        L?0627
  C:3B70H         SYMBOL        L?0639
  -------         PROC          _PCT_SHOWSPEAKICON
  X:03F2H         SYMBOL        _attr
  C:36D0H         LINE#         702
  C:36D6H         LINE#         703
  C:36D6H         LINE#         704
  C:36DBH         LINE#         705
  C:370DH         LINE#         707
  C:370DH         LINE#         708
  C:3719H         LINE#         709
  C:3719H         LINE#         710
  C:371CH         LINE#         711
  C:371CH         LINE#         712
  C:371CH         LINE#         713
  C:371FH         LINE#         715
  C:371FH         LINE#         716
BL51 BANKED LINKER/LOCATER V6.22                                                      12/01/2015  16:17:03  PAGE 61


  C:372BH         LINE#         717
  C:3734H         LINE#         718
  C:3736H         LINE#         719
  C:3739H         LINE#         720
  C:3739H         LINE#         721
  C:3745H         LINE#         722
  C:3745H         LINE#         723
  C:3748H         LINE#         724
  C:374BH         LINE#         725
  C:374BH         LINE#         726
  C:374EH         LINE#         728
  C:374EH         LINE#         729
  C:375AH         LINE#         730
  C:3760H         LINE#         731
  C:3762H         LINE#         732
  C:3765H         LINE#         733
  C:3765H         LINE#         734
  C:3771H         LINE#         735
  C:3771H         LINE#         736
  C:3774H         LINE#         737
  C:3774H         LINE#         738
  C:3774H         LINE#         739
  C:3777H         LINE#         741
  C:3777H         LINE#         742
  C:3783H         LINE#         743
  C:378CH         LINE#         744
  C:378EH         LINE#         745
  C:3791H         LINE#         746
  C:3791H         LINE#         747
  C:379DH         LINE#         748
  C:37A6H         LINE#         749
  C:37A8H         LINE#         750
  C:37B0H         LINE#         751
  C:37B0H         LINE#         752
  C:37BCH         LINE#         753
  C:37BCH         LINE#         754
  C:37BFH         LINE#         755
  C:37BFH         LINE#         756
  C:37BFH         LINE#         757
  C:37C2H         LINE#         759
  C:37C2H         LINE#         760
  C:37C2H         LINE#         762
  C:37C2H         LINE#         763
  C:37CEH         LINE#         764
  C:37D4H         LINE#         765
  C:37D6H         LINE#         766
  C:37D9H         LINE#         767
  C:37D9H         LINE#         768
  C:37E5H         LINE#         769
  C:37EEH         LINE#         770
  C:37F0H         LINE#         771
  C:37F3H         LINE#         772
  C:37F3H         LINE#         773
  C:37FFH         LINE#         774
  C:37FFH         LINE#         775
  C:3802H         LINE#         776
  C:3802H         LINE#         777
BL51 BANKED LINKER/LOCATER V6.22                                                      12/01/2015  16:17:03  PAGE 62


  C:3802H         LINE#         778
  C:3805H         LINE#         780
  C:3805H         LINE#         781
  C:3811H         LINE#         782
  C:3817H         LINE#         783
  C:3819H         LINE#         784
  C:381CH         LINE#         785
  C:381CH         LINE#         786
  C:3828H         LINE#         787
  C:3831H         LINE#         788
  C:3833H         LINE#         789
  C:3836H         LINE#         790
  C:3836H         LINE#         791
  C:3842H         LINE#         792
  C:384AH         LINE#         793
  C:384DH         LINE#         794
  C:3851H         LINE#         795
  C:3851H         LINE#         796
  C:3854H         LINE#         798
  C:3854H         LINE#         799
  C:3860H         LINE#         800
  C:3866H         LINE#         801
  C:3868H         LINE#         802
  C:386BH         LINE#         803
  C:386BH         LINE#         804
  C:3877H         LINE#         805
  C:3880H         LINE#         806
  C:3882H         LINE#         807
  C:3885H         LINE#         808
  C:3885H         LINE#         809
  C:3891H         LINE#         810
  C:389AH         LINE#         811
  C:389CH         LINE#         812
  C:38A4H         LINE#         813
  C:38A4H         LINE#         814
  C:38B0H         LINE#         815
  C:38B8H         LINE#         816
  C:38BBH         LINE#         817
  C:38BFH         LINE#         818
  C:38BFH         LINE#         819
  C:38C2H         LINE#         822
  C:38C2H         LINE#         823
  C:38CEH         LINE#         824
  C:38D8H         LINE#         825
  C:38DBH         LINE#         826
  C:38E2H         LINE#         827
  C:38E2H         LINE#         828
  C:38E5H         LINE#         830
  C:38E5H         LINE#         831
  C:38E5H         LINE#         833
  C:38E5H         LINE#         834
  C:38F1H         LINE#         835
  C:38FAH         LINE#         836
  C:38FCH         LINE#         837
  C:38FFH         LINE#         838
  C:38FFH         LINE#         839
  C:390BH         LINE#         840
BL51 BANKED LINKER/LOCATER V6.22                                                      12/01/2015  16:17:03  PAGE 63


  C:3915H         LINE#         841
  C:3918H         LINE#         842
  C:391FH         LINE#         843
  C:391FH         LINE#         844
  C:3922H         LINE#         846
  C:3922H         LINE#         847
  C:392EH         LINE#         848
  C:393DH         LINE#         849
  C:393FH         LINE#         850
  C:3949H         LINE#         851
  C:3949H         LINE#         852
  C:3955H         LINE#         853
  C:395EH         LINE#         854
  C:3960H         LINE#         855
  C:3968H         LINE#         856
  C:3968H         LINE#         857
  C:3974H         LINE#         858
  C:397EH         LINE#         859
  C:3981H         LINE#         860
  C:3989H         LINE#         861
  C:3989H         LINE#         862
  C:398CH         LINE#         864
  C:398CH         LINE#         865
  C:398CH         LINE#         867
  C:398CH         LINE#         868
  C:3998H         LINE#         869
  C:39A1H         LINE#         870
  C:39A3H         LINE#         871
  C:39A6H         LINE#         872
  C:39A6H         LINE#         873
  C:39B2H         LINE#         874
  C:39BBH         LINE#         875
  C:39BDH         LINE#         876
  C:39C0H         LINE#         877
  C:39C0H         LINE#         878
  C:39CCH         LINE#         879
  C:39D6H         LINE#         880
  C:39D9H         LINE#         881
  C:39DEH         LINE#         882
  C:39DEH         LINE#         883
  C:39E1H         LINE#         885
  C:39E1H         LINE#         886
  C:39EDH         LINE#         887
  C:39F6H         LINE#         888
  C:39F8H         LINE#         889
  C:39FBH         LINE#         890
  C:39FBH         LINE#         891
  C:3A07H         LINE#         892
  C:3A10H         LINE#         893
  C:3A12H         LINE#         894
  C:3A15H         LINE#         895
  C:3A15H         LINE#         896
  C:3A21H         LINE#         897
  C:3A2BH         LINE#         898
  C:3A2EH         LINE#         899
  C:3A36H         LINE#         900
  C:3A36H         LINE#         901
BL51 BANKED LINKER/LOCATER V6.22                                                      12/01/2015  16:17:03  PAGE 64


  C:3A39H         LINE#         903
  C:3A39H         LINE#         904
  C:3A45H         LINE#         905
  C:3A4EH         LINE#         906
  C:3A50H         LINE#         907
  C:3A53H         LINE#         908
  C:3A53H         LINE#         909
  C:3A5FH         LINE#         910
  C:3A68H         LINE#         911
  C:3A6AH         LINE#         912
  C:3A6DH         LINE#         913
  C:3A6DH         LINE#         914
  C:3A79H         LINE#         915
  C:3A82H         LINE#         916
  C:3A84H         LINE#         917
  C:3A8CH         LINE#         918
  C:3A8CH         LINE#         919
  C:3A98H         LINE#         920
  C:3AA7H         LINE#         921
  C:3AA7H         LINE#         922
  C:3AAFH         LINE#         923
  C:3AAFH         LINE#         924
  C:3AAFH         LINE#         926
  C:3AAFH         LINE#         927
  C:3AAFH         LINE#         928
  C:3AAFH         LINE#         929
  -------         ENDPROC       _PCT_SHOWSPEAKICON
  C:313CH         SYMBOL        L?0549
  C:3148H         SYMBOL        L?0557
  C:3154H         SYMBOL        L?0562
  C:3160H         SYMBOL        L?0571
  C:316CH         SYMBOL        L?0575
  C:3176H         SYMBOL        L?0576
  C:3182H         SYMBOL        L?0579
  C:318CH         SYMBOL        L?0585
  C:3198H         SYMBOL        L?0589
  C:31A2H         SYMBOL        L?0590
  C:31AEH         SYMBOL        L?0597
  C:31B8H         SYMBOL        L?0600
  C:31C0H         SYMBOL        L?0601
  C:31CCH         SYMBOL        L?0607
  C:31D6H         SYMBOL        L?0613
  C:31DEH         SYMBOL        L?0628
  C:31E8H         SYMBOL        L?0629
  -------         PROC          PCT_SHOWVLOSS
  -------         DO            
  D:0065H         SYMBOL        tmpsta
  -------         ENDDO         
  C:2C6EH         LINE#         951
  C:2C6EH         LINE#         952
  C:2C6EH         LINE#         954
  C:2C7AH         LINE#         955
  C:2CA7H         LINE#         957
  C:2CA7H         LINE#         958
  C:2CB8H         LINE#         959
  C:2CC3H         LINE#         961
  C:2CC7H         LINE#         962
BL51 BANKED LINKER/LOCATER V6.22                                                      12/01/2015  16:17:03  PAGE 65


  C:2CCAH         LINE#         964
  C:2CCAH         LINE#         965
  C:2CCAH         LINE#         967
  C:2CCAH         LINE#         968
  C:2CDBH         LINE#         969
  C:2CE6H         LINE#         971
  C:2CE9H         LINE#         972
  C:2CFDH         LINE#         973
  C:2D08H         LINE#         975
  C:2D0CH         LINE#         976
  C:2D0FH         LINE#         978
  C:2D0FH         LINE#         979
  C:2D20H         LINE#         980
  C:2D31H         LINE#         982
  C:2D36H         LINE#         983
  C:2D4AH         LINE#         984
  C:2D57H         LINE#         986
  C:2D5AH         LINE#         987
  C:2D6EH         LINE#         988
  C:2D79H         LINE#         990
  C:2D7DH         LINE#         991
  C:2D80H         LINE#         993
  C:2D80H         LINE#         994
  C:2D80H         LINE#         996
  C:2D80H         LINE#         997
  C:2D91H         LINE#         998
  C:2D9CH         LINE#         1000
  C:2D9FH         LINE#         1001
  C:2DB3H         LINE#         1002
  C:2DBEH         LINE#         1004
  C:2DC1H         LINE#         1005
  C:2DD5H         LINE#         1006
  C:2DE0H         LINE#         1008
  C:2DE4H         LINE#         1009
  C:2DE7H         LINE#         1011
  C:2DE7H         LINE#         1012
  C:2DF8H         LINE#         1013
  C:2E03H         LINE#         1015
  C:2E06H         LINE#         1016
  C:2E1AH         LINE#         1017
  C:2E27H         LINE#         1019
  C:2E2FH         LINE#         1020
  C:2E43H         LINE#         1021
  C:2E4EH         LINE#         1023
  C:2E52H         LINE#         1024
  C:2E55H         LINE#         1026
  C:2E55H         LINE#         1027
  C:2E66H         LINE#         1028
  C:2E71H         LINE#         1030
  C:2E74H         LINE#         1031
  C:2E88H         LINE#         1032
  C:2E93H         LINE#         1034
  C:2E96H         LINE#         1035
  C:2EAAH         LINE#         1036
  C:2EBBH         LINE#         1038
  C:2EBEH         LINE#         1039
  C:2ED2H         LINE#         1040
BL51 BANKED LINKER/LOCATER V6.22                                                      12/01/2015  16:17:03  PAGE 66


  C:2EDDH         LINE#         1042
  C:2EE1H         LINE#         1043
  C:2EE4H         LINE#         1046
  C:2EE4H         LINE#         1047
  C:2EF5H         LINE#         1048
  C:2F02H         LINE#         1050
  C:2F0AH         LINE#         1051
  C:2F0DH         LINE#         1053
  C:2F0DH         LINE#         1054
  C:2F0DH         LINE#         1056
  C:2F0DH         LINE#         1057
  C:2F1EH         LINE#         1058
  C:2F2BH         LINE#         1060
  C:2F2EH         LINE#         1061
  C:2F42H         LINE#         1062
  C:2F4FH         LINE#         1064
  C:2F57H         LINE#         1065
  C:2F5AH         LINE#         1067
  C:2F5AH         LINE#         1068
  C:2F6BH         LINE#         1069
  C:2F7CH         LINE#         1071
  C:2F81H         LINE#         1072
  C:2F95H         LINE#         1073
  C:2FA0H         LINE#         1075
  C:2FA3H         LINE#         1076
  C:2FB7H         LINE#         1077
  C:2FC4H         LINE#         1079
  C:2FC7H         LINE#         1080
  C:2FCAH         LINE#         1082
  C:2FCAH         LINE#         1083
  C:2FCAH         LINE#         1085
  C:2FCAH         LINE#         1086
  C:2FDBH         LINE#         1087
  C:2FE8H         LINE#         1089
  C:2FEBH         LINE#         1090
  C:2FFFH         LINE#         1091
  C:300AH         LINE#         1093
  C:300DH         LINE#         1094
  C:3021H         LINE#         1095
  C:302EH         LINE#         1097
  C:3031H         LINE#         1098
  C:3034H         LINE#         1100
  C:3034H         LINE#         1101
  C:3045H         LINE#         1102
  C:3050H         LINE#         1104
  C:3053H         LINE#         1105
  C:3067H         LINE#         1106
  C:3078H         LINE#         1108
  C:3083H         LINE#         1109
  C:3097H         LINE#         1110
  C:30A4H         LINE#         1112
  C:30ACH         LINE#         1113
  C:30AFH         LINE#         1115
  C:30AFH         LINE#         1116
  C:30C0H         LINE#         1117
  C:30CBH         LINE#         1119
  C:30CEH         LINE#         1120
BL51 BANKED LINKER/LOCATER V6.22                                                      12/01/2015  16:17:03  PAGE 67


  C:30E2H         LINE#         1121
  C:30EDH         LINE#         1123
  C:30F0H         LINE#         1124
  C:3104H         LINE#         1125
  C:310FH         LINE#         1127
  C:3112H         LINE#         1128
  C:3126H         LINE#         1129
  C:3135H         LINE#         1131
  C:313BH         LINE#         1132
  C:313BH         LINE#         1134
  C:313BH         LINE#         1135
  C:313BH         LINE#         1136
  C:313BH         LINE#         1137
  -------         ENDPROC       PCT_SHOWVLOSS
  C:98A5H         SYMBOL        L?0636
  -------         PROC          PCT_SHOWMODEICON
  C:986BH         LINE#         1143
  C:986BH         LINE#         1144
  C:986BH         LINE#         1145
  C:9870H         LINE#         1147
  C:987BH         LINE#         1148
  C:987BH         LINE#         1149
  C:987BH         LINE#         1150
  C:987BH         LINE#         1151
  C:987EH         LINE#         1152
  C:9887H         LINE#         1153
  C:9887H         LINE#         1154
  C:9889H         LINE#         1156
  C:9889H         LINE#         1157
  C:9889H         LINE#         1158
  C:988CH         LINE#         1159
  C:989FH         LINE#         1160
  C:98A4H         LINE#         1161
  C:98A4H         LINE#         1163
  C:98A4H         LINE#         1164
  C:98A4H         LINE#         1165
  C:98A4H         LINE#         1166
  -------         ENDPROC       PCT_SHOWMODEICON
  -------         PROC          PCT_OSDACTIONFORHS
  C:A1F2H         LINE#         1172
  C:A1F2H         LINE#         1173
  C:A1F2H         LINE#         1174
  C:A1F7H         LINE#         1175
  C:A1FEH         LINE#         1177
  C:A207H         LINE#         1179
  C:A210H         LINE#         1182
  C:A210H         LINE#         1183
  C:A213H         LINE#         1184
  -------         ENDPROC       PCT_OSDACTIONFORHS
  -------         ENDMOD        OSDACTION_

  -------         MODULE        OSDCTRL
  C:0000H         SYMBOL        _ICE_DUMMY_
  D:0080H         PUBLIC        P0
  D:0090H         PUBLIC        P1
  D:00A0H         PUBLIC        P2
  C:16F8H         PUBLIC        FONT_TABLE
BL51 BANKED LINKER/LOCATER V6.22                                                      12/01/2015  16:17:03  PAGE 68


  D:00C0H         PUBLIC        XICON
  D:00B0H         PUBLIC        P3
  D:00E8H         PUBLIC        P4
  C:83C1H         PUBLIC        _PCT_FullColorOnOSD
  C:9CB7H         PUBLIC        _PCT_EnShowOSDPage
  D:00A8H         PUBLIC        IE
  D:005FH         PUBLIC        backColor
  D:00B8H         PUBLIC        IP
  D:00D8H         PUBLIC        CCON
  C:A683H         PUBLIC        _PCT_PreSetBackgroundColor
  C:825EH         PUBLIC        _PCT_ClearWordsPathX
  D:0060H         PUBLIC        foreColor
  D:00C0H         PUBLIC        WDTC
  D:0098H         PUBLIC        SCON
  D:0088H         PUBLIC        TCON
  C:7330H         PUBLIC        _PCT_WriteOSDFntX
  C:79F0H         PUBLIC        _PCT_WriteOSDFntY
  C:A680H         PUBLIC        _PCT_PreSetForegroundColor
  C:71F6H         PUBLIC        PCT_InitOSDColor
  B:0022H.0       PUBLIC        DAT_BIT0
  B:0022H.1       PUBLIC        DAT_BIT1
  B:0022H.2       PUBLIC        DAT_BIT2
  B:0022H.3       PUBLIC        DAT_BIT3
  B:0022H.4       PUBLIC        DAT_BIT4
  B:0022H.5       PUBLIC        DAT_BIT5
  C:90ACH         PUBLIC        _PCT_ShowOSDString
  B:0022H.6       PUBLIC        DAT_BIT6
  B:0022H.7       PUBLIC        DAT_BIT7
  D:00F8H         PUBLIC        IPA
  C:9164H         PUBLIC        _PCT_SetOSDColor
  D:00C8H         PUBLIC        T2CON
  C:A30AH         PUBLIC        _PCT_SetOSDDrawPage
  C:6584H         PUBLIC        _PCT_WriteOSDDataBufferX
  C:A383H         PUBLIC        _PCT_ClearOSDPageX
  C:7454H         PUBLIC        _PCT_WriteOSDDataBufferY
  C:9DF7H         PUBLIC        _PCT_DisShowOSDPage
  D:00D0H         PUBLIC        PSW
  D:0022H         PUBLIC        bitdat
  C:69F0H         SYMBOL        Com0082
  C:69F0H         SYMBOL        L?0131
  C:69F0H         SYMBOL        L?0132
  C:69F5H         SYMBOL        L?0133
  C:69F8H         SYMBOL        L?0134
  C:69F9H         SYMBOL        L?0135
  C:6A00H         SYMBOL        L?0136
  C:6A0CH         SYMBOL        L?0137
  C:6A0EH         SYMBOL        L?0138
  C:6A16H         SYMBOL        L?0144
  C:6A23H         SYMBOL        L?0145
  C:6A26H         SYMBOL        L?0146
  C:6A2DH         SYMBOL        L?0147
  C:6A2EH         SYMBOL        L?0148
  C:6A2FH         SYMBOL        L?0149
  C:6A31H         SYMBOL        L?0150
  C:6A38H         SYMBOL        L?0152
  C:6A41H         SYMBOL        L?0153
  C:6A4CH         SYMBOL        L?0154
BL51 BANKED LINKER/LOCATER V6.22                                                      12/01/2015  16:17:03  PAGE 69


  C:6A54H         SYMBOL        L?0155
  C:6A61H         SYMBOL        L?0156
  C:6A63H         SYMBOL        L?0157
  C:6A66H         SYMBOL        L?0158
  C:6A6EH         SYMBOL        L?0159
  C:6A70H         SYMBOL        L?0160
  C:6A73H         SYMBOL        L?0161
  C:6A7BH         SYMBOL        L?0162
  C:6A7DH         SYMBOL        L?0163
  C:6A80H         SYMBOL        L?0164
  C:6A88H         SYMBOL        L?0166
  C:6A88H         SYMBOL        L?0167
  C:6A95H         SYMBOL        L?0168
  C:6A95H         SYMBOL        L?0169
  C:6AA5H         SYMBOL        L?0170
  C:6AC0H         SYMBOL        L?0171
  C:6AD8H         SYMBOL        L?0172
  C:6AF0H         SYMBOL        L?0174
  C:6AF0H         SYMBOL        L?0175
  C:6AF2H         SYMBOL        L?0176
  C:6AF9H         SYMBOL        L?0177
  C:6AF9H         SYMBOL        L?0178
  C:6AFCH         SYMBOL        L?0179
  C:6B04H         SYMBOL        L?0181
  C:6B08H         SYMBOL        L?0182
  C:6B10H         SYMBOL        L?0184
  C:6B13H         SYMBOL        L?0185
  C:6B1BH         SYMBOL        L?0186
  C:6B29H         SYMBOL        L?0187
  C:6B36H         SYMBOL        L?0188
  C:6B42H         SYMBOL        L?0190
  C:6B43H         SYMBOL        L?0191
  C:6B4AH         SYMBOL        L?0192
  C:6B4AH         SYMBOL        L?0193
  C:6B50H         SYMBOL        L?0194
  -------         PROC          COM0082
  -------         ENDPROC       COM0082
  -------         PROC          _PCT_PRESETFOREGROUNDCOLOR
  D:0007H         SYMBOL        _color
  C:A680H         LINE#         82
  C:A680H         LINE#         83
  C:A680H         LINE#         84
  C:A682H         LINE#         86
  -------         ENDPROC       _PCT_PRESETFOREGROUNDCOLOR
  -------         PROC          _PCT_PRESETBACKGROUNDCOLOR
  D:0007H         SYMBOL        _color
  C:A683H         LINE#         92
  C:A683H         LINE#         93
  C:A683H         LINE#         94
  C:A685H         LINE#         96
  -------         ENDPROC       _PCT_PRESETBACKGROUNDCOLOR
  C:91B5H         SYMBOL        L?0183
  -------         PROC          _PCT_SETOSDCOLOR
  X:01D5H         SYMBOL        _pth
  X:01D6H         SYMBOL        _col_num
  D:0003H         SYMBOL        _y
  X:01D8H         SYMBOL        _cb
BL51 BANKED LINKER/LOCATER V6.22                                                      12/01/2015  16:17:03  PAGE 70


  X:01D9H         SYMBOL        _cr
  C:9164H         LINE#         102
  C:916CH         LINE#         103
  C:916CH         LINE#         104
  C:9176H         LINE#         105
  C:9183H         LINE#         106
  C:9194H         LINE#         107
  C:919BH         LINE#         108
  C:91A1H         LINE#         110
  C:91B4H         LINE#         111
  -------         ENDPROC       _PCT_SETOSDCOLOR
  C:72F6H         SYMBOL        L?0139
  C:7301H         SYMBOL        L?0141
  C:730CH         SYMBOL        L?0143
  C:7315H         SYMBOL        L?0151
  C:731EH         SYMBOL        L?0165
  C:7327H         SYMBOL        L?0173
  -------         PROC          PCT_INITOSDCOLOR
  C:71F6H         LINE#         117
  C:71F6H         LINE#         118
  C:71F6H         LINE#         119
  C:7205H         LINE#         120
  C:7210H         LINE#         121
  C:7215H         LINE#         122
  C:7223H         LINE#         123
  C:722FH         LINE#         125
  C:723AH         LINE#         126
  C:7242H         LINE#         127
  C:7250H         LINE#         128
  C:725CH         LINE#         129
  C:7268H         LINE#         130
  C:7274H         LINE#         131
  C:7280H         LINE#         132
  C:728CH         LINE#         133
  C:729AH         LINE#         134
  C:72ACH         LINE#         135
  C:72BFH         LINE#         136
  C:72D2H         LINE#         137
  C:72E4H         LINE#         138
  C:72F0H         LINE#         140
  C:72F3H         LINE#         141
  C:72F5H         LINE#         142
  -------         ENDPROC       PCT_INITOSDCOLOR
  -------         PROC          _PCT_SETOSDDRAWPAGE
  X:01DDH         SYMBOL        _page
  C:A30AH         LINE#         148
  C:A30EH         LINE#         149
  C:A30EH         LINE#         150
  C:A323H         LINE#         151
  -------         ENDPROC       _PCT_SETOSDDRAWPAGE
  C:9CD8H         SYMBOL        L?0180
  -------         PROC          _PCT_ENSHOWOSDPAGE
  X:01DDH         SYMBOL        _page
  C:9CB7H         LINE#         158
  C:9CBCH         LINE#         159
  C:9CBCH         LINE#         160
  C:9CC4H         LINE#         161
BL51 BANKED LINKER/LOCATER V6.22                                                      12/01/2015  16:17:03  PAGE 71


  C:9CC7H         LINE#         162
  C:9CC9H         LINE#         163
  C:9CCBH         LINE#         164
  C:9CCFH         LINE#         165
  C:9CD7H         LINE#         166
  C:9CD7H         LINE#         167
  -------         ENDPROC       _PCT_ENSHOWOSDPAGE
  -------         PROC          _PCT_DISSHOWOSDPAGE
  X:01DDH         SYMBOL        _bit
  -------         DO            
  X:01DEH         SYMBOL        dat
  -------         ENDDO         
  C:9DF7H         LINE#         173
  C:9DFBH         LINE#         174
  C:9DFBH         LINE#         176
  C:9E0DH         LINE#         177
  -------         ENDPROC       _PCT_DISSHOWOSDPAGE
  -------         PROC          _PCT_FULLCOLORONOSD
  X:01DDH         SYMBOL        _posx
  X:01DEH         SYMBOL        _posy
  X:01E0H         SYMBOL        _wide
  X:01E1H         SYMBOL        _high
  C:83C1H         LINE#         186
  C:83C4H         LINE#         187
  C:83C4H         LINE#         188
  C:83CAH         LINE#         189
  C:83D0H         LINE#         190
  C:83D6H         LINE#         191
  C:83DCH         LINE#         193
  C:83E3H         LINE#         194
  C:83F8H         LINE#         195
  C:8407H         LINE#         196
  C:8422H         LINE#         198
  C:8429H         LINE#         199
  C:8432H         LINE#         200
  C:843BH         LINE#         201
  C:8444H         LINE#         202
  C:8451H         LINE#         204
  C:8460H         LINE#         205
  C:846AH         LINE#         206
  -------         ENDPROC       _PCT_FULLCOLORONOSD
  -------         PROC          _PCT_CLEAROSDPAGEX
  D:0007H         SYMBOL        _page
  C:A383H         LINE#         208
  C:A383H         LINE#         209
  C:A383H         LINE#         210
  C:A386H         LINE#         212
  C:A38BH         LINE#         213
  -------         ENDPROC       _PCT_CLEAROSDPAGEX
  C:66B8H         SYMBOL        L?0129
  C:66DAH         SYMBOL        L?0140
  C:66E9H         SYMBOL        L?0142
  C:66F8H         SYMBOL        L?0189
  -------         PROC          _PCT_WRITEOSDDATABUFFERX
  X:03DCH         SYMBOL        _index
  X:03DDH         SYMBOL        _dat
  C:6584H         LINE#         225
BL51 BANKED LINKER/LOCATER V6.22                                                      12/01/2015  16:17:03  PAGE 72


  C:658EH         LINE#         226
  C:658EH         LINE#         227
  C:6599H         LINE#         228
  C:65A9H         LINE#         229
  C:65B5H         LINE#         230
  C:65C1H         LINE#         231
  C:65CAH         LINE#         232
  C:65CDH         LINE#         233
  C:65D3H         LINE#         235
  C:65E6H         LINE#         236
  C:65F2H         LINE#         237
  C:65FEH         LINE#         238
  C:6607H         LINE#         239
  C:660AH         LINE#         240
  C:660FH         LINE#         242
  C:6617H         LINE#         243
  C:662AH         LINE#         244
  C:663AH         LINE#         245
  C:664AH         LINE#         246
  C:6657H         LINE#         247
  C:665DH         LINE#         248
  C:6662H         LINE#         250
  C:6675H         LINE#         251
  C:6688H         LINE#         252
  C:669BH         LINE#         253
  C:66AEH         LINE#         254
  C:66B8H         LINE#         255
  -------         ENDPROC       _PCT_WRITEOSDDATABUFFERX
  -------         PROC          _PCT_WRITEOSDFNTX
  D:0007H         SYMBOL        _posx
  X:039AH         SYMBOL        _posy
  X:039CH         SYMBOL        _len
  X:039DH         SYMBOL        _indx
  -------         DO            
  D:0052H         SYMBOL        i
  D:0053H         SYMBOL        j
  D:0054H         SYMBOL        posx
  X:03A0H         SYMBOL        charPtr
  -------         ENDDO         
  C:7330H         LINE#         265
  C:7337H         LINE#         266
  C:7337H         LINE#         270
  C:733AH         LINE#         271
  C:733FH         LINE#         272
  C:7352H         LINE#         273
  C:735EH         LINE#         274
  C:736DH         LINE#         275
  C:737CH         LINE#         276
  C:738EH         LINE#         277
  C:73A0H         LINE#         279
  C:73ACH         LINE#         280
  C:73B9H         LINE#         281
  C:73EDH         LINE#         282
  C:73F5H         LINE#         283
  C:73FEH         LINE#         285
  C:7407H         LINE#         286
  C:7413H         LINE#         287
BL51 BANKED LINKER/LOCATER V6.22                                                      12/01/2015  16:17:03  PAGE 73


  C:741DH         LINE#         289
  C:7428H         LINE#         290
  C:7434H         LINE#         291
  C:743EH         LINE#         293
  C:744CH         LINE#         294
  C:7453H         LINE#         295
  -------         ENDPROC       _PCT_WRITEOSDFNTX
  -------         PROC          _PCT_CLEARWORDSPATHX
  X:01E0H         SYMBOL        _posx
  X:01E1H         SYMBOL        _posy
  X:01E3H         SYMBOL        _len
  -------         DO            
  X:01E4H         SYMBOL        wide
  X:01E5H         SYMBOL        high
  -------         ENDDO         
  C:825EH         LINE#         304
  C:8261H         LINE#         305
  C:8261H         LINE#         309
  C:8267H         LINE#         310
  C:826DH         LINE#         311
  C:8273H         LINE#         312
  C:8279H         LINE#         314
  C:8281H         LINE#         315
  C:8284H         LINE#         316
  C:8294H         LINE#         317
  C:82A0H         LINE#         319
  C:82B4H         LINE#         320
  C:82C8H         LINE#         322
  C:82D2H         LINE#         323
  C:82DBH         LINE#         324
  C:82E4H         LINE#         325
  C:82EDH         LINE#         326
  C:82FAH         LINE#         328
  C:8309H         LINE#         329
  C:8313H         LINE#         330
  -------         ENDPROC       _PCT_CLEARWORDSPATHX
  -------         PROC          _PCT_WRITEOSDDATABUFFERY
  X:03E0H         SYMBOL        _index
  X:03E1H         SYMBOL        _dat
  C:7454H         LINE#         336
  C:745EH         LINE#         337
  C:745EH         LINE#         338
  C:7469H         LINE#         339
  C:7488H         LINE#         340
  C:74A7H         LINE#         341
  C:74C6H         LINE#         342
  C:74E5H         LINE#         343
  C:74EBH         LINE#         345
  C:74F6H         LINE#         346
  C:7515H         LINE#         347
  C:7534H         LINE#         348
  C:7553H         LINE#         349
  C:7572H         LINE#         350
  -------         ENDPROC       _PCT_WRITEOSDDATABUFFERY
  -------         PROC          _PCT_WRITEOSDFNTY
  X:0360H         SYMBOL        _posx
  X:0361H         SYMBOL        _posy
BL51 BANKED LINKER/LOCATER V6.22                                                      12/01/2015  16:17:03  PAGE 74


  X:0363H         SYMBOL        _len
  X:0364H         SYMBOL        _indx
  -------         DO            
  D:0061H         SYMBOL        i
  D:0062H         SYMBOL        j
  X:0367H         SYMBOL        charPtr
  -------         ENDDO         
  C:79F0H         LINE#         362
  C:79FAH         LINE#         363
  C:79FAH         LINE#         367
  C:7A02H         LINE#         368
  C:7A05H         LINE#         369
  C:7A15H         LINE#         370
  C:7A21H         LINE#         372
  C:7A2DH         LINE#         373
  C:7A3BH         LINE#         374
  C:7A53H         LINE#         376
  C:7A60H         LINE#         377
  C:7A88H         LINE#         378
  C:7A92H         LINE#         379
  C:7A9BH         LINE#         380
  C:7AB6H         LINE#         381
  C:7AC2H         LINE#         382
  C:7ACCH         LINE#         383
  C:7ADAH         LINE#         384
  C:7AE1H         LINE#         385
  -------         ENDPROC       _PCT_WRITEOSDFNTY
  -------         PROC          _PCT_SHOWOSDSTRING
  X:03ACH         SYMBOL        _path
  X:03ADH         SYMBOL        _addrx
  X:03AEH         SYMBOL        _addry
  X:03AFH         SYMBOL        _strptr
  -------         DO            
  X:03B2H         SYMBOL        slen
  -------         ENDDO         
  C:90ACH         LINE#         391
  C:90B3H         LINE#         392
  C:90B3H         LINE#         395
  C:90BEH         LINE#         396
  C:90C5H         LINE#         397
  C:90CCH         LINE#         398
  C:90CCH         LINE#         399
  C:90D9H         LINE#         400
  C:90E0H         LINE#         401
  C:90E3H         LINE#         402
  C:90E3H         LINE#         403
  C:90E8H         LINE#         404
  C:90EAH         LINE#         405
  C:90EAH         LINE#         406
  C:90F7H         LINE#         407
  C:90FEH         LINE#         408
  C:9101H         LINE#         409
  C:9101H         LINE#         410
  C:9106H         LINE#         411
  C:9106H         LINE#         412
  C:9109H         LINE#         413
  -------         ENDPROC       _PCT_SHOWOSDSTRING
BL51 BANKED LINKER/LOCATER V6.22                                                      12/01/2015  16:17:03  PAGE 75


  -------         ENDMOD        OSDCTRL

  -------         MODULE        TIMER
  C:0000H         SYMBOL        _ICE_DUMMY_
  D:0080H         PUBLIC        P0
  D:0090H         PUBLIC        P1
  D:00A0H         PUBLIC        P2
  D:00C0H         PUBLIC        XICON
  D:00B0H         PUBLIC        P3
  C:A61FH         PUBLIC        InitialTimer0
  D:00E8H         PUBLIC        P4
  C:A366H         PUBLIC        InitialTimer2
  B:00A8H.7       PUBLIC        EA
  C:A5AEH         PUBLIC        Timer0_interrupt
  C:7CB5H         PUBLIC        Timer2_interrupt
  D:00A8H         PUBLIC        IE
  D:00B8H         PUBLIC        IP
  D:00D8H         PUBLIC        CCON
  D:00C0H         PUBLIC        WDTC
  D:0098H         PUBLIC        SCON
  D:0088H         PUBLIC        TCON
  D:0041H         PUBLIC        user_timer
  B:0088H.5       PUBLIC        TF0
  B:00A8H.5       PUBLIC        ET2
  B:00C8H.7       PUBLIC        TF2
  D:008CH         PUBLIC        TH0
  D:00CDH         PUBLIC        TH2
  D:008AH         PUBLIC        TL0
  D:00CCH         PUBLIC        TL2
  B:00B8H.5       PUBLIC        PT2
  B:0088H.4       PUBLIC        TR0
  B:00C8H.2       PUBLIC        TR2
  D:00F8H         PUBLIC        IPA
  D:00C9H         PUBLIC        T2MOD
  D:00C8H         PUBLIC        T2CON
  D:00D0H         PUBLIC        PSW
  -------         PROC          INITIALTIMER0
  C:A61FH         LINE#         70
  C:A61FH         LINE#         82
  C:A621H         LINE#         89
  C:A624H         LINE#         101
  C:A627H         LINE#         109
  -------         ENDPROC       INITIALTIMER0
  -------         PROC          INITIALTIMER2
  -------         DO            
  D:0007H         SYMBOL        i
  -------         ENDDO         
  C:A366H         LINE#         113
  C:A366H         LINE#         114
  C:A366H         LINE#         117
  C:A368H         LINE#         118
  C:A36AH         LINE#         119
  C:A36CH         LINE#         120
  C:A36FH         LINE#         121
  C:A372H         LINE#         123
  C:A374H         LINE#         124
  C:A377H         LINE#         125
BL51 BANKED LINKER/LOCATER V6.22                                                      12/01/2015  16:17:03  PAGE 76


  C:A379H         LINE#         127
  C:A379H         LINE#         128
  C:A382H         LINE#         130
  -------         ENDPROC       INITIALTIMER2
  -------         PROC          TIMER0_INTERRUPT
  C:A5AEH         LINE#         141
  C:A5AEH         LINE#         144
  C:A5B0H         LINE#         145
  C:A5B3H         LINE#         146
  C:A5B6H         LINE#         147
  C:A5B8H         LINE#         155
  C:A5BAH         LINE#         156
  -------         ENDPROC       TIMER0_INTERRUPT
  -------         PROC          TIMER2_INTERRUPT
  C:7CB5H         LINE#         160
  C:7CBDH         LINE#         163
  C:7CBFH         LINE#         164
  C:7CC2H         LINE#         165
  C:7CC5H         LINE#         170
  C:7CC7H         LINE#         174
  C:7CDCH         LINE#         175
  C:7CF1H         LINE#         176
  C:7D06H         LINE#         178
  C:7D1BH         LINE#         180
  C:7D30H         LINE#         181
  C:7D45H         LINE#         183
  C:7D60H         LINE#         184
  C:7D7BH         LINE#         190
  C:7D87H         LINE#         191
  C:7D89H         LINE#         192
  -------         ENDPROC       TIMER2_INTERRUPT
  -------         ENDMOD        TIMER

  -------         MODULE        TW28XX_AUDIO
  C:0000H         SYMBOL        _ICE_DUMMY_
  D:0080H         PUBLIC        P0
  D:0090H         PUBLIC        P1
  D:00A0H         PUBLIC        P2
  D:00C0H         PUBLIC        XICON
  D:00B0H         PUBLIC        P3
  D:00E8H         PUBLIC        P4
  C:8B0BH         PUBLIC        _PCT_AudioMixCtrl
  C:9CEDH         PUBLIC        _PCT_AudioMixMute
  D:00A8H         PUBLIC        IE
  D:00B8H         PUBLIC        IP
  D:00D8H         PUBLIC        CCON
  D:00C0H         PUBLIC        WDTC
  D:0098H         PUBLIC        SCON
  D:0088H         PUBLIC        TCON
  C:8BECH         PUBLIC        _PCT_AudioGainCtrl
  D:00F8H         PUBLIC        IPA
  D:00C8H         PUBLIC        T2CON
  C:9E8FH         PUBLIC        _PCT_AudioSelLive
  D:00D0H         PUBLIC        PSW
  C:5E8DH         PUBLIC        PCT_AudioRegList
  C:9C49H         SYMBOL        Com0016
  C:9C49H         SYMBOL        L?0023
BL51 BANKED LINKER/LOCATER V6.22                                                      12/01/2015  16:17:03  PAGE 77


  C:9C4CH         SYMBOL        L?0024
  C:9C58H         SYMBOL        L?0025
  C:9C64H         SYMBOL        L?0027
  C:9C68H         SYMBOL        L?0028
  C:9C74H         SYMBOL        L?0030
  -------         PROC          COM0016
  -------         ENDPROC       COM0016
  C:5F7FH         SYMBOL        L?0013
  C:5F94H         SYMBOL        L?0014
  C:5FA9H         SYMBOL        L?0015
  C:5FBEH         SYMBOL        L?0016
  C:5FD3H         SYMBOL        L?0017
  C:5FE8H         SYMBOL        L?0018
  C:5FFDH         SYMBOL        L?0019
  C:6012H         SYMBOL        L?0020
  C:6027H         SYMBOL        L?0021
  C:603CH         SYMBOL        L?0026
  C:6051H         SYMBOL        L?0029
  -------         PROC          PCT_AUDIOREGLIST
  C:5E8DH         LINE#         60
  C:5E8DH         LINE#         61
  C:5E8DH         LINE#         62
  C:5E98H         LINE#         63
  C:5EA3H         LINE#         64
  C:5EAEH         LINE#         65
  C:5EB9H         LINE#         66
  C:5EC4H         LINE#         68
  C:5ECFH         LINE#         69
  C:5EDAH         LINE#         70
  C:5EE5H         LINE#         71
  C:5EF0H         LINE#         72
  C:5EFBH         LINE#         73
  C:5F06H         LINE#         74
  C:5F11H         LINE#         75
  C:5F1CH         LINE#         77
  C:5F27H         LINE#         78
  C:5F32H         LINE#         79
  C:5F3DH         LINE#         80
  C:5F48H         LINE#         81
  C:5F53H         LINE#         83
  C:5F5EH         LINE#         84
  C:5F69H         LINE#         85
  C:5F74H         LINE#         86
  C:5F7FH         LINE#         87
  -------         ENDPROC       PCT_AUDIOREGLIST
  -------         PROC          _PCT_AUDIOGAINCTRL
  D:0007H         SYMBOL        _dvc
  X:03F5H         SYMBOL        _channel
  X:03F6H         SYMBOL        _gain
  -------         DO            
  D:0004H         SYMBOL        dat
  X:03F7H         SYMBOL        result
  C:99D5H         SYMBOL        chanData
  -------         ENDDO         
  C:8BECH         LINE#         93
  C:8BF6H         LINE#         94
  C:8BF6H         LINE#         110
BL51 BANKED LINKER/LOCATER V6.22                                                      12/01/2015  16:17:03  PAGE 78


  C:8BF8H         LINE#         111
  C:8C05H         LINE#         113
  C:8C15H         LINE#         114
  C:8C34H         LINE#         116
  C:8C44H         LINE#         117
  C:8C54H         LINE#         118
  C:8C56H         LINE#         119
  -------         ENDPROC       _PCT_AUDIOGAINCTRL
  -------         PROC          _PCT_AUDIOMIXCTRL
  X:03E4H         SYMBOL        _dvc
  X:03E5H         SYMBOL        _channel
  X:03E6H         SYMBOL        _gain
  -------         DO            
  D:0004H         SYMBOL        dat
  X:03E7H         SYMBOL        result
  C:99E9H         SYMBOL        chanData
  -------         ENDDO         
  C:8B0BH         LINE#         126
  C:8B16H         LINE#         127
  C:8B16H         LINE#         143
  C:8B1BH         LINE#         144
  C:8B26H         LINE#         146
  C:8B36H         LINE#         147
  C:8B55H         LINE#         149
  C:8B62H         LINE#         150
  C:8B6FH         LINE#         152
  C:8B79H         LINE#         153
  C:8B7BH         LINE#         154
  -------         ENDPROC       _PCT_AUDIOMIXCTRL
  -------         PROC          _PCT_AUDIOMIXMUTE
  D:0007H         SYMBOL        _dvc
  X:03FEH         SYMBOL        _ch
  X:03FFH         SYMBOL        _ctrl
  -------         DO            
  D:0066H         SYMBOL        dat
  -------         ENDDO         
  C:9CEDH         LINE#         160
  C:9CF5H         LINE#         161
  C:9CF5H         LINE#         167
  C:9CF7H         LINE#         168
  C:9CFFH         LINE#         169
  C:9D09H         LINE#         170
  C:9D0DH         LINE#         171
  C:9D0FH         LINE#         172
  C:9D12H         LINE#         173
  C:9D12H         LINE#         174
  C:9D20H         LINE#         176
  C:9D22H         LINE#         177
  -------         ENDPROC       _PCT_AUDIOMIXMUTE
  -------         PROC          _PCT_AUDIOSELLIVE
  D:0007H         SYMBOL        _dvc
  X:0406H         SYMBOL        _chan
  C:9E8FH         LINE#         183
  C:9E94H         LINE#         184
  C:9E94H         LINE#         188
  C:9E96H         LINE#         189
  C:9E99H         LINE#         190
BL51 BANKED LINKER/LOCATER V6.22                                                      12/01/2015  16:17:03  PAGE 79


  C:9EA6H         LINE#         191
  C:9EA9H         LINE#         192
  C:9EA9H         LINE#         194
  C:9EB0H         LINE#         195
  C:9EBCH         LINE#         196
  C:9EBEH         LINE#         197
  -------         ENDPROC       _PCT_AUDIOSELLIVE
  -------         ENDMOD        TW28XX_AUDIO

  -------         MODULE        TW28XX_VIDEO
  C:0000H         SYMBOL        _ICE_DUMMY_
  D:0080H         PUBLIC        P0
  C:99FDH         PUBLIC        _PCT_WinAttrClear
  D:0090H         PUBLIC        P1
  D:00A0H         PUBLIC        P2
  D:00C0H         PUBLIC        XICON
  D:00B0H         PUBLIC        P3
  D:00E8H         PUBLIC        P4
  C:3EEAH         PUBLIC        VidoW2_ModifyACHM
  C:9AB6H         PUBLIC        _PCT_WinAttrCtrlY
  C:3EDEH         PUBLIC        VidoW2_ModifyACNM
  C:93EEH         PUBLIC        _PCT_DetectVideoFormat
  D:00A8H         PUBLIC        IE
  C:3ECEH         PUBLIC        Video_HDelay
  C:3F02H         PUBLIC        VidoW2_ModifyRBHM
  C:70B5H         PUBLIC        _PCT_RecompenseYHdelay
  D:00B8H         PUBLIC        IP
  C:3EF6H         PUBLIC        VidoW2_ModifyRBNM
  C:3F9BH         PUBLIC        XWinAttr_RegAddr
  D:00D8H         PUBLIC        CCON
  C:3FBBH         PUBLIC        YWinAttr_RegAddr
  C:3EB0H         PUBLIC        Video_HDelayInit
  C:5128H         PUBLIC        _PCT_SetVideoHDelay
  C:9D8EH         PUBLIC        _PCT_WinAttrCtrl
  C:85AFH         PUBLIC        _PCT_SetChanelScale
  D:00C0H         PUBLIC        WDTC
  D:0098H         PUBLIC        SCON
  D:0088H         PUBLIC        TCON
  C:623FH         PUBLIC        _PCT_SetXVideoMixing
  C:A452H         PUBLIC        _PCT_SetYVideoMixing
  C:3F1AH         PUBLIC        Init_Vido_Y
  C:3F0EH         PUBLIC        VidoW2_ModifyACHM_PAL
  C:8776H         PUBLIC        PCT_VideoLastModify
  D:00F8H         PUBLIC        IPA
  C:9EBFH         PUBLIC        _PCT_SetVideoFormat
  C:A218H         PUBLIC        _PCT_WinPOPupCtrl
  D:00C8H         PUBLIC        T2CON
  C:3B7AH         PUBLIC        Init_Vido_W1
  C:3BECH         PUBLIC        Init_Vido_W2
  C:3C76H         PUBLIC        Init_Vido_W3
  C:3FABH         PUBLIC        XWinPOP_RegAddr
  C:3E3EH         PUBLIC        Init_Vido_W4
  D:00D0H         PUBLIC        PSW
  C:78D5H         SYMBOL        Com0076
  C:78D5H         SYMBOL        L?0119
  C:78D5H         SYMBOL        L?0120
  C:78EDH         SYMBOL        L?0121
BL51 BANKED LINKER/LOCATER V6.22                                                      12/01/2015  16:17:03  PAGE 80


  C:78EEH         SYMBOL        L?0122
  C:78F1H         SYMBOL        L?0123
  C:78F7H         SYMBOL        L?0124
  C:78FBH         SYMBOL        L?0125
  C:78FEH         SYMBOL        L?0126
  C:7907H         SYMBOL        L?0134
  C:7907H         SYMBOL        L?0135
  C:790AH         SYMBOL        L?0136
  C:790DH         SYMBOL        L?0137
  C:7914H         SYMBOL        L?0138
  C:7915H         SYMBOL        L?0139
  C:791EH         SYMBOL        L?0140
  C:792AH         SYMBOL        L?0141
  C:792AH         SYMBOL        L?0142
  C:792EH         SYMBOL        L?0143
  C:7937H         SYMBOL        L?0144
  C:793AH         SYMBOL        L?0145
  C:793DH         SYMBOL        L?0146
  C:7949H         SYMBOL        L?0147
  C:7949H         SYMBOL        L?0148
  C:794EH         SYMBOL        L?0149
  C:7951H         SYMBOL        L?0150
  C:7959H         SYMBOL        L?0152
  C:795CH         SYMBOL        L?0153
  C:7960H         SYMBOL        L?0154
  C:7963H         SYMBOL        L?0155
  C:796BH         SYMBOL        L?0158
  C:796BH         SYMBOL        L?0159
  C:796EH         SYMBOL        L?0160
  C:7976H         SYMBOL        L?0162
  C:7995H         SYMBOL        L?0165
  C:7995H         SYMBOL        L?0166
  C:7998H         SYMBOL        L?0167
  C:79A1H         SYMBOL        L?0171
  C:79A1H         SYMBOL        L?0172
  C:79A9H         SYMBOL        L?0175
  C:79A9H         SYMBOL        L?0176
  C:79B0H         SYMBOL        L?0178
  C:79B0H         SYMBOL        L?0179
  C:79B8H         SYMBOL        L?0181
  C:79C2H         SYMBOL        L?0182
  C:79C2H         SYMBOL        L?0183
  C:79C8H         SYMBOL        L?0184
  C:79C8H         SYMBOL        L?0185
  C:79CFH         SYMBOL        L?0186
  C:79CFH         SYMBOL        L?0187
  C:79D5H         SYMBOL        L?0188
  C:79D5H         SYMBOL        L?0189
  C:79DCH         SYMBOL        L?0190
  C:79E6H         SYMBOL        L?0191
  -------         PROC          COM0076
  -------         ENDPROC       COM0076
  -------         PROC          _PCT_DETECTVIDEOFORMAT
  X:01D5H         SYMBOL        _ch
  -------         DO            
  X:01D6H         SYMBOL        tmpSta
  -------         ENDDO         
BL51 BANKED LINKER/LOCATER V6.22                                                      12/01/2015  16:17:03  PAGE 81


  C:93EEH         LINE#         77
  C:93F3H         LINE#         78
  C:93F3H         LINE#         84
  C:93F6H         LINE#         86
  C:9403H         LINE#         87
  C:9416H         LINE#         90
  C:941DH         LINE#         91
  C:9420H         LINE#         92
  C:9427H         LINE#         93
  C:942DH         LINE#         94
  C:9438H         LINE#         105
  -------         ENDPROC       _PCT_DETECTVIDEOFORMAT
  -------         PROC          _PCT_SETVIDEOFORMAT
  D:0007H         SYMBOL        _dvc
  D:0005H         SYMBOL        _ch
  X:0400H         SYMBOL        _fmat
  -------         DO            
  D:0007H         SYMBOL        tmpSta
  X:0401H         SYMBOL        addr
  -------         ENDDO         
  C:9EBFH         LINE#         111
  C:9EC4H         LINE#         112
  C:9EC4H         LINE#         115
  C:9EC4H         LINE#         116
  C:9ECFH         LINE#         117
  C:9ED5H         LINE#         120
  C:9ED9H         LINE#         122
  C:9EDFH         LINE#         123
  -------         ENDPROC       _PCT_SETVIDEOFORMAT
  C:860EH         SYMBOL        L?0133
  -------         PROC          _PCT_SETCHANELSCALE
  D:0007H         SYMBOL        _ch
  X:01E4H         SYMBOL        datptr
  -------         DO            
  C:3FC3H         SYMBOL        ScaleRgeAddr
  X:01E7H         SYMBOL        addrptr
  X:01EAH         SYMBOL        value
  -------         ENDDO         
  C:85AFH         LINE#         132
  C:85B6H         LINE#         133
  C:85B6H         LINE#         145
  C:85C6H         LINE#         146
  C:85DAH         LINE#         147
  C:85DFH         LINE#         148
  C:85DFH         LINE#         149
  C:85E8H         LINE#         150
  C:85F2H         LINE#         151
  C:8605H         LINE#         152
  C:8605H         LINE#         153
  C:860EH         LINE#         154
  -------         ENDPROC       _PCT_SETCHANELSCALE
  C:533DH         SYMBOL        L?0127
  C:535AH         SYMBOL        L?0128
  C:5377H         SYMBOL        L?0129
  C:5394H         SYMBOL        L?0130
  C:53ACH         SYMBOL        L?0131
  C:53C6H         SYMBOL        L?0132
BL51 BANKED LINKER/LOCATER V6.22                                                      12/01/2015  16:17:03  PAGE 82


  C:53DBH         SYMBOL        L?0151
  C:53ECH         SYMBOL        L?0157
  C:53F8H         SYMBOL        L?0163
  C:5404H         SYMBOL        L?0164
  C:5415H         SYMBOL        L?0173
  -------         PROC          _PCT_SETVIDEOHDELAY
  D:0007H         SYMBOL        _typ
  X:01DEH         SYMBOL        _winch
  X:01E1H         SYMBOL        _cattr
  -------         DO            
  X:01E4H         SYMBOL        hdelay
  -------         ENDDO         
  C:5128H         LINE#         157
  C:512FH         LINE#         158
  C:512FH         LINE#         166
  C:515BH         LINE#         167
  C:515BH         LINE#         168
  C:515BH         LINE#         174
  C:5161H         LINE#         175
  C:516AH         LINE#         176
  C:5177H         LINE#         177
  C:517DH         LINE#         179
  C:517FH         LINE#         183
  C:5180H         LINE#         191
  C:5182H         LINE#         193
  C:5182H         LINE#         194
  C:5182H         LINE#         208
  C:5182H         LINE#         210
  C:5182H         LINE#         211
  C:5182H         LINE#         213
  C:5182H         LINE#         214
  C:518BH         LINE#         222
  C:5199H         LINE#         226
  C:5199H         LINE#         227
  C:5199H         LINE#         232
  C:51A7H         LINE#         234
  C:51AAH         LINE#         236
  C:51AAH         LINE#         237
  C:51AAH         LINE#         239
  C:51B0H         LINE#         240
  C:51B9H         LINE#         241
  C:51C1H         LINE#         242
  C:51C7H         LINE#         244
  C:51C7H         LINE#         245
  C:51D3H         LINE#         246
  C:51DBH         LINE#         247
  C:51E1H         LINE#         249
  C:51E4H         LINE#         250
  C:51EDH         LINE#         251
  C:51F8H         LINE#         252
  C:5202H         LINE#         253
  C:5205H         LINE#         255
  C:5205H         LINE#         256
  C:5205H         LINE#         257
  C:5205H         LINE#         259
  C:5205H         LINE#         260
  C:5205H         LINE#         263
BL51 BANKED LINKER/LOCATER V6.22                                                      12/01/2015  16:17:03  PAGE 83


  C:5205H         LINE#         264
  C:520EH         LINE#         265
  C:5216H         LINE#         266
  C:521CH         LINE#         268
  C:521CH         LINE#         269
  C:521CH         LINE#         270
  C:5224H         LINE#         271
  C:522AH         LINE#         273
  C:522DH         LINE#         274
  C:5236H         LINE#         275
  C:5241H         LINE#         276
  C:524BH         LINE#         277
  C:524EH         LINE#         279
  C:524EH         LINE#         280
  C:524EH         LINE#         283
  C:524EH         LINE#         284
  C:5257H         LINE#         285
  C:5265H         LINE#         286
  C:5271H         LINE#         288
  C:5271H         LINE#         289
  C:5271H         LINE#         290
  C:5279H         LINE#         291
  C:5285H         LINE#         293
  C:5285H         LINE#         294
  C:5291H         LINE#         295
  C:529FH         LINE#         296
  C:52A9H         LINE#         297
  C:52ACH         LINE#         299
  C:52ACH         LINE#         300
  C:52ACH         LINE#         303
  C:52ACH         LINE#         304
  C:52B5H         LINE#         305
  C:52C3H         LINE#         306
  C:52CFH         LINE#         308
  C:52CFH         LINE#         309
  C:52CFH         LINE#         310
  C:52D7H         LINE#         311
  C:52E3H         LINE#         313
  C:52E3H         LINE#         314
  C:52EFH         LINE#         315
  C:52FAH         LINE#         316
  C:5304H         LINE#         318
  C:5307H         LINE#         319
  C:5310H         LINE#         320
  C:5328H         LINE#         321
  C:533CH         LINE#         322
  C:533CH         LINE#         324
  C:533CH         LINE#         325
  C:533CH         LINE#         326
  C:533CH         LINE#         327
  -------         ENDPROC       _PCT_SETVIDEOHDELAY
  C:63BFH         SYMBOL        L?0169
  C:63C6H         SYMBOL        L?0170
  C:63D1H         SYMBOL        L?0174
  C:63DBH         SYMBOL        L?0192
  -------         PROC          _PCT_SETXVIDEOMIXING
  X:01DDH         SYMBOL        _typ
BL51 BANKED LINKER/LOCATER V6.22                                                      12/01/2015  16:17:03  PAGE 84


  X:01DEH         SYMBOL        _winch
  -------         DO            
  X:01E1H         SYMBOL        wregptr
  -------         ENDDO         
  C:623FH         LINE#         330
  C:6249H         LINE#         331
  C:6249H         LINE#         335
  C:6257H         LINE#         336
  C:6265H         LINE#         337
  C:627AH         LINE#         338
  C:628FH         LINE#         347
  C:62C6H         LINE#         348
  C:62C6H         LINE#         349
  C:62C6H         LINE#         353
  C:62D6H         LINE#         354
  C:62DFH         LINE#         355
  C:62DFH         LINE#         356
  C:62E2H         LINE#         358
  C:62E2H         LINE#         359
  C:62E2H         LINE#         360
  C:62E2H         LINE#         361
  C:62E2H         LINE#         362
  C:62F2H         LINE#         363
  C:62F4H         LINE#         365
  C:6300H         LINE#         367
  C:630CH         LINE#         369
  C:6311H         LINE#         370
  C:6314H         LINE#         372
  C:6314H         LINE#         373
  C:6314H         LINE#         374
  C:6314H         LINE#         375
  C:6314H         LINE#         376
  C:6314H         LINE#         377
  C:6314H         LINE#         378
  C:6314H         LINE#         379
  C:6314H         LINE#         380
  C:6324H         LINE#         381
  C:6326H         LINE#         383
  C:6332H         LINE#         384
  C:633EH         LINE#         385
  C:6353H         LINE#         386
  C:6358H         LINE#         387
  C:635BH         LINE#         389
  C:635BH         LINE#         390
  C:635BH         LINE#         391
  C:636BH         LINE#         392
  C:6377H         LINE#         393
  C:6387H         LINE#         394
  C:639AH         LINE#         395
  C:63B0H         LINE#         396
  C:63BEH         LINE#         397
  C:63BEH         LINE#         399
  C:63BEH         LINE#         400
  C:63BEH         LINE#         401
  C:63BEH         LINE#         402
  -------         ENDPROC       _PCT_SETXVIDEOMIXING
  -------         PROC          _PCT_SETYVIDEOMIXING
BL51 BANKED LINKER/LOCATER V6.22                                                      12/01/2015  16:17:03  PAGE 85


  D:0007H         SYMBOL        _typ
  C:A452H         LINE#         408
  C:A452H         LINE#         409
  C:A452H         LINE#         410
  -------         ENDPROC       _PCT_SETYVIDEOMIXING
  C:71BFH         SYMBOL        L?0156
  C:71CBH         SYMBOL        L?0161
  C:71D7H         SYMBOL        L?0168
  C:71E3H         SYMBOL        L?0177
  C:71EAH         SYMBOL        L?0180
  -------         PROC          _PCT_RECOMPENSEYHDELAY
  X:01DDH         SYMBOL        _chmiro
  C:70B5H         LINE#         414
  C:70BCH         LINE#         415
  C:70BCH         LINE#         416
  C:70E9H         LINE#         417
  C:70E9H         LINE#         419
  C:70FAH         LINE#         420
  C:7104H         LINE#         421
  C:7115H         LINE#         422
  C:711FH         LINE#         423
  C:7130H         LINE#         424
  C:713DH         LINE#         425
  C:7151H         LINE#         426
  C:7151H         LINE#         427
  C:7154H         LINE#         429
  C:7154H         LINE#         430
  C:7165H         LINE#         431
  C:716CH         LINE#         432
  C:716FH         LINE#         434
  C:716FH         LINE#         435
  C:717DH         LINE#         436
  C:7184H         LINE#         437
  C:7186H         LINE#         439
  C:7186H         LINE#         440
  C:7197H         LINE#         441
  C:719EH         LINE#         442
  C:71A0H         LINE#         444
  C:71A0H         LINE#         445
  C:71B1H         LINE#         446
  C:71BEH         LINE#         447
  C:71BEH         LINE#         448
  C:71BEH         LINE#         449
  -------         ENDPROC       _PCT_RECOMPENSEYHDELAY
  -------         PROC          PCT_VIDEOLASTMODIFY
  -------         DO            
  D:0067H         SYMBOL        state
  -------         ENDDO         
  C:8776H         LINE#         457
  C:8776H         LINE#         458
  C:8776H         LINE#         459
  C:8779H         LINE#         461
  C:8783H         LINE#         462
  C:878EH         LINE#         463
  C:879CH         LINE#         464
  C:87A9H         LINE#         466
  C:87C9H         LINE#         467
BL51 BANKED LINKER/LOCATER V6.22                                                      12/01/2015  16:17:03  PAGE 86


  C:87C9H         LINE#         468
  C:87C9H         LINE#         469
  C:87CFH         LINE#         470
  C:87D1H         LINE#         472
  C:87D1H         LINE#         473
  C:87D1H         LINE#         475
  C:87DAH         LINE#         476
  C:87E0H         LINE#         478
  C:87E4H         LINE#         479
  C:87E6H         LINE#         481
  C:87E6H         LINE#         482
  C:87E6H         LINE#         483
  C:87EBH         LINE#         484
  C:87F1H         LINE#         485
  C:87F3H         LINE#         486
  C:87F3H         LINE#         487
  C:87F3H         LINE#         488
  C:87F8H         LINE#         489
  C:8803H         LINE#         490
  C:8803H         LINE#         491
  C:8803H         LINE#         492
  -------         ENDPROC       PCT_VIDEOLASTMODIFY
  -------         PROC          _PCT_WINATTRCTRL
  X:01DDH         SYMBOL        _wid
  X:01DEH         SYMBOL        _attrsel
  X:01DFH         SYMBOL        _setval
  -------         DO            
  D:0004H         SYMBOL        dat
  -------         ENDDO         
  C:9D8EH         LINE#         500
  C:9D9BH         LINE#         501
  C:9D9BH         LINE#         507
  C:9DA5H         LINE#         508
  C:9DB7H         LINE#         509
  -------         ENDPROC       _PCT_WINATTRCTRL
  -------         PROC          _PCT_WINATTRCTRLY
  X:01DDH         SYMBOL        _wid
  X:01DEH         SYMBOL        _attrsel
  X:01DFH         SYMBOL        _setval
  -------         DO            
  D:0004H         SYMBOL        dat
  -------         ENDDO         
  C:9AB6H         LINE#         518
  C:9AC3H         LINE#         519
  C:9AC3H         LINE#         524
  C:9AD0H         LINE#         525
  C:9AE2H         LINE#         526
  -------         ENDPROC       _PCT_WINATTRCTRLY
  -------         PROC          _PCT_WINATTRCLEAR
  X:03F8H         SYMBOL        _attrsel
  -------         DO            
  X:03F9H         SYMBOL        _wid
  X:03FAH         SYMBOL        dat
  -------         ENDDO         
  C:99FDH         LINE#         535
  C:9A02H         LINE#         536
  C:9A02H         LINE#         543
BL51 BANKED LINKER/LOCATER V6.22                                                      12/01/2015  16:17:03  PAGE 87


  C:9A0FH         LINE#         544
  C:9A1DH         LINE#         545
  C:9A28H         LINE#         546
  C:9A34H         LINE#         547
  C:9A3CH         LINE#         548
  -------         ENDPROC       _PCT_WINATTRCLEAR
  -------         PROC          _PCT_WINPOPUPCTRL
  X:0407H         SYMBOL        _wid
  -------         DO            
  D:0004H         SYMBOL        dat
  -------         ENDDO         
  C:A218H         LINE#         555
  C:A21DH         LINE#         556
  C:A21DH         LINE#         562
  C:A22AH         LINE#         563
  C:A22EH         LINE#         564
  -------         ENDPROC       _PCT_WINPOPUPCTRL
  -------         ENDMOD        TW28XX_VIDEO

  -------         MODULE        TW2835_INIT
  C:0000H         SYMBOL        _ICE_DUMMY_
  D:0080H         PUBLIC        P0
  D:0090H         PUBLIC        P1
  D:00A0H         PUBLIC        P2
  D:00C0H         PUBLIC        XICON
  D:00B0H         PUBLIC        P3
  D:00E8H         PUBLIC        P4
  D:00A8H         PUBLIC        IE
  C:3FD3H         PUBLIC        TW2835_Page0
  C:41D3H         PUBLIC        TW2835_Page1
  C:9939H         PUBLIC        PCT_InitialTW2835
  D:00B8H         PUBLIC        IP
  C:A4C9H         PUBLIC        PCT_TW2835ResetN
  D:00D8H         PUBLIC        CCON
  D:00C0H         PUBLIC        WDTC
  D:0098H         PUBLIC        SCON
  D:0088H         PUBLIC        TCON
  C:8E5EH         PUBLIC        _PCT_ChangeSystemType
  D:00F8H         PUBLIC        IPA
  D:00C8H         PUBLIC        T2CON
  B:00E8H.0       PUBLIC        RSTn
  C:8D93H         PUBLIC        PCT_TW2835_Initial
  D:00D0H         PUBLIC        PSW
  C:A3B6H         SYMBOL        Com000C
  C:A3B6H         SYMBOL        L?0013
  C:A3BFH         SYMBOL        L?0014
  -------         PROC          COM000C
  -------         ENDPROC       COM000C
  -------         PROC          PCT_INITIALTW2835
  C:9939H         LINE#         77
  C:9939H         LINE#         78
  C:9939H         LINE#         79
  C:993CH         LINE#         80
  C:9941H         LINE#         83
  C:9946H         LINE#         84
  C:994EH         LINE#         86
  C:995CH         LINE#         87
BL51 BANKED LINKER/LOCATER V6.22                                                      12/01/2015  16:17:03  PAGE 88


  C:995CH         LINE#         88
  C:9966H         LINE#         92
  C:9968H         LINE#         93
  C:9968H         LINE#         95
  C:996FH         LINE#         100
  C:9971H         LINE#         101
  C:9976H         LINE#         103
  C:9979H         LINE#         105
  -------         ENDPROC       PCT_INITIALTW2835
  -------         PROC          PCT_TW2835RESETN
  -------         DO            
  D:0006H         SYMBOL        _delay
  -------         ENDDO         
  C:A4C9H         LINE#         113
  C:A4C9H         LINE#         114
  C:A4C9H         LINE#         129
  C:A4CBH         LINE#         132
  C:A4D9H         LINE#         134
  C:A4DBH         LINE#         138
  -------         ENDPROC       PCT_TW2835RESETN
  C:8DEEH         SYMBOL        L?0015
  -------         PROC          PCT_TW2835_INITIAL
  -------         DO            
  X:01D5H         SYMBOL        offset
  -------         ENDDO         
  C:8D93H         LINE#         144
  C:8D93H         LINE#         145
  C:8D93H         LINE#         148
  C:8D9EH         LINE#         149
  C:8DAAH         LINE#         150
  C:8DBCH         LINE#         152
  C:8DD3H         LINE#         154
  C:8DEEH         LINE#         155
  -------         ENDPROC       PCT_TW2835_INITIAL
  C:8EB6H         SYMBOL        L?0016
  -------         PROC          _PCT_CHANGESYSTEMTYPE
  D:0007H         SYMBOL        _sys
  -------         DO            
  X:0006H         SYMBOL        offset
  -------         ENDDO         
  C:8E5EH         LINE#         161
  C:8E5EH         LINE#         162
  C:8E5EH         LINE#         165
  C:8E66H         LINE#         166
  C:8E72H         LINE#         168
  C:8E85H         LINE#         170
  C:8E9BH         LINE#         171
  C:8EB6H         LINE#         172
  -------         ENDPROC       _PCT_CHANGESYSTEMTYPE
  -------         ENDMOD        TW2835_INIT

  -------         MODULE        NED
  C:0000H         SYMBOL        _ICE_DUMMY_
  X:020BH         PUBLIC        SC16_Com
  C:A66EH         PUBLIC        _GPIOGetPortState
  C:A4DCH         PUBLIC        _WriteI2C2
  D:0080H         PUBLIC        P0
BL51 BANKED LINKER/LOCATER V6.22                                                      12/01/2015  16:17:03  PAGE 89


  D:0090H         PUBLIC        P1
  C:9AF2H         PUBLIC        _SC16_data_reset
  D:00A0H         PUBLIC        P2
  C:A513H         PUBLIC        I2CStart2
  C:9B67H         PUBLIC        Sent_DVR_temp
  D:00C0H         PUBLIC        XICON
  D:00B0H         PUBLIC        P3
  X:0214H         PUBLIC        Camera_move_loop
  C:A573H         PUBLIC        I2Cdelay2
  D:00E8H         PUBLIC        P4
  C:A668H         PUBLIC        _Command_Check
  X:0215H         PUBLIC        DVR_temp
  X:0217H         PUBLIC        Cam_startup_flag
  C:9FF7H         PUBLIC        Get_DVR_temp
  C:8A98H         PUBLIC        _Bound_Set
  C:A582H         PUBLIC        _Sent_Camera_IRD
  C:A631H         PUBLIC        _GPIOSetPortState
  C:A545H         PUBLIC        _Power_onoff
  C:A348H         PUBLIC        _WriteI2CWORD
  X:0218H         PUBLIC        Camera_press0
  D:00A8H         PUBLIC        IE
  X:0219H         PUBLIC        Camera_press1
  C:A628H         PUBLIC        _GPIOSetPortMode
  C:98B0H         PUBLIC        _Get_Camera_IRD
  X:021AH         PUBLIC        Camera_press2
  X:021BH         PUBLIC        Camera_press3
  C:8F26H         PUBLIC        GPIO_check
  B:00A0H.0       PUBLIC        P2_0
  X:021CH         PUBLIC        Cam_Com
  B:00A0H.1       PUBLIC        P2_1
  C:9751H         PUBLIC        Sent_Camera_RAng
  B:00A0H.2       PUBLIC        P2_2
  C:A5D5H         PUBLIC        _ReadByte
  C:899DH         PUBLIC        SC16_init
  B:00E8H.1       PUBLIC        P4_1
  B:00A0H.3       PUBLIC        P2_3
  X:0221H         PUBLIC        Camera_temp0
  B:00E8H.2       PUBLIC        P4_2
  X:0222H         PUBLIC        Camera_RAng
  X:0226H         PUBLIC        Camera_temp1
  B:00B0H.4       PUBLIC        P3_4
  B:00A0H.5       PUBLIC        P2_5
  B:00B0H.5       PUBLIC        P3_5
  B:00A0H.6       PUBLIC        P2_6
  X:0227H         PUBLIC        data_flag
  X:0228H         PUBLIC        GPIO_current
  C:9798H         PUBLIC        Sent_DVR_ver
  C:9FCBH         PUBLIC        Get_Camera_RAng
  D:00B8H         PUBLIC        IP
  C:A5C8H         PUBLIC        I2CStop2
  X:0229H         PUBLIC        DVR_ver
  X:022CH         PUBLIC        Com_flag
  C:A413H         PUBLIC        _parity
  C:A67AH         PUBLIC        _FIFOAvailableSpace
  X:022DH         PUBLIC        Com_addr
  C:A023H         PUBLIC        Get_DVR_ver
  D:00C6H         PUBLIC        ADCV
BL51 BANKED LINKER/LOCATER V6.22                                                      12/01/2015  16:17:03  PAGE 90


  X:022EH         PUBLIC        SC16_busy_flag
  C:846BH         PUBLIC        _TW2835_get
  C:9483H         PUBLIC        I2C_ACK2
  C:A2A9H         PUBLIC        _EnableTransmit
  X:0230H         PUBLIC        peek_flag
  D:00D8H         PUBLIC        CCON
  X:0231H         PUBLIC        SC16_com_buff
  C:A63AH         PUBLIC        _WriteByte
  C:A5A0H         PUBLIC        _flush
  X:023AH         PUBLIC        Cam_boot_flag
  X:023BH         PUBLIC        DVR_Y
  C:A5F9H         PUBLIC        _peek
  C:A674H         PUBLIC        _FIFOAvailableData
  C:997CH         PUBLIC        I2CReadDataWithACK
  C:97DFH         PUBLIC        Send_Camera_Press
  X:023FH         PUBLIC        Camera_ver0
  X:0240H         PUBLIC        Camera_ver1
  X:0241H         PUBLIC        Camera_ver2
  C:A0FEH         PUBLIC        _ping
  D:0087H         PUBLIC        PCON
  X:0242H         PUBLIC        Com_start
  C:A643H         PUBLIC        MCTRL_set
  C:9BA1H         PUBLIC        Send_Camera_Temp
  D:00C0H         PUBLIC        WDTC
  D:0098H         PUBLIC        SCON
  D:0088H         PUBLIC        TCON
  C:8EC2H         PUBLIC        _SetLine
  X:0243H         PUBLIC        Com_temp
  X:0244H         PUBLIC        Shrink_f
  X:0245H         PUBLIC        Back_f
  X:0246H         PUBLIC        Com_end
  C:A129H         PUBLIC        _BCC_Cal
  C:9C80H         PUBLIC        I2CReadData
  C:9E2BH         PUBLIC        Repeat_PWM_Com
  X:0247H         PUBLIC        get_data_addr
  C:9E5DH         PUBLIC        SC16_DataCheck
  C:A329H         PUBLIC        _ReadI2C
  X:0248H         PUBLIC        DVR_Com_p
  B:0088H.1       PUBLIC        IE0
  B:0088H.3       PUBLIC        IE1
  B:00C0H.1       PUBLIC        IE2
  C:970AH         PUBLIC        Sent_Camera_Ang
  C:9D4AH         SYMBOL        _?ix1000
  C:9D4DH         SYMBOL        _?ix1001
  X:0249H         PUBLIC        Camera_Ang
  C:9D51H         SYMBOL        _?ix1002
  C:9D55H         SYMBOL        _?ix1003
  X:024DH         PUBLIC        peek_buf
  C:9F9FH         PUBLIC        Get_Camera_Ang
  C:A2EAH         PUBLIC        _ADC_read
  C:96C3H         PUBLIC        Send_Camera_Ver
  X:024EH         PUBLIC        Camera_flag
  C:8514H         PUBLIC        _I2CWriteData
  C:6066H         PUBLIC        _SC16_SendDataSelect
  C:A47AH         PUBLIC        _WriteI2C
  B:00A8H.0       PUBLIC        EX0
  B:0088H.0       PUBLIC        IT0
BL51 BANKED LINKER/LOCATER V6.22                                                      12/01/2015  16:17:03  PAGE 91


  D:008DH         PUBLIC        TH1
  X:024FH         PUBLIC        Camera_IRDA
  C:A689H         PUBLIC        Sent_DVR_MDr
  B:00A8H.2       PUBLIC        EX1
  B:0088H.2       PUBLIC        IT1
  C:94CDH         PUBLIC        _Set_Camera_speed
  B:00C0H.0       PUBLIC        IT2
  B:00C0H.2       PUBLIC        EX2
  C:A501H         PUBLIC        I2CStart
  C:A688H         PUBLIC        I2Cdelay
  X:026BH         PUBLIC        DRP_ID
  X:0274H         PUBLIC        Com_pos
  X:0275H         PUBLIC        Monitor_current
  X:0276H         PUBLIC        Com_run
  C:000EH         PUBLIC        _ResetDevice
  D:00F8H         PUBLIC        IPA
  C:80E3H         PUBLIC        _SetBaudrate
  X:0277H         PUBLIC        Crop_f
  C:A0D3H         PUBLIC        I2CReadDataWithACK2
  C:A17DH         PUBLIC        ADT75_init
  C:9825H         PUBLIC        Sent_DVR_Year
  C:9F73H         PUBLIC        Get_Camera_Ver
  X:0278H         PUBLIC        DVR_MD
  C:A466H         PUBLIC        I2C_100Khz
  C:8314H         PUBLIC        _SC16_ComCheck
  C:A07BH         PUBLIC        Get_DVR_MD
  X:027CH         PUBLIC        DVR_MH
  X:0280H         PUBLIC        DVR_startup_flag
  C:A04FH         PUBLIC        Get_DVR_Year
  X:0281H         PUBLIC        get_data_val
  X:0282H         PUBLIC        Cam_Com_p
  C:A68AH         PUBLIC        Sent_DVR_HS
  C:7BD1H         PUBLIC        Camera_move
  C:A288H         PUBLIC        _SC16_SendData
  C:86E0H         PUBLIC        Check_other_Com
  C:A5BBH         PUBLIC        I2CStop
  D:00C8H         PUBLIC        T2CON
  X:0283H         PUBLIC        INT_flag
  C:5AD4H         PUBLIC        _SC16_BCC_Check
  D:00C5H         PUBLIC        ADCTL
  C:A0A7H         PUBLIC        Get_DVR_HS
  C:8A1DH         PUBLIC        _Set_channel
  D:00BEH         PUBLIC        ADCVL
  C:A23EH         PUBLIC        I2CReadData2
  X:0284H         PUBLIC        DVR_Com
  C:A535H         PUBLIC        I2C_ACK
  C:A263H         PUBLIC        _ReadI2C2
  X:0289H         PUBLIC        Monitor_state
  X:028AH         PUBLIC        OUTPUT
  X:028BH         PUBLIC        Monitor_mode
  C:A3CFH         PUBLIC        _Set_INT
  C:8648H         PUBLIC        _check_startup
  D:00D0H         PUBLIC        PSW
  C:967CH         PUBLIC        _ReadI2CWORD
  X:028CH         PUBLIC        SC16_ComAddr
  C:8C57H         PUBLIC        _I2CWriteData2
  C:8D2AH         PUBLIC        _Get_Data
BL51 BANKED LINKER/LOCATER V6.22                                                      12/01/2015  16:17:03  PAGE 92


  C:7578H         SYMBOL        Com01AC
  C:7578H         SYMBOL        L?0429
  C:7579H         SYMBOL        L?0430
  C:757AH         SYMBOL        L?0431
  C:757BH         SYMBOL        L?0432
  C:757EH         SYMBOL        L?0433
  C:757FH         SYMBOL        L?0434
  C:7581H         SYMBOL        L?0435
  C:7589H         SYMBOL        L?0438
  C:758AH         SYMBOL        L?0439
  C:758DH         SYMBOL        L?0440
  C:7590H         SYMBOL        L?0441
  C:759AH         SYMBOL        L?0442
  C:759AH         SYMBOL        L?0443
  C:759EH         SYMBOL        L?0444
  C:75ACH         SYMBOL        L?0446
  C:75ACH         SYMBOL        L?0447
  C:75AFH         SYMBOL        L?0448
  C:75B9H         SYMBOL        L?0451
  C:75B9H         SYMBOL        L?0452
  C:75BEH         SYMBOL        L?0453
  C:75C6H         SYMBOL        L?0455
  C:75C6H         SYMBOL        L?0456
  C:75D2H         SYMBOL        L?0458
  C:75D2H         SYMBOL        L?0459
  C:75D5H         SYMBOL        L?0460
  C:75DDH         SYMBOL        L?0471
  C:75E1H         SYMBOL        L?0472
  C:75E8H         SYMBOL        L?0473
  C:75E8H         SYMBOL        L?0474
  C:75EFH         SYMBOL        L?0476
  C:75EFH         SYMBOL        L?0477
  C:75FBH         SYMBOL        L?0481
  C:7608H         SYMBOL        L?0482
  C:7612H         SYMBOL        L?0483
  C:7612H         SYMBOL        L?0484
  C:761AH         SYMBOL        L?0489
  C:7625H         SYMBOL        L?0490
  C:7630H         SYMBOL        L?0491
  C:763BH         SYMBOL        L?0493
  C:7645H         SYMBOL        L?0494
  C:764FH         SYMBOL        L?0495
  C:7659H         SYMBOL        L?0496
  C:7659H         SYMBOL        L?0497
  C:7660H         SYMBOL        L?0498
  C:7660H         SYMBOL        L?0499
  C:7667H         SYMBOL        L?0500
  C:7667H         SYMBOL        L?0501
  C:766EH         SYMBOL        L?0502
  C:766EH         SYMBOL        L?0503
  C:7675H         SYMBOL        L?0504
  C:7675H         SYMBOL        L?0505
  C:767CH         SYMBOL        L?0506
  C:7686H         SYMBOL        L?0507
  C:7690H         SYMBOL        L?0508
  -------         PROC          COM01AC
  -------         ENDPROC       COM01AC
BL51 BANKED LINKER/LOCATER V6.22                                                      12/01/2015  16:17:03  PAGE 93


  -------         PROC          I2CDELAY
  -------         DO            
  X:01DDH         SYMBOL        i
  -------         ENDDO         
  C:A688H         LINE#         122
  C:A688H         LINE#         123
  C:A688H         LINE#         137
  -------         ENDPROC       I2CDELAY
  -------         PROC          I2CDELAY2
  -------         DO            
  D:0006H         SYMBOL        i
  -------         ENDDO         
  C:A573H         LINE#         138
  C:A573H         LINE#         139
  C:A573H         LINE#         141
  C:A576H         LINE#         143
  C:A581H         LINE#         144
  -------         ENDPROC       I2CDELAY2
  -------         PROC          I2C_100KHZ
  C:A466H         LINE#         146
  C:A466H         LINE#         147
  C:A466H         LINE#         149
  C:A473H         LINE#         150
  C:A479H         LINE#         151
  -------         ENDPROC       I2C_100KHZ
  -------         PROC          I2CSTART
  C:A501H         LINE#         153
  C:A501H         LINE#         154
  C:A501H         LINE#         156
  C:A506H         LINE#         157
  C:A50BH         LINE#         158
  C:A510H         LINE#         159
  C:A512H         LINE#         175
  -------         ENDPROC       I2CSTART
  -------         PROC          I2CSTART2
  C:A513H         LINE#         177
  C:A513H         LINE#         178
  C:A513H         LINE#         180
  C:A518H         LINE#         181
  C:A51DH         LINE#         182
  C:A522H         LINE#         183
  C:A524H         LINE#         184
  -------         ENDPROC       I2CSTART2
  -------         PROC          I2CSTOP
  C:A5BBH         LINE#         185
  C:A5BBH         LINE#         186
  C:A5BBH         LINE#         188
  C:A5C0H         LINE#         189
  C:A5C5H         LINE#         190
  C:A5C7H         LINE#         205
  -------         ENDPROC       I2CSTOP
  -------         PROC          I2CSTOP2
  C:A5C8H         LINE#         207
  C:A5C8H         LINE#         208
  C:A5C8H         LINE#         210
  C:A5CDH         LINE#         211
  C:A5D2H         LINE#         212
BL51 BANKED LINKER/LOCATER V6.22                                                      12/01/2015  16:17:03  PAGE 94


  C:A5D4H         LINE#         213
  -------         ENDPROC       I2CSTOP2
  C:857BH         SYMBOL        L?0450
  C:8588H         SYMBOL        L?0454
  C:8595H         SYMBOL        L?0457
  C:85A2H         SYMBOL        L?0479
  -------         PROC          _I2CWRITEDATA
  D:0007H         SYMBOL        value
  C:8514H         LINE#         215
  C:8514H         LINE#         216
  C:8514H         LINE#         218
  C:851EH         LINE#         219
  C:8529H         LINE#         220
  C:8534H         LINE#         221
  C:853FH         LINE#         223
  C:854AH         LINE#         224
  C:8555H         LINE#         225
  C:8560H         LINE#         226
  C:856BH         LINE#         229
  C:856EH         LINE#         230
  C:856EH         LINE#         231
  C:856EH         LINE#         232
  C:856EH         LINE#         234
  C:856EH         LINE#         235
  C:8571H         LINE#         236
  C:8573H         LINE#         237
  C:8576H         LINE#         238
  C:8578H         LINE#         239
  C:857BH         LINE#         281
  -------         ENDPROC       _I2CWRITEDATA
  -------         PROC          _I2CWRITEDATA2
  D:0005H         SYMBOL        value
  C:8C57H         LINE#         284
  C:8C59H         LINE#         285
  C:8C59H         LINE#         287
  C:8C63H         LINE#         288
  C:8C6EH         LINE#         289
  C:8C79H         LINE#         290
  C:8C89H         LINE#         292
  C:8C94H         LINE#         293
  C:8C9FH         LINE#         294
  C:8CAAH         LINE#         295
  C:8CB5H         LINE#         298
  C:8CB8H         LINE#         299
  C:8CB8H         LINE#         300
  C:8CB8H         LINE#         301
  C:8CB8H         LINE#         303
  C:8CB8H         LINE#         304
  C:8CBBH         LINE#         305
  C:8CBBH         LINE#         306
  C:8CBBH         LINE#         307
  C:8CBEH         LINE#         308
  -------         ENDPROC       _I2CWRITEDATA2
  -------         PROC          I2CREADDATA
  -------         DO            
  D:0004H         SYMBOL        i
  D:0007H         SYMBOL        value
BL51 BANKED LINKER/LOCATER V6.22                                                      12/01/2015  16:17:03  PAGE 95


  -------         ENDDO         
  C:9C80H         LINE#         313
  C:9C80H         LINE#         314
  C:9C80H         LINE#         317
  C:9C82H         LINE#         319
  C:9C87H         LINE#         320
  C:9C89H         LINE#         322
  C:9C8BH         LINE#         323
  C:9C8EH         LINE#         324
  C:9C90H         LINE#         325
  C:9C94H         LINE#         326
  C:9C9AH         LINE#         327
  C:9C9DH         LINE#         328
  C:9C9FH         LINE#         329
  C:9CA2H         LINE#         330
  C:9CADH         LINE#         332
  C:9CB0H         LINE#         336
  C:9CB3H         LINE#         338
  C:9CB6H         LINE#         339
  C:9CB6H         LINE#         399
  -------         ENDPROC       I2CREADDATA
  -------         PROC          I2CREADDATA2
  -------         DO            
  D:0002H         SYMBOL        i
  D:0005H         SYMBOL        value
  -------         ENDDO         
  C:A23EH         LINE#         401
  C:A23EH         LINE#         402
  C:A23EH         LINE#         405
  C:A23EH         LINE#         407
  C:A23EH         LINE#         408
  C:A23EH         LINE#         410
  C:A241H         LINE#         411
  C:A241H         LINE#         412
  C:A241H         LINE#         413
  C:A244H         LINE#         414
  C:A24AH         LINE#         415
  C:A24AH         LINE#         416
  C:A24AH         LINE#         417
  C:A24AH         LINE#         418
  C:A257H         LINE#         420
  C:A25AH         LINE#         424
  C:A25DH         LINE#         426
  C:A260H         LINE#         427
  C:A262H         LINE#         428
  -------         ENDPROC       I2CREADDATA2
  -------         PROC          I2CREADDATAWITHACK
  -------         DO            
  D:0004H         SYMBOL        i
  D:0007H         SYMBOL        value
  -------         ENDDO         
  C:997CH         LINE#         430
  C:997CH         LINE#         431
  C:997CH         LINE#         434
  C:997EH         LINE#         436
  C:9983H         LINE#         437
  C:9985H         LINE#         439
BL51 BANKED LINKER/LOCATER V6.22                                                      12/01/2015  16:17:03  PAGE 96


  C:9987H         LINE#         440
  C:998AH         LINE#         441
  C:998CH         LINE#         442
  C:9990H         LINE#         443
  C:9996H         LINE#         444
  C:9999H         LINE#         445
  C:999BH         LINE#         446
  C:999EH         LINE#         447
  C:99A9H         LINE#         449
  C:99ABH         LINE#         453
  C:99AEH         LINE#         454
  C:99B0H         LINE#         455
  C:99B2H         LINE#         456
  C:99B4H         LINE#         457
  C:99B7H         LINE#         458
  C:99B9H         LINE#         459
  C:99BCH         LINE#         461
  C:99BCH         LINE#         497
  -------         ENDPROC       I2CREADDATAWITHACK
  -------         PROC          I2CREADDATAWITHACK2
  -------         DO            
  D:0002H         SYMBOL        i
  D:0005H         SYMBOL        value
  -------         ENDDO         
  C:A0D3H         LINE#         499
  C:A0D3H         LINE#         500
  C:A0D3H         LINE#         503
  C:A0D3H         LINE#         505
  C:A0D3H         LINE#         506
  C:A0D3H         LINE#         508
  C:A0D6H         LINE#         509
  C:A0D6H         LINE#         510
  C:A0D6H         LINE#         511
  C:A0D9H         LINE#         512
  C:A0DFH         LINE#         513
  C:A0DFH         LINE#         514
  C:A0DFH         LINE#         515
  C:A0DFH         LINE#         516
  C:A0ECH         LINE#         518
  C:A0EEH         LINE#         522
  C:A0F1H         LINE#         523
  C:A0F3H         LINE#         524
  C:A0F5H         LINE#         525
  C:A0F5H         LINE#         526
  C:A0F5H         LINE#         527
  C:A0F8H         LINE#         528
  C:A0FBH         LINE#         530
  C:A0FDH         LINE#         531
  -------         ENDPROC       I2CREADDATAWITHACK2
  -------         PROC          _WRITEI2C
  D:0007H         SYMBOL        addr
  D:0005H         SYMBOL        index
  D:0003H         SYMBOL        val
  C:A47AH         LINE#         533
  C:A47AH         LINE#         534
  C:A47AH         LINE#         537
  C:A47DH         LINE#         538
BL51 BANKED LINKER/LOCATER V6.22                                                      12/01/2015  16:17:03  PAGE 97


  C:A480H         LINE#         539
  C:A486H         LINE#         540
  C:A48BH         LINE#         541
  -------         ENDPROC       _WRITEI2C
  -------         PROC          _READI2C
  D:0006H         SYMBOL        addr
  D:0005H         SYMBOL        index
  -------         DO            
  D:0007H         SYMBOL        val
  -------         ENDDO         
  C:A329H         LINE#         555
  C:A32BH         LINE#         556
  C:A32BH         LINE#         560
  C:A32EH         LINE#         561
  C:A331H         LINE#         562
  C:A337H         LINE#         563
  C:A33AH         LINE#         564
  C:A341H         LINE#         565
  C:A344H         LINE#         568
  C:A347H         LINE#         613
  C:A347H         LINE#         614
  -------         ENDPROC       _READI2C
  -------         PROC          _WRITEI2C2
  D:0007H         SYMBOL        addr
  D:0005H         SYMBOL        index
  D:0003H         SYMBOL        val
  C:A4DCH         LINE#         616
  C:A4DCH         LINE#         617
  C:A4DCH         LINE#         618
  C:A4DFH         LINE#         619
  C:A4E2H         LINE#         620
  C:A4E7H         LINE#         621
  C:A4ECH         LINE#         622
  -------         ENDPROC       _WRITEI2C2
  -------         PROC          _READI2C2
  D:0006H         SYMBOL        addr
  D:0005H         SYMBOL        index
  -------         DO            
  X:0408H         SYMBOL        val
  -------         ENDDO         
  C:A263H         LINE#         626
  C:A265H         LINE#         627
  C:A265H         LINE#         630
  C:A268H         LINE#         631
  C:A26BH         LINE#         632
  C:A270H         LINE#         633
  C:A273H         LINE#         634
  C:A27AH         LINE#         635
  C:A282H         LINE#         637
  C:A285H         LINE#         638
  C:A287H         LINE#         639
  -------         ENDPROC       _READI2C2
  -------         PROC          I2C_ACK
  C:A535H         LINE#         642
  C:A535H         LINE#         643
  C:A535H         LINE#         647
  C:A538H         LINE#         648
BL51 BANKED LINKER/LOCATER V6.22                                                      12/01/2015  16:17:03  PAGE 98


  C:A53AH         LINE#         649
  C:A53DH         LINE#         650
  C:A53FH         LINE#         651
  C:A542H         LINE#         652
  C:A544H         LINE#         653
  -------         ENDPROC       I2C_ACK
  -------         PROC          I2C_ACK2
  C:9483H         LINE#         655
  C:9483H         LINE#         656
  C:9483H         LINE#         662
  C:949AH         LINE#         663
  C:949CH         LINE#         664
  C:94B3H         LINE#         666
  C:94B5H         LINE#         667
  C:94CCH         LINE#         672
  -------         ENDPROC       I2C_ACK2
  -------         PROC          _READI2CWORD
  D:0006H         SYMBOL        addr
  D:0005H         SYMBOL        index
  -------         DO            
  X:0006H         SYMBOL        val
  -------         ENDDO         
  C:967CH         LINE#         675
  C:967EH         LINE#         676
  C:967EH         LINE#         677
  C:9685H         LINE#         679
  C:9688H         LINE#         680
  C:968BH         LINE#         682
  C:9690H         LINE#         685
  C:9693H         LINE#         686
  C:969AH         LINE#         688
  C:96A5H         LINE#         689
  C:96AEH         LINE#         690
  C:96B7H         LINE#         691
  C:96BAH         LINE#         693
  C:96C2H         LINE#         694
  -------         ENDPROC       _READI2CWORD
  -------         PROC          _WRITEI2CWORD
  D:0004H         SYMBOL        addr
  D:0005H         SYMBOL        index
  D:0002H         SYMBOL        Data
  -------         DO            
  D:0006H         SYMBOL        tempL
  D:0001H         SYMBOL        tempH
  -------         ENDDO         
  C:A348H         LINE#         697
  C:A34AH         LINE#         698
  C:A34AH         LINE#         701
  C:A34CH         LINE#         702
  C:A34EH         LINE#         703
  C:A351H         LINE#         704
  C:A354H         LINE#         705
  C:A359H         LINE#         706
  C:A35EH         LINE#         707
  C:A363H         LINE#         708
  -------         ENDPROC       _WRITEI2CWORD
  C:8AFFH         SYMBOL        L?0485
BL51 BANKED LINKER/LOCATER V6.22                                                      12/01/2015  16:17:03  PAGE 99


  -------         PROC          _BOUND_SET
  X:01D5H         SYMBOL        val
  -------         DO            
  X:01D6H         SYMBOL        Mask
  -------         ENDDO         
  C:8A98H         LINE#         713
  C:8A9DH         LINE#         714
  C:8A9DH         LINE#         718
  C:8AB0H         LINE#         741
  C:8AC0H         LINE#         742
  C:8AC0H         LINE#         743
  C:8AC5H         LINE#         744
  C:8AC5H         LINE#         745
  C:8AC7H         LINE#         746
  C:8ACCH         LINE#         747
  C:8ACCH         LINE#         748
  C:8ACEH         LINE#         749
  C:8ADAH         LINE#         750
  C:8AE5H         LINE#         751
  C:8AE7H         LINE#         752
  C:8AE7H         LINE#         755
  C:8AEEH         LINE#         756
  C:8AF3H         LINE#         757
  C:8AFEH         LINE#         758
  C:8AFEH         LINE#         759
  C:8AFEH         LINE#         778
  -------         ENDPROC       _BOUND_SET
  C:8A8CH         SYMBOL        L?0486
  -------         PROC          _SET_CHANNEL
  X:0409H         SYMBOL        addr
  C:8A1DH         LINE#         782
  C:8A22H         LINE#         783
  C:8A22H         LINE#         784
  C:8A29H         LINE#         785
  C:8A2EH         LINE#         786
  C:8A39H         LINE#         789
  C:8A5FH         LINE#         790
  C:8A5FH         LINE#         791
  C:8A69H         LINE#         792
  C:8A73H         LINE#         793
  C:8A82H         LINE#         794
  C:8A82H         LINE#         795
  C:8A82H         LINE#         796
  C:8A82H         LINE#         797
  C:8A86H         LINE#         798
  C:8A88H         LINE#         799
  C:8A8BH         LINE#         800
  C:8A8BH         LINE#         801
  C:8A8BH         LINE#         803
  C:8A8BH         LINE#         805
  -------         ENDPROC       _SET_CHANNEL
  -------         PROC          _ADC_READ
  D:0007H         SYMBOL        sel
  C:A2EAH         LINE#         811
  C:A2EAH         LINE#         812
  C:A2EAH         LINE#         814
  C:A2EFH         LINE#         816
BL51 BANKED LINKER/LOCATER V6.22                                                      12/01/2015  16:17:03  PAGE 100


  C:A2F4H         LINE#         818
  C:A309H         LINE#         820
  -------         ENDPROC       _ADC_READ
  -------         PROC          SEND_CAMERA_VER
  -------         DO            
  X:040AH         SYMBOL        loop
  -------         ENDDO         
  C:96C3H         LINE#         824
  C:96C3H         LINE#         825
  C:96C3H         LINE#         828
  C:96C3H         LINE#         829
  C:96C3H         LINE#         830
  C:96C9H         LINE#         831
  C:96D1H         LINE#         832
  C:96D9H         LINE#         833
  C:96E1H         LINE#         834
  C:96E4H         LINE#         835
  C:96E4H         LINE#         836
  C:96EAH         LINE#         838
  C:96FBH         LINE#         839
  C:96FBH         LINE#         840
  C:9701H         LINE#         841
  C:9709H         LINE#         842
  -------         ENDPROC       SEND_CAMERA_VER
  C:9F91H         SYMBOL        L?0462
  -------         PROC          GET_CAMERA_VER
  C:9F73H         LINE#         844
  C:9F73H         LINE#         845
  C:9F73H         LINE#         846
  C:9F75H         LINE#         847
  C:9F7DH         LINE#         848
  C:9F7FH         LINE#         849
  C:9F87H         LINE#         850
  C:9F91H         LINE#         851
  -------         ENDPROC       GET_CAMERA_VER
  -------         PROC          SEND_CAMERA_TEMP
  -------         DO            
  X:000CH         SYMBOL        loop
  -------         ENDDO         
  C:9BA1H         LINE#         854
  C:9BA1H         LINE#         855
  C:9BA1H         LINE#         859
  C:9BA1H         LINE#         860
  C:9BA1H         LINE#         861
  C:9BA6H         LINE#         862
  C:9BAEH         LINE#         863
  C:9BB1H         LINE#         864
  C:9BB1H         LINE#         865
  C:9BB4H         LINE#         866
  C:9BB4H         LINE#         867
  C:9BBAH         LINE#         869
  C:9BCBH         LINE#         870
  C:9BCBH         LINE#         871
  C:9BD1H         LINE#         872
  C:9BD9H         LINE#         875
  -------         ENDPROC       SEND_CAMERA_TEMP
  -------         PROC          SEND_CAMERA_PRESS
BL51 BANKED LINKER/LOCATER V6.22                                                      12/01/2015  16:17:03  PAGE 101


  -------         DO            
  X:000CH         SYMBOL        loop
  -------         ENDDO         
  C:97DFH         LINE#         879
  C:97DFH         LINE#         880
  C:97DFH         LINE#         883
  C:97DFH         LINE#         884
  C:97DFH         LINE#         885
  C:97E4H         LINE#         892
  C:97ECH         LINE#         893
  C:97F4H         LINE#         894
  C:97FCH         LINE#         895
  C:97FFH         LINE#         897
  C:97FFH         LINE#         898
  C:9805H         LINE#         900
  C:9816H         LINE#         901
  C:9816H         LINE#         902
  C:981CH         LINE#         903
  C:9824H         LINE#         907
  -------         ENDPROC       SEND_CAMERA_PRESS
  C:9FBDH         SYMBOL        L?0463
  -------         PROC          GET_CAMERA_ANG
  C:9F9FH         LINE#         910
  C:9F9FH         LINE#         911
  C:9F9FH         LINE#         912
  C:9FA1H         LINE#         913
  C:9FA9H         LINE#         914
  C:9FABH         LINE#         915
  C:9FB3H         LINE#         916
  C:9FBDH         LINE#         918
  -------         ENDPROC       GET_CAMERA_ANG
  -------         PROC          SENT_CAMERA_ANG
  -------         DO            
  X:000CH         SYMBOL        loop
  -------         ENDDO         
  C:970AH         LINE#         920
  C:970AH         LINE#         921
  C:970AH         LINE#         925
  C:970AH         LINE#         926
  C:970AH         LINE#         927
  C:9710H         LINE#         928
  C:9718H         LINE#         929
  C:9720H         LINE#         930
  C:9728H         LINE#         931
  C:972BH         LINE#         932
  C:972BH         LINE#         933
  C:9731H         LINE#         935
  C:9742H         LINE#         936
  C:9742H         LINE#         937
  C:9748H         LINE#         938
  C:9750H         LINE#         940
  -------         ENDPROC       SENT_CAMERA_ANG
  C:9FE9H         SYMBOL        L?0464
  -------         PROC          GET_CAMERA_RANG
  C:9FCBH         LINE#         942
  C:9FCBH         LINE#         943
  C:9FCBH         LINE#         944
BL51 BANKED LINKER/LOCATER V6.22                                                      12/01/2015  16:17:03  PAGE 102


  C:9FCDH         LINE#         945
  C:9FD5H         LINE#         946
  C:9FD7H         LINE#         947
  C:9FDFH         LINE#         948
  C:9FE9H         LINE#         949
  -------         ENDPROC       GET_CAMERA_RANG
  -------         PROC          SENT_CAMERA_RANG
  -------         DO            
  X:000CH         SYMBOL        loop
  -------         ENDDO         
  C:9751H         LINE#         951
  C:9751H         LINE#         952
  C:9751H         LINE#         956
  C:9751H         LINE#         957
  C:9751H         LINE#         958
  C:9757H         LINE#         959
  C:975FH         LINE#         960
  C:9767H         LINE#         961
  C:976FH         LINE#         962
  C:9772H         LINE#         963
  C:9772H         LINE#         964
  C:9778H         LINE#         966
  C:9789H         LINE#         967
  C:9789H         LINE#         968
  C:978FH         LINE#         969
  C:9797H         LINE#         971
  -------         ENDPROC       SENT_CAMERA_RANG
  C:98E7H         SYMBOL        L?0465
  -------         PROC          _GET_CAMERA_IRD
  X:0402H         SYMBOL        sel
  -------         DO            
  X:0403H         SYMBOL        bcc_val
  -------         ENDDO         
  C:98B0H         LINE#         974
  C:98B5H         LINE#         975
  C:98B5H         LINE#         977
  C:98B8H         LINE#         979
  C:98BBH         LINE#         980
  C:98BEH         LINE#         981
  C:98C0H         LINE#         982
  C:98C3H         LINE#         986
  C:98C5H         LINE#         987
  C:98CDH         LINE#         988
  C:98DAH         LINE#         989
  C:98DCH         LINE#         990
  C:98E7H         LINE#         992
  -------         ENDPROC       _GET_CAMERA_IRD
  -------         PROC          _SENT_CAMERA_IRD
  X:000CH         SYMBOL        sel
  -------         DO            
  X:000DH         SYMBOL        loop
  X:000EH         SYMBOL        temp
  -------         ENDDO         
  C:A582H         LINE#         993
  C:A587H         LINE#         994
  C:A587H         LINE#         997
  C:A58CH         LINE#         999
BL51 BANKED LINKER/LOCATER V6.22                                                      12/01/2015  16:17:03  PAGE 103


  -------         ENDPROC       _SENT_CAMERA_IRD
  C:A015H         SYMBOL        L?0466
  -------         PROC          GET_DVR_TEMP
  C:9FF7H         LINE#         1022
  C:9FF7H         LINE#         1023
  C:9FF7H         LINE#         1024
  C:9FF9H         LINE#         1025
  C:A001H         LINE#         1026
  C:A003H         LINE#         1027
  C:A00BH         LINE#         1028
  C:A015H         LINE#         1029
  -------         ENDPROC       GET_DVR_TEMP
  -------         PROC          SENT_DVR_TEMP
  -------         DO            
  X:000CH         SYMBOL        loop
  -------         ENDDO         
  C:9B67H         LINE#         1032
  C:9B67H         LINE#         1033
  C:9B67H         LINE#         1036
  C:9B67H         LINE#         1037
  C:9B67H         LINE#         1038
  C:9B6DH         LINE#         1039
  C:9B75H         LINE#         1040
  C:9B78H         LINE#         1041
  C:9B78H         LINE#         1042
  C:9B7BH         LINE#         1043
  C:9B7BH         LINE#         1044
  C:9B81H         LINE#         1046
  C:9B92H         LINE#         1047
  C:9B92H         LINE#         1048
  C:9B98H         LINE#         1049
  C:9BA0H         LINE#         1052
  -------         ENDPROC       SENT_DVR_TEMP
  C:A041H         SYMBOL        L?0467
  -------         PROC          GET_DVR_VER
  C:A023H         LINE#         1053
  C:A023H         LINE#         1054
  C:A023H         LINE#         1055
  C:A025H         LINE#         1056
  C:A02DH         LINE#         1057
  C:A02FH         LINE#         1058
  C:A037H         LINE#         1059
  C:A041H         LINE#         1060
  -------         ENDPROC       GET_DVR_VER
  -------         PROC          SENT_DVR_VER
  -------         DO            
  X:040BH         SYMBOL        loop
  -------         ENDDO         
  C:9798H         LINE#         1061
  C:9798H         LINE#         1062
  C:9798H         LINE#         1065
  C:9798H         LINE#         1066
  C:9798H         LINE#         1067
  C:979EH         LINE#         1068
  C:97A6H         LINE#         1069
  C:97AEH         LINE#         1070
  C:97B6H         LINE#         1071
BL51 BANKED LINKER/LOCATER V6.22                                                      12/01/2015  16:17:03  PAGE 104


  C:97B9H         LINE#         1072
  C:97B9H         LINE#         1073
  C:97BFH         LINE#         1075
  C:97D0H         LINE#         1076
  C:97D0H         LINE#         1077
  C:97D6H         LINE#         1078
  C:97DEH         LINE#         1080
  -------         ENDPROC       SENT_DVR_VER
  C:A06DH         SYMBOL        L?0468
  -------         PROC          GET_DVR_YEAR
  C:A04FH         LINE#         1081
  C:A04FH         LINE#         1082
  C:A04FH         LINE#         1083
  C:A051H         LINE#         1084
  C:A059H         LINE#         1085
  C:A05BH         LINE#         1086
  C:A063H         LINE#         1087
  C:A06DH         LINE#         1088
  -------         ENDPROC       GET_DVR_YEAR
  -------         PROC          SENT_DVR_YEAR
  -------         DO            
  X:040CH         SYMBOL        loop
  -------         ENDDO         
  C:9825H         LINE#         1090
  C:9825H         LINE#         1091
  C:9825H         LINE#         1094
  C:9825H         LINE#         1095
  C:9825H         LINE#         1096
  C:982AH         LINE#         1097
  C:9832H         LINE#         1098
  C:983AH         LINE#         1099
  C:9842H         LINE#         1100
  C:9845H         LINE#         1101
  C:9845H         LINE#         1102
  C:984BH         LINE#         1104
  C:985CH         LINE#         1105
  C:985CH         LINE#         1106
  C:9862H         LINE#         1107
  C:986AH         LINE#         1110
  -------         ENDPROC       SENT_DVR_YEAR
  C:A099H         SYMBOL        L?0469
  -------         PROC          GET_DVR_MD
  C:A07BH         LINE#         1111
  C:A07BH         LINE#         1112
  C:A07BH         LINE#         1113
  C:A07DH         LINE#         1114
  C:A085H         LINE#         1115
  C:A087H         LINE#         1116
  C:A08FH         LINE#         1117
  C:A099H         LINE#         1118
  -------         ENDPROC       GET_DVR_MD
  -------         PROC          SENT_DVR_MDR
  C:A689H         LINE#         1119
  C:A689H         LINE#         1120
  -------         ENDPROC       SENT_DVR_MDR
  C:A0C5H         SYMBOL        L?0470
  -------         PROC          GET_DVR_HS
BL51 BANKED LINKER/LOCATER V6.22                                                      12/01/2015  16:17:03  PAGE 105


  C:A0A7H         LINE#         1121
  C:A0A7H         LINE#         1122
  C:A0A7H         LINE#         1123
  C:A0A9H         LINE#         1124
  C:A0B1H         LINE#         1125
  C:A0B3H         LINE#         1126
  C:A0BBH         LINE#         1127
  C:A0C5H         LINE#         1128
  -------         ENDPROC       GET_DVR_HS
  -------         PROC          SENT_DVR_HS
  C:A68AH         LINE#         1129
  -------         ENDPROC       SENT_DVR_HS
  C:94EDH         SYMBOL        L?0449
  C:9505H         SYMBOL        L?0478
  -------         PROC          _SET_CAMERA_SPEED
  D:0007H         SYMBOL        val
  C:94CDH         LINE#         1132
  C:94CDH         LINE#         1133
  C:94CDH         LINE#         1134
  C:94D3H         LINE#         1135
  C:94D3H         LINE#         1136
  C:94D3H         LINE#         1137
  C:94D6H         LINE#         1138
  C:94D8H         LINE#         1139
  C:94D8H         LINE#         1140
  C:94DDH         LINE#         1141
  C:94DFH         LINE#         1143
  C:94DFH         LINE#         1144
  C:94DFH         LINE#         1145
  C:94E2H         LINE#         1146
  C:94E4H         LINE#         1147
  C:94E4H         LINE#         1148
  C:94ECH         LINE#         1149
  C:94ECH         LINE#         1155
  -------         ENDPROC       _SET_CAMERA_SPEED
  -------         PROC          GPIO_CHECK
  -------         DO            
  D:0007H         SYMBOL        GPIO_state
  X:0006H         SYMBOL        IO_flag
  X:0007H         SYMBOL        count
  -------         ENDDO         
  C:8F26H         LINE#         1159
  C:8F26H         LINE#         1160
  C:8F26H         LINE#         1161
  C:8F2FH         LINE#         1163
  C:8F38H         LINE#         1165
  C:8F40H         LINE#         1168
  C:8F40H         LINE#         1169
  C:8F45H         LINE#         1170
  C:8F4CH         LINE#         1171
  C:8F4CH         LINE#         1172
  C:8F4FH         LINE#         1173
  C:8F53H         LINE#         1174
  C:8F55H         LINE#         1175
  C:8F55H         LINE#         1176
  C:8F66H         LINE#         1177
  C:8F66H         LINE#         1179
BL51 BANKED LINKER/LOCATER V6.22                                                      12/01/2015  16:17:03  PAGE 106


  C:8F66H         LINE#         1180
  C:8F66H         LINE#         1181
  C:8F66H         LINE#         1182
  C:8F68H         LINE#         1183
  C:8F6BH         LINE#         1184
  C:8F6BH         LINE#         1185
  C:8F6DH         LINE#         1186
  C:8F6DH         LINE#         1187
  C:8F70H         LINE#         1188
  C:8F73H         LINE#         1189
  C:8F75H         LINE#         1190
  C:8F75H         LINE#         1191
  C:8F78H         LINE#         1192
  C:8F7BH         LINE#         1193
  C:8F7DH         LINE#         1194
  C:8F80H         LINE#         1195
  C:8F83H         LINE#         1196
  C:8F83H         LINE#         1197
  C:8F83H         LINE#         1200
  C:8F88H         LINE#         1206
  -------         ENDPROC       GPIO_CHECK
  -------         PROC          _POWER_ONOFF
  D:0007H         SYMBOL        sel
  C:A545H         LINE#         1209
  C:A545H         LINE#         1210
  C:A545H         LINE#         1212
  C:A54AH         LINE#         1213
  C:A54CH         LINE#         1214
  C:A54EH         LINE#         1215
  -------         ENDPROC       _POWER_ONOFF
  -------         PROC          SC16_INIT
  -------         DO            
  X:0006H         SYMBOL        Dev_ID
  -------         ENDDO         
  C:899DH         LINE#         1222
  C:899DH         LINE#         1223
  C:899DH         LINE#         1227
  C:899FH         LINE#         1228
  C:89A6H         LINE#         1229
  C:89A8H         LINE#         1230
  C:89AFH         LINE#         1233
  C:89BEH         LINE#         1234
  C:89BEH         LINE#         1235
  C:89C7H         LINE#         1236
  C:89DEH         LINE#         1237
  C:89F1H         LINE#         1238
  C:89FEH         LINE#         1239
  C:8A06H         LINE#         1246
  C:8A10H         LINE#         1247
  C:8A1AH         LINE#         1248
  C:8A1CH         LINE#         1249
  -------         ENDPROC       SC16_INIT
  -------         PROC          _SC16_SENDDATA
  X:000CH         SYMBOL        val
  -------         DO            
  X:000DH         SYMBOL        error
  -------         ENDDO         
BL51 BANKED LINKER/LOCATER V6.22                                                      12/01/2015  16:17:03  PAGE 107


  C:A288H         LINE#         1251
  C:A28EH         LINE#         1252
  C:A28EH         LINE#         1253
  C:A291H         LINE#         1266
  C:A299H         LINE#         1271
  C:A2A6H         LINE#         1279
  C:A2A8H         LINE#         1281
  -------         ENDPROC       _SC16_SENDDATA
  C:6233H         SYMBOL        L?0475
  -------         PROC          _SC16_SENDDATASELECT
  X:0009H         SYMBOL        addr
  -------         DO            
  X:000AH         SYMBOL        loop
  X:000BH         SYMBOL        Error
  X:000CH         SYMBOL        count
  X:000DH         SYMBOL        data_temp
  X:000EH         SYMBOL        buff_flag
  X:000FH         SYMBOL        loop_temp
  X:0010H         SYMBOL        error_flag
  X:0011H         SYMBOL        etx_flag
  -------         ENDDO         
  C:6066H         LINE#         1284
  C:6069H         LINE#         1285
  C:6069H         LINE#         1287
  C:606EH         LINE#         1289
  C:6074H         LINE#         1290
  C:6077H         LINE#         1291
  C:6079H         LINE#         1326
  C:6088H         LINE#         1327
  C:6088H         LINE#         1328
  C:6095H         LINE#         1331
  C:609AH         LINE#         1343
  C:60A5H         LINE#         1345
  C:60ADH         LINE#         1346
  C:60ADH         LINE#         1347
  C:60B5H         LINE#         1359
  C:60B8H         LINE#         1360
  C:60C3H         LINE#         1362
  C:60D7H         LINE#         1363
  C:60D7H         LINE#         1365
  C:60DDH         LINE#         1367
  C:60E3H         LINE#         1368
  C:60F4H         LINE#         1369
  C:60F4H         LINE#         1372
  C:6106H         LINE#         1376
  C:6126H         LINE#         1377
  C:6126H         LINE#         1378
  C:6129H         LINE#         1383
  C:612BH         LINE#         1384
  C:612FH         LINE#         1385
  C:612FH         LINE#         1386
  C:6134H         LINE#         1387
  C:6145H         LINE#         1388
  C:614AH         LINE#         1390
  C:614AH         LINE#         1403
  C:614DH         LINE#         1405
  C:6150H         LINE#         1408
BL51 BANKED LINKER/LOCATER V6.22                                                      12/01/2015  16:17:03  PAGE 108


  C:615CH         LINE#         1409
  C:615CH         LINE#         1412
  C:6162H         LINE#         1420
  C:6162H         LINE#         1422
  C:616BH         LINE#         1424
  C:6174H         LINE#         1425
  C:6174H         LINE#         1428
  C:617FH         LINE#         1429
  C:617FH         LINE#         1432
  C:6182H         LINE#         1437
  C:6187H         LINE#         1439
  C:618AH         LINE#         1440
  C:618AH         LINE#         1441
  C:6197H         LINE#         1442
  C:6197H         LINE#         1446
  C:61A2H         LINE#         1447
  C:61A2H         LINE#         1450
  C:61A5H         LINE#         1455
  C:61AAH         LINE#         1456
  C:61ADH         LINE#         1457
  C:61ADH         LINE#         1461
  C:61BFH         LINE#         1462
  C:61BFH         LINE#         1463
  C:61C2H         LINE#         1464
  C:61C2H         LINE#         1466
  C:61C8H         LINE#         1467
  C:61C8H         LINE#         1469
  C:61D0H         LINE#         1471
  C:61DDH         LINE#         1472
  C:61F2H         LINE#         1474
  C:61FEH         LINE#         1475
  C:61FEH         LINE#         1478
  C:6211H         LINE#         1479
  C:6211H         LINE#         1482
  C:621CH         LINE#         1490
  C:6222H         LINE#         1491
  C:6227H         LINE#         1492
  C:6227H         LINE#         1496
  C:622AH         LINE#         1497
  C:622AH         LINE#         1499
  C:622DH         LINE#         1500
  C:622DH         LINE#         1502
  C:622DH         LINE#         1528
  C:622DH         LINE#         1553
  C:622DH         LINE#         1594
  C:6232H         LINE#         1596
  -------         ENDPROC       _SC16_SENDDATASELECT
  -------         PROC          _COMMAND_CHECK
  X:040DH         SYMBOL        val
  C:A668H         LINE#         1598
  C:A66DH         LINE#         1599
  C:A66DH         LINE#         1602
  -------         ENDPROC       _COMMAND_CHECK
  C:9E55H         SYMBOL        L?0480
  -------         PROC          REPEAT_PWM_COM
  C:9E2BH         LINE#         1604
  C:9E2BH         LINE#         1605
BL51 BANKED LINKER/LOCATER V6.22                                                      12/01/2015  16:17:03  PAGE 109


  C:9E2BH         LINE#         1606
  C:9E31H         LINE#         1607
  C:9E37H         LINE#         1608
  C:9E41H         LINE#         1609
  C:9E4BH         LINE#         1610
  C:9E55H         LINE#         1613
  -------         ENDPROC       REPEAT_PWM_COM
  -------         PROC          SC16_DATACHECK
  -------         DO            
  X:0006H         SYMBOL        Dev_ID
  X:0007H         SYMBOL        Error
  X:0008H         SYMBOL        count
  -------         ENDDO         
  C:9E5DH         LINE#         1617
  C:9E5DH         LINE#         1618
  C:9E5DH         LINE#         1620
  C:9E66H         LINE#         1677
  C:9E6CH         LINE#         1678
  C:9E6CH         LINE#         1679
  C:9E70H         LINE#         1681
  C:9E76H         LINE#         1682
  C:9E78H         LINE#         1683
  C:9E7FH         LINE#         1684
  C:9E7FH         LINE#         1685
  C:9E84H         LINE#         1687
  C:9E89H         LINE#         1688
  C:9E89H         LINE#         1696
  C:9E8EH         LINE#         1697
  -------         ENDPROC       SC16_DATACHECK
  -------         PROC          _SC16_DATA_RESET
  D:0006H         SYMBOL        sel
  C:9AF2H         LINE#         1700
  C:9AF2H         LINE#         1701
  C:9AF2H         LINE#         1715
  C:9AFEH         LINE#         1717
  C:9B1AH         LINE#         1718
  C:9B1AH         LINE#         1719
  C:9B1DH         LINE#         1720
  C:9B20H         LINE#         1721
  C:9B23H         LINE#         1722
  C:9B26H         LINE#         1732
  C:9B29H         LINE#         1733
  C:9B2CH         LINE#         1739
  C:9B2CH         LINE#         1740
  C:9B2CH         LINE#         1743
  -------         ENDPROC       _SC16_DATA_RESET
  C:7C5BH         SYMBOL        L?0436
  C:7C75H         SYMBOL        L?0437
  C:7C88H         SYMBOL        L?0445
  C:7CA0H         SYMBOL        L?0461
  -------         PROC          CAMERA_MOVE
  -------         DO            
  X:0006H         SYMBOL        mask
  X:000AH         SYMBOL        cam
  X:000EH         SYMBOL        BCC
  X:0012H         SYMBOL        loop
  -------         ENDDO         
BL51 BANKED LINKER/LOCATER V6.22                                                      12/01/2015  16:17:03  PAGE 110


  C:7BD1H         LINE#         1746
  C:7BD1H         LINE#         1747
  C:7BD1H         LINE#         1749
  C:7BDCH         LINE#         1750
  C:7BE7H         LINE#         1751
  C:7BF6H         LINE#         1755
  C:7BFEH         LINE#         1756
  C:7BFEH         LINE#         1757
  C:7C05H         LINE#         1758
  C:7C05H         LINE#         1759
  C:7C05H         LINE#         1760
  C:7C05H         LINE#         1761
  C:7C0AH         LINE#         1762
  C:7C0AH         LINE#         1763
  C:7C12H         LINE#         1764
  C:7C12H         LINE#         1766
  C:7C19H         LINE#         1767
  C:7C19H         LINE#         1768
  C:7C19H         LINE#         1769
  C:7C19H         LINE#         1770
  C:7C1EH         LINE#         1771
  C:7C1EH         LINE#         1772
  C:7C26H         LINE#         1773
  C:7C26H         LINE#         1774
  C:7C2BH         LINE#         1775
  C:7C2CH         LINE#         1777
  C:7C2CH         LINE#         1778
  C:7C33H         LINE#         1779
  C:7C33H         LINE#         1780
  C:7C33H         LINE#         1781
  C:7C36H         LINE#         1782
  C:7C38H         LINE#         1783
  C:7C38H         LINE#         1784
  C:7C40H         LINE#         1785
  C:7C40H         LINE#         1787
  C:7C47H         LINE#         1788
  C:7C47H         LINE#         1789
  C:7C47H         LINE#         1790
  C:7C4AH         LINE#         1791
  C:7C4CH         LINE#         1792
  C:7C4CH         LINE#         1793
  C:7C54H         LINE#         1794
  C:7C54H         LINE#         1796
  C:7C5AH         LINE#         1797
  C:7C5AH         LINE#         1812
  -------         ENDPROC       CAMERA_MOVE
  -------         PROC          _CHECK_STARTUP
  X:03E8H         SYMBOL        addr
  -------         DO            
  X:03E9H         SYMBOL        loop
  X:03EAH         SYMBOL        Error
  X:03EBH         SYMBOL        count
  D:0003H         SYMBOL        data_temp
  -------         ENDDO         
  C:8648H         LINE#         1815
  C:864BH         LINE#         1816
  C:864BH         LINE#         1818
BL51 BANKED LINKER/LOCATER V6.22                                                      12/01/2015  16:17:03  PAGE 111


  C:864FH         LINE#         1821
  C:8661H         LINE#         1822
  C:8661H         LINE#         1823
  C:8671H         LINE#         1825
  C:8679H         LINE#         1834
  C:868CH         LINE#         1835
  C:868CH         LINE#         1836
  C:8697H         LINE#         1838
  C:869EH         LINE#         1839
  C:869EH         LINE#         1840
  C:86ADH         LINE#         1841
  C:86ADH         LINE#         1842
  C:86B5H         LINE#         1846
  C:86B7H         LINE#         1847
  C:86BBH         LINE#         1848
  C:86BBH         LINE#         1849
  C:86CCH         LINE#         1850
  C:86CCH         LINE#         1851
  C:86D7H         LINE#         1855
  C:86D7H         LINE#         1858
  C:86DFH         LINE#         1860
  C:86DFH         LINE#         1863
  -------         ENDPROC       _CHECK_STARTUP
  -------         PROC          _SC16_COMCHECK
  D:0001H         SYMBOL        addr
  -------         DO            
  X:0012H         SYMBOL        pos
  X:0013H         SYMBOL        temp
  -------         ENDDO         
  C:8314H         LINE#         1868
  C:8314H         LINE#         1869
  C:8314H         LINE#         1872
  C:831BH         LINE#         1873
  C:831CH         LINE#         1874
  C:832AH         LINE#         1875
  C:832AH         LINE#         1876
  C:832AH         LINE#         1877
  C:832AH         LINE#         1878
  C:8332H         LINE#         1879
  C:8332H         LINE#         1880
  C:8333H         LINE#         1881
  C:8339H         LINE#         1882
  C:8339H         LINE#         1883
  C:833FH         LINE#         1884
  C:833FH         LINE#         1885
  C:8345H         LINE#         1886
  C:8345H         LINE#         1887
  C:834CH         LINE#         1888
  C:8352H         LINE#         1889
  C:8355H         LINE#         1890
  C:8355H         LINE#         1891
  C:835AH         LINE#         1892
  C:835AH         LINE#         1893
  C:835BH         LINE#         1894
  C:8361H         LINE#         1895
  C:8361H         LINE#         1896
  C:8367H         LINE#         1897
BL51 BANKED LINKER/LOCATER V6.22                                                      12/01/2015  16:17:03  PAGE 112


  C:8367H         LINE#         1898
  C:836DH         LINE#         1899
  C:836DH         LINE#         1900
  C:8374H         LINE#         1901
  C:837AH         LINE#         1902
  C:837CH         LINE#         1903
  C:837CH         LINE#         1922
  C:8383H         LINE#         1923
  C:8383H         LINE#         1924
  C:8384H         LINE#         1925
  C:838AH         LINE#         1926
  C:838AH         LINE#         1927
  C:8390H         LINE#         1928
  C:8390H         LINE#         1929
  C:8397H         LINE#         1930
  C:839DH         LINE#         1931
  C:839FH         LINE#         1932
  C:839FH         LINE#         1935
  C:839FH         LINE#         1936
  C:839FH         LINE#         1937
  C:839FH         LINE#         1938
  C:83A6H         LINE#         1939
  C:83A6H         LINE#         1940
  C:83A7H         LINE#         1941
  C:83ADH         LINE#         1942
  C:83ADH         LINE#         1943
  C:83B4H         LINE#         1944
  C:83BBH         LINE#         1945
  C:83BEH         LINE#         1946
  C:83BEH         LINE#         1947
  C:83BEH         LINE#         1967
  C:83BEH         LINE#         1968
  C:83C0H         LINE#         1969
  C:83C0H         LINE#         1970
  C:83C0H         LINE#         1998
  -------         ENDPROC       _SC16_COMCHECK
  -------         PROC          _BCC_CAL
  D:0001H         SYMBOL        addr
  X:000DH         SYMBOL        count
  -------         DO            
  D:0007H         SYMBOL        f_val
  X:000EH         SYMBOL        s_val
  D:0006H         SYMBOL        loop
  -------         ENDDO         
  C:A129H         LINE#         2002
  C:A12EH         LINE#         2003
  C:A12EH         LINE#         2004
  C:A130H         LINE#         2005
  C:A132H         LINE#         2006
  C:A133H         LINE#         2007
  C:A139H         LINE#         2009
  C:A143H         LINE#         2010
  C:A143H         LINE#         2013
  C:A148H         LINE#         2014
  C:A14FH         LINE#         2015
  C:A152H         LINE#         2016
  C:A152H         LINE#         2048
BL51 BANKED LINKER/LOCATER V6.22                                                      12/01/2015  16:17:03  PAGE 113


  -------         ENDPROC       _BCC_CAL
  -------         PROC          _GET_DATA
  D:0007H         SYMBOL        addr
  X:040EH         SYMBOL        val
  C:8D2AH         LINE#         2051
  C:8D2FH         LINE#         2052
  C:8D2FH         LINE#         2054
  C:8D5CH         LINE#         2055
  C:8D5CH         LINE#         2056
  C:8D61H         LINE#         2057
  C:8D66H         LINE#         2058
  C:8D6BH         LINE#         2059
  C:8D70H         LINE#         2060
  C:8D7DH         LINE#         2061
  C:8D82H         LINE#         2062
  C:8D87H         LINE#         2063
  C:8D8FH         LINE#         2064
  C:8D8FH         LINE#         2065
  C:8D8FH         LINE#         2066
  C:8D92H         LINE#         2067
  -------         ENDPROC       _GET_DATA
  C:5CABH         SYMBOL        L?0487
  -------         PROC          _SC16_BCC_CHECK
  D:0001H         SYMBOL        addr
  X:0006H         SYMBOL        sum
  -------         DO            
  X:0007H         SYMBOL        loop
  X:0008H         SYMBOL        f_val
  X:0009H         SYMBOL        s_val
  X:000AH         SYMBOL        com
  -------         ENDDO         
  C:5AD4H         LINE#         2074
  C:5AD9H         LINE#         2075
  C:5AD9H         LINE#         2077
  C:5ADEH         LINE#         2078
  C:5AE0H         LINE#         2091
  C:5AE3H         LINE#         2092
  C:5AE3H         LINE#         2093
  C:5AE9H         LINE#         2094
  C:5AE9H         LINE#         2095
  C:5AE9H         LINE#         2096
  C:5AEFH         LINE#         2097
  C:5AEFH         LINE#         2098
  C:5AEFH         LINE#         2099
  C:5AF7H         LINE#         2102
  C:5AFFH         LINE#         2103
  C:5AFFH         LINE#         2104
  C:5B01H         LINE#         2105
  C:5B0CH         LINE#         2106
  C:5B0CH         LINE#         2107
  C:5B10H         LINE#         2108
  C:5B17H         LINE#         2109
  C:5B17H         LINE#         2110
  C:5B18H         LINE#         2111
  C:5B22H         LINE#         2112
  C:5B22H         LINE#         2113
  C:5B25H         LINE#         2114
BL51 BANKED LINKER/LOCATER V6.22                                                      12/01/2015  16:17:03  PAGE 114


  C:5B25H         LINE#         2115
  C:5B28H         LINE#         2116
  C:5B28H         LINE#         2117
  C:5B30H         LINE#         2119
  C:5B30H         LINE#         2121
  C:5B30H         LINE#         2126
  C:5B3EH         LINE#         2127
  C:5B3EH         LINE#         2128
  C:5B5EH         LINE#         2129
  C:5B5EH         LINE#         2130
  C:5B63H         LINE#         2131
  C:5B6BH         LINE#         2132
  C:5B73H         LINE#         2133
  C:5B78H         LINE#         2134
  C:5B80H         LINE#         2138
  C:5B8BH         LINE#         2139
  C:5B8BH         LINE#         2140
  C:5B92H         LINE#         2141
  C:5B98H         LINE#         2142
  C:5B9EH         LINE#         2143
  C:5BA5H         LINE#         2144
  C:5BAFH         LINE#         2145
  C:5BAFH         LINE#         2148
  C:5BB2H         LINE#         2149
  C:5BC7H         LINE#         2150
  C:5BC7H         LINE#         2151
  C:5BCCH         LINE#         2152
  C:5BCFH         LINE#         2154
  C:5BDBH         LINE#         2155
  C:5BDBH         LINE#         2156
  C:5BDEH         LINE#         2160
  C:5BE1H         LINE#         2161
  C:5BEDH         LINE#         2162
  C:5BEDH         LINE#         2163
  C:5BF0H         LINE#         2167
  C:5BF3H         LINE#         2168
  C:5BFFH         LINE#         2169
  C:5BFFH         LINE#         2170
  C:5C02H         LINE#         2174
  C:5C05H         LINE#         2175
  C:5C11H         LINE#         2176
  C:5C11H         LINE#         2177
  C:5C14H         LINE#         2181
  C:5C17H         LINE#         2183
  C:5C2CH         LINE#         2184
  C:5C2CH         LINE#         2185
  C:5C31H         LINE#         2190
  C:5C33H         LINE#         2192
  C:5C3FH         LINE#         2193
  C:5C3FH         LINE#         2194
  C:5C42H         LINE#         2198
  C:5C44H         LINE#         2199
  C:5C50H         LINE#         2200
  C:5C50H         LINE#         2201
  C:5C53H         LINE#         2205
  C:5C55H         LINE#         2206
  C:5C61H         LINE#         2207
BL51 BANKED LINKER/LOCATER V6.22                                                      12/01/2015  16:17:03  PAGE 115


  C:5C61H         LINE#         2208
  C:5C64H         LINE#         2212
  C:5C66H         LINE#         2226
  C:5C66H         LINE#         2232
  C:5C6CH         LINE#         2233
  C:5C6CH         LINE#         2235
  C:5C7FH         LINE#         2236
  C:5C90H         LINE#         2238
  C:5C96H         LINE#         2249
  C:5C98H         LINE#         2251
  C:5C98H         LINE#         2252
  C:5C9DH         LINE#         2257
  C:5C9DH         LINE#         2260
  C:5CA0H         LINE#         2261
  C:5CA0H         LINE#         2266
  C:5CA3H         LINE#         2268
  C:5CA3H         LINE#         2270
  C:5CA3H         LINE#         2271
  C:5CA8H         LINE#         2275
  C:5CAAH         LINE#         2276
  C:5CAAH         LINE#         2280
  -------         ENDPROC       _SC16_BCC_CHECK
  -------         PROC          CHECK_OTHER_COM
  C:86E0H         LINE#         2284
  C:86E0H         LINE#         2285
  C:86E0H         LINE#         2287
  C:86E8H         LINE#         2288
  C:86E8H         LINE#         2289
  C:86EBH         LINE#         2290
  C:86EBH         LINE#         2294
  C:8703H         LINE#         2296
  C:8707H         LINE#         2297
  C:8707H         LINE#         2298
  C:870FH         LINE#         2299
  C:870FH         LINE#         2300
  C:8711H         LINE#         2301
  C:8718H         LINE#         2302
  C:8718H         LINE#         2303
  C:8721H         LINE#         2304
  C:8726H         LINE#         2305
  C:8728H         LINE#         2307
  C:872DH         LINE#         2310
  C:872DH         LINE#         2311
  C:872FH         LINE#         2312
  C:872FH         LINE#         2314
  C:8745H         LINE#         2316
  C:8749H         LINE#         2317
  C:8749H         LINE#         2318
  C:8751H         LINE#         2319
  C:8751H         LINE#         2320
  C:8753H         LINE#         2321
  C:875AH         LINE#         2322
  C:875AH         LINE#         2323
  C:8763H         LINE#         2324
  C:8768H         LINE#         2325
  C:8768H         LINE#         2327
  C:8768H         LINE#         2328
BL51 BANKED LINKER/LOCATER V6.22                                                      12/01/2015  16:17:03  PAGE 116


  C:876AH         LINE#         2329
  C:876AH         LINE#         2332
  C:876DH         LINE#         2334
  C:876DH         LINE#         2335
  C:876DH         LINE#         2336
  C:876DH         LINE#         2337
  C:876DH         LINE#         2340
  C:876DH         LINE#         2342
  C:876DH         LINE#         2347
  C:876DH         LINE#         2350
  C:876DH         LINE#         2352
  C:876DH         LINE#         2354
  C:876DH         LINE#         2356
  C:876DH         LINE#         2362
  C:876DH         LINE#         2365
  C:876DH         LINE#         2367
  C:876DH         LINE#         2370
  C:876DH         LINE#         2372
  C:8773H         LINE#         2376
  -------         ENDPROC       CHECK_OTHER_COM
  -------         PROC          _PARITY
  D:0007H         SYMBOL        ino
  -------         DO            
  D:0006H         SYMBOL        noofones
  D:0005H         SYMBOL        mask
  -------         ENDDO         
  C:A413H         LINE#         2398
  C:A413H         LINE#         2399
  C:A413H         LINE#         2400
  C:A415H         LINE#         2403
  C:A417H         LINE#         2405
  C:A41AH         LINE#         2406
  C:A41AH         LINE#         2407
  C:A41DH         LINE#         2408
  C:A41DH         LINE#         2409
  C:A41EH         LINE#         2410
  C:A41EH         LINE#         2411
  C:A422H         LINE#         2412
  C:A424H         LINE#         2415
  C:A428H         LINE#         2418
  -------         ENDPROC       _PARITY
  -------         PROC          ADT75_INIT
  -------         DO            
  X:03FBH         SYMBOL        Ctemp
  X:03FCH         SYMBOL        Dtemp
  -------         ENDDO         
  C:A17DH         LINE#         2429
  C:A17DH         LINE#         2430
  C:A17DH         LINE#         2432
  C:A182H         LINE#         2433
  C:A186H         LINE#         2438
  C:A191H         LINE#         2439
  C:A199H         LINE#         2440
  C:A1A2H         LINE#         2452
  C:A1A4H         LINE#         2454
  -------         ENDPROC       ADT75_INIT
  -------         PROC          _RESETDEVICE
BL51 BANKED LINKER/LOCATER V6.22                                                      12/01/2015  16:17:03  PAGE 117


  D:0003H         SYMBOL        addr
  -------         DO            
  D:0006H         SYMBOL        temp
  -------         ENDDO         
  C:000EH         LINE#         2457
  C:0010H         LINE#         2458
  C:0010H         LINE#         2460
  C:0017H         LINE#         2461
  C:001BH         LINE#         2462
  -------         ENDPROC       _RESETDEVICE
  C:819BH         SYMBOL        L?0492
  -------         PROC          _SETBAUDRATE
  X:0007H         SYMBOL        addr
  X:0008H         SYMBOL        baudrate
  -------         DO            
  X:000CH         SYMBOL        divisor
  X:0010H         SYMBOL        prescaler
  D:0002H         SYMBOL        temp_lcr
  -------         ENDDO         
  C:80E3H         LINE#         2472
  C:80E8H         LINE#         2473
  C:80E8H         LINE#         2489
  C:80F4H         LINE#         2490
  C:80F7H         LINE#         2491
  C:80F9H         LINE#         2492
  C:80FCH         LINE#         2493
  C:80FCH         LINE#         2497
  C:8146H         LINE#         2509
  C:8152H         LINE#         2511
  C:8159H         LINE#         2513
  C:815CH         LINE#         2515
  C:815FH         LINE#         2517
  C:8171H         LINE#         2519
  C:8190H         LINE#         2526
  C:8193H         LINE#         2527
  C:8196H         LINE#         2529
  C:819AH         LINE#         2546
  -------         ENDPROC       _SETBAUDRATE
  -------         PROC          _SETLINE
  D:0002H         SYMBOL        addr
  X:0008H         SYMBOL        data_length
  D:0001H         SYMBOL        parity_select
  X:000AH         SYMBOL        stop_length
  -------         DO            
  D:0006H         SYMBOL        temp_lcr
  -------         ENDDO         
  C:8EC2H         LINE#         2548
  C:8ECBH         LINE#         2549
  C:8ECBH         LINE#         2551
  C:8ED2H         LINE#         2552
  C:8ED6H         LINE#         2557
  C:8EE6H         LINE#         2558
  C:8EE6H         LINE#         2559
  C:8EE6H         LINE#         2560
  C:8EE6H         LINE#         2561
  C:8EEAH         LINE#         2562
  C:8EECH         LINE#         2563
BL51 BANKED LINKER/LOCATER V6.22                                                      12/01/2015  16:17:03  PAGE 118


  C:8EECH         LINE#         2564
  C:8EF0H         LINE#         2565
  C:8EF2H         LINE#         2566
  C:8EF2H         LINE#         2569
  C:8EF2H         LINE#         2570
  C:8EF6H         LINE#         2571
  C:8EF6H         LINE#         2572
  C:8EF6H         LINE#         2574
  C:8EFDH         LINE#         2575
  C:8F01H         LINE#         2576
  C:8F01H         LINE#         2578
  C:8F0DH         LINE#         2579
  C:8F0DH         LINE#         2580
  C:8F0DH         LINE#         2581
  C:8F0DH         LINE#         2582
  C:8F11H         LINE#         2583
  C:8F13H         LINE#         2584
  C:8F13H         LINE#         2585
  C:8F17H         LINE#         2586
  C:8F19H         LINE#         2587
  C:8F19H         LINE#         2588
  C:8F1DH         LINE#         2589
  C:8F1DH         LINE#         2590
  C:8F1DH         LINE#         2591
  C:8F1DH         LINE#         2592
  C:8F1DH         LINE#         2593
  C:8F1DH         LINE#         2594
  C:8F1DH         LINE#         2596
  -------         ENDPROC       _SETLINE
  -------         PROC          _GPIOSETPORTMODE
  D:0007H         SYMBOL        addr
  D:0005H         SYMBOL        port_io
  C:A628H         LINE#         2644
  C:A628H         LINE#         2645
  C:A628H         LINE#         2647
  -------         ENDPROC       _GPIOSETPORTMODE
  -------         PROC          _GPIOSETPORTSTATE
  D:0007H         SYMBOL        addr
  D:0005H         SYMBOL        port_state
  C:A631H         LINE#         2652
  C:A631H         LINE#         2653
  C:A631H         LINE#         2654
  -------         ENDPROC       _GPIOSETPORTSTATE
  -------         PROC          _GPIOGETPORTSTATE
  D:0007H         SYMBOL        addr
  C:A66EH         LINE#         2657
  C:A66EH         LINE#         2658
  C:A66EH         LINE#         2663
  C:A673H         LINE#         2665
  -------         ENDPROC       _GPIOGETPORTSTATE
  -------         PROC          _FIFOAVAILABLEDATA
  D:0007H         SYMBOL        addr
  C:A674H         LINE#         2667
  C:A674H         LINE#         2668
  C:A674H         LINE#         2673
  C:A679H         LINE#         2674
  -------         ENDPROC       _FIFOAVAILABLEDATA
BL51 BANKED LINKER/LOCATER V6.22                                                      12/01/2015  16:17:03  PAGE 119


  -------         PROC          _FIFOAVAILABLESPACE
  D:0007H         SYMBOL        addr
  C:A67AH         LINE#         2676
  C:A67AH         LINE#         2677
  C:A67AH         LINE#         2683
  C:A67FH         LINE#         2685
  -------         ENDPROC       _FIFOAVAILABLESPACE
  -------         PROC          _ENABLETRANSMIT
  D:0003H         SYMBOL        addr
  D:0002H         SYMBOL        OnOff
  -------         DO            
  D:0006H         SYMBOL        temp_efcr
  -------         ENDDO         
  C:A2A9H         LINE#         2687
  C:A2ADH         LINE#         2688
  C:A2ADH         LINE#         2690
  C:A2B4H         LINE#         2691
  C:A2B7H         LINE#         2692
  C:A2BBH         LINE#         2693
  C:A2BDH         LINE#         2694
  C:A2C1H         LINE#         2695
  C:A2C1H         LINE#         2696
  -------         ENDPROC       _ENABLETRANSMIT
  -------         PROC          _FLUSH
  D:0003H         SYMBOL        addr
  -------         DO            
  D:0007H         SYMBOL        tmp_lsr
  -------         ENDDO         
  C:A5A0H         LINE#         2702
  C:A5A2H         LINE#         2703
  C:A5A2H         LINE#         2706
  C:A5A2H         LINE#         2711
  C:A5A9H         LINE#         2713
  C:A5ADH         LINE#         2716
  -------         ENDPROC       _FLUSH
  C:A11DH         SYMBOL        L?0488
  -------         PROC          _PING
  D:0002H         SYMBOL        addr
  C:A0FEH         LINE#         2719
  C:A100H         LINE#         2720
  C:A100H         LINE#         2722
  C:A102H         LINE#         2724
  C:A109H         LINE#         2728
  C:A10CH         LINE#         2729
  C:A10CH         LINE#         2731
  C:A110H         LINE#         2733
  C:A117H         LINE#         2737
  C:A11AH         LINE#         2738
  C:A11AH         LINE#         2744
  C:A11CH         LINE#         2746
  -------         ENDPROC       _PING
  -------         PROC          _WRITEBYTE
  D:0007H         SYMBOL        addr
  D:0005H         SYMBOL        val
  C:A63AH         LINE#         2751
  C:A63AH         LINE#         2752
  C:A63AH         LINE#         2774
BL51 BANKED LINKER/LOCATER V6.22                                                      12/01/2015  16:17:03  PAGE 120


  -------         ENDPROC       _WRITEBYTE
  -------         PROC          _READBYTE
  D:0007H         SYMBOL        addr
  -------         DO            
  X:0012H         SYMBOL        val
  -------         ENDDO         
  C:A5D5H         LINE#         2780
  C:A5D5H         LINE#         2781
  C:A5D5H         LINE#         2784
  C:A5DFH         LINE#         2785
  C:A5E1H         LINE#         2811
  -------         ENDPROC       _READBYTE
  -------         PROC          _TW2835_GET
  X:03D1H         SYMBOL        page
  X:03D2H         SYMBOL        start
  X:03D3H         SYMBOL        count
  -------         DO            
  X:03D4H         SYMBOL        x
  X:03D5H         SYMBOL        loop
  X:03D6H         SYMBOL        step
  D:0006H         SYMBOL        val
  -------         ENDDO         
  C:846BH         LINE#         2813
  C:8476H         LINE#         2814
  C:8476H         LINE#         2815
  C:847DH         LINE#         2816
  C:847EH         LINE#         2819
  C:847FH         LINE#         2820
  C:847FH         LINE#         2845
  C:8480H         LINE#         2846
  C:8480H         LINE#         2847
  C:8484H         LINE#         2848
  C:8484H         LINE#         2850
  C:84B9H         LINE#         2851
  C:84D5H         LINE#         2852
  C:84DCH         LINE#         2853
  C:84DFH         LINE#         2854
  C:84EBH         LINE#         2855
  C:84FAH         LINE#         2856
  -------         ENDPROC       _TW2835_GET
  -------         PROC          _PEEK
  X:040FH         SYMBOL        addr
  C:A5F9H         LINE#         2885
  C:A5FEH         LINE#         2886
  C:A5FEH         LINE#         2895
  C:A602H         LINE#         2897
  -------         ENDPROC       _PEEK
  -------         PROC          _SET_INT
  X:0410H         SYMBOL        addr
  C:A3CFH         LINE#         2900
  C:A3D4H         LINE#         2901
  C:A3D4H         LINE#         2904
  C:A3D6H         LINE#         2905
  C:A3D8H         LINE#         2906
  C:A3DAH         LINE#         2908
  C:A3DCH         LINE#         2909
  C:A3DEH         LINE#         2910
BL51 BANKED LINKER/LOCATER V6.22                                                      12/01/2015  16:17:03  PAGE 121


  C:A3E0H         LINE#         2912
  C:A3E2H         LINE#         2913
  C:A3E4H         LINE#         2914
  C:A3E6H         LINE#         2915
  -------         ENDPROC       _SET_INT
  -------         PROC          MCTRL_SET
  C:A643H         LINE#         2918
  C:A643H         LINE#         2919
  C:A643H         LINE#         2922
  C:A645H         LINE#         2923
  C:A647H         LINE#         2924
  C:A649H         LINE#         2925
  C:A64BH         LINE#         2926
  -------         ENDPROC       MCTRL_SET
  -------         ENDMOD        NED

  -------         MODULE        ?C?COPY
  C:2668H         PUBLIC        ?C?COPY
  -------         ENDMOD        ?C?COPY

  -------         MODULE        ?C?CLDPTR
  C:268EH         PUBLIC        ?C?CLDPTR
  -------         ENDMOD        ?C?CLDPTR

  -------         MODULE        ?C?CLDOPTR
  C:26A7H         PUBLIC        ?C?CLDOPTR
  -------         ENDMOD        ?C?CLDOPTR

  -------         MODULE        ?C?CSTPTR
  C:26D4H         PUBLIC        ?C?CSTPTR
  -------         ENDMOD        ?C?CSTPTR

  -------         MODULE        ?C?IMUL
  C:26E6H         PUBLIC        ?C?IMUL
  -------         ENDMOD        ?C?IMUL

  -------         MODULE        ?C?UIDIV
  C:26F8H         PUBLIC        ?C?UIDIV
  -------         ENDMOD        ?C?UIDIV

  -------         MODULE        ?C?IILDX
  C:274DH         PUBLIC        ?C?IILDX
  -------         ENDMOD        ?C?IILDX

  -------         MODULE        ?C?ILDIX
  C:2763H         PUBLIC        ?C?ILDIX
  -------         ENDMOD        ?C?ILDIX

  -------         MODULE        ?C?ILDPTR
  C:2779H         PUBLIC        ?C?ILDPTR
  -------         ENDMOD        ?C?ILDPTR

  -------         MODULE        ?C?IILDOPTR
  C:27A4H         PUBLIC        ?C?IILDOPTR
  -------         ENDMOD        ?C?IILDOPTR

  -------         MODULE        ?C?LMUL
BL51 BANKED LINKER/LOCATER V6.22                                                      12/01/2015  16:17:03  PAGE 122


  C:27F1H         PUBLIC        ?C?LMUL
  -------         ENDMOD        ?C?LMUL

  -------         MODULE        ?C?ULDIV
  C:287CH         PUBLIC        ?C?ULDIV
  -------         ENDMOD        ?C?ULDIV

  -------         MODULE        ?C?SLDIV
  C:98F5H         PUBLIC        ?C?SLDIV
  -------         ENDMOD        ?C?SLDIV

  -------         MODULE        ?C?ULCMP
  C:290EH         PUBLIC        ?C?ULCMP
  -------         ENDMOD        ?C?ULCMP

  -------         MODULE        ?C?ULSHR
  C:291FH         PUBLIC        ?C?ULSHR
  -------         ENDMOD        ?C?ULSHR

  -------         MODULE        ?C?LSTXDATA
  C:2932H         PUBLIC        ?C?LSTXDATA
  -------         ENDMOD        ?C?LSTXDATA

  -------         MODULE        ?C?LSTKXDATA
  C:293EH         PUBLIC        ?C?LSTKXDATA
  -------         ENDMOD        ?C?LSTKXDATA

  -------         MODULE        ?C?PLDPTR
  C:296FH         PUBLIC        ?C?PLDPTR
  -------         ENDMOD        ?C?PLDPTR

  -------         MODULE        ?C?PSTPTR
  C:298FH         PUBLIC        ?C?PSTPTR
  -------         ENDMOD        ?C?PSTPTR

  -------         MODULE        ?C?CCASE
  C:29DEH         PUBLIC        ?C?CCASE
  -------         ENDMOD        ?C?CCASE

  -------         MODULE        PRINTF
  X:0338H         PUBLIC        ?_PRINTF517?BYTE
  X:0338H         PUBLIC        ?_PRINTF?BYTE
  X:0338H         PUBLIC        ?_SPRINTF517?BYTE
  X:0338H         PUBLIC        ?_SPRINTF?BYTE
  C:47ECH         PUBLIC        _PRINTF
  C:47ECH         PUBLIC        _PRINTF517
  C:47E6H         PUBLIC        _SPRINTF
  C:47E6H         PUBLIC        _SPRINTF517
  -------         ENDMOD        PRINTF

  -------         MODULE        PUTS
  C:A153H         PUBLIC        _PUTS
  -------         ENDMOD        PUTS

  -------         MODULE        SCANF
  X:01DDH         PUBLIC        ?_SCANF517?BYTE
  X:01DDH         PUBLIC        ?_SCANF?BYTE
BL51 BANKED LINKER/LOCATER V6.22                                                      12/01/2015  16:17:03  PAGE 123


  X:01DDH         PUBLIC        ?_SSCANF517?BYTE
  X:01DDH         PUBLIC        ?_SSCANF?BYTE
  C:4B73H         PUBLIC        _SCANF
  C:4B73H         PUBLIC        _SCANF517
  C:4B6FH         PUBLIC        _SSCANF
  C:4B6FH         PUBLIC        _SSCANF517
  -------         ENDMOD        SCANF

  -------         MODULE        ?C?STRCMP
  C:2B82H         PUBLIC        ?C?STRCMP
  -------         ENDMOD        ?C?STRCMP

  -------         MODULE        STRLEN
  C:A429H         PUBLIC        _STRLEN
  -------         ENDMOD        STRLEN

  -------         MODULE        ATOI
  C:7D92H         PUBLIC        _atoi
  -------         ENDMOD        ATOI

  -------         MODULE        ?C?ISTPTR
  C:2B9FH         PUBLIC        ?C?ISTPTR
  -------         ENDMOD        ?C?ISTPTR

  -------         MODULE        ?C?LNEG
  C:2BBEH         PUBLIC        ?C?LNEG
  -------         ENDMOD        ?C?LNEG

  -------         MODULE        ?C?LSTPTR
  C:2BCCH         PUBLIC        ?C?LSTPTR
  -------         ENDMOD        ?C?LSTPTR

  -------         MODULE        ?C?PLDIDATA
  C:2BE6H         PUBLIC        ?C?PLDIDATA
  -------         ENDMOD        ?C?PLDIDATA

  -------         MODULE        ?C?PSTIDATA
  C:2BEFH         PUBLIC        ?C?PSTIDATA
  -------         ENDMOD        ?C?PSTIDATA

  -------         MODULE        ?C?PLDXDATA
  C:2BF8H         PUBLIC        ?C?PLDXDATA
  -------         ENDMOD        ?C?PLDXDATA

  -------         MODULE        ?C?PLDIXDATA
  C:2C01H         PUBLIC        ?C?PLDIXDATA
  -------         ENDMOD        ?C?PLDIXDATA

  -------         MODULE        ?C?PILDXDATA
  C:2C18H         PUBLIC        ?C?PILDXDATA
  -------         ENDMOD        ?C?PILDXDATA

  -------         MODULE        ?C?PSTXDATA
  C:2C2FH         PUBLIC        ?C?PSTXDATA
  -------         ENDMOD        ?C?PSTXDATA

  -------         MODULE        ?C?PLDPDATA
BL51 BANKED LINKER/LOCATER V6.22                                                      12/01/2015  16:17:03  PAGE 124


  C:2C38H         PUBLIC        ?C?PLDPDATA
  -------         ENDMOD        ?C?PLDPDATA

  -------         MODULE        ?C?PSTPDATA
  C:2C41H         PUBLIC        ?C?PSTPDATA
  -------         ENDMOD        ?C?PSTPDATA

  -------         MODULE        ?C?PLDCODE
  C:2C4AH         PUBLIC        ?C?PLDCODE
  -------         ENDMOD        ?C?PLDCODE

  -------         MODULE        PUTCHAR
  C:A1A5H         PUBLIC        _PUTCHAR
  -------         ENDMOD        PUTCHAR

  -------         MODULE        GETCHAR
  B:0025H.2       PUBLIC        ?C?CHARLOADED
  X:0411H         PUBLIC        ?_UNGETCHAR?BYTE
  C:A48EH         PUBLIC        GETCHAR
  -------         ENDMOD        GETCHAR

  -------         MODULE        UNGETC
  C:A654H         PUBLIC        _UNGETCHAR
  -------         ENDMOD        UNGETC

  -------         MODULE        ISDIGIT
  C:A591H         PUBLIC        _isdigit
  -------         ENDMOD        ISDIGIT

  -------         MODULE        ISSPACE
  C:A4A2H         PUBLIC        _isspace
  -------         ENDMOD        ISSPACE

  -------         MODULE        ?C?LSTIDATA
  C:2C56H         PUBLIC        ?C?LSTIDATA
  -------         ENDMOD        ?C?LSTIDATA

  -------         MODULE        ?C?LSTPDATA
  C:2C62H         PUBLIC        ?C?LSTPDATA
  -------         ENDMOD        ?C?LSTPDATA

  -------         MODULE        _GETKEY
  C:A603H         PUBLIC        _GETKEY
  -------         ENDMOD        _GETKEY

*** WARNING L16: UNCALLED SEGMENT, IGNORED FOR OVERLAY PROCESS
    SEGMENT: ?PR?_MONIREADPAGEBUFFER?COMMANDSHELL

*** WARNING L16: UNCALLED SEGMENT, IGNORED FOR OVERLAY PROCESS
    SEGMENT: ?PR?_MONIREADONEBUFFER?COMMANDSHELL

*** WARNING L16: UNCALLED SEGMENT, IGNORED FOR OVERLAY PROCESS
    SEGMENT: ?PR?_MONIWRITEONEBUFFER?COMMANDSHELL

*** WARNING L16: UNCALLED SEGMENT, IGNORED FOR OVERLAY PROCESS
    SEGMENT: ?PR?_MONIREADASICBYTE?COMMANDSHELL

BL51 BANKED LINKER/LOCATER V6.22                                                      12/01/2015  16:17:03  PAGE 125


*** WARNING L16: UNCALLED SEGMENT, IGNORED FOR OVERLAY PROCESS
    SEGMENT: ?PR?_MONIAUDIOMIXING?COMMANDSHELL

*** WARNING L16: UNCALLED SEGMENT, IGNORED FOR OVERLAY PROCESS
    SEGMENT: ?PR?MONIAUDIOMUTE?COMMANDSHELL

*** WARNING L16: UNCALLED SEGMENT, IGNORED FOR OVERLAY PROCESS
    SEGMENT: ?PR?_MONIAUDIOGAIN?COMMANDSHELL

*** WARNING L16: UNCALLED SEGMENT, IGNORED FOR OVERLAY PROCESS
    SEGMENT: ?PR?_MONIAUDIOLIVE?COMMANDSHELL

*** WARNING L16: UNCALLED SEGMENT, IGNORED FOR OVERLAY PROCESS
    SEGMENT: ?PR?MONIREGISTERDUMP?COMMANDSHELL

*** WARNING L16: UNCALLED SEGMENT, IGNORED FOR OVERLAY PROCESS
    SEGMENT: ?PR?_MONIVIDEOMIXWIN?COMMANDSHELL

*** WARNING L16: UNCALLED SEGMENT, IGNORED FOR OVERLAY PROCESS
    SEGMENT: ?PR?_MONIVIDEOMIXATTR?COMMANDSHELL

*** WARNING L16: UNCALLED SEGMENT, IGNORED FOR OVERLAY PROCESS
    SEGMENT: ?PR?MONIVIDEOAUTODETECT?COMMANDSHELL

*** WARNING L16: UNCALLED SEGMENT, IGNORED FOR OVERLAY PROCESS
    SEGMENT: ?PR?_MONISETVIDEOFORMAT?COMMANDSHELL

*** WARNING L16: UNCALLED SEGMENT, IGNORED FOR OVERLAY PROCESS
    SEGMENT: ?PR?_MONISHOWSODSTR?COMMANDSHELL

*** WARNING L16: UNCALLED SEGMENT, IGNORED FOR OVERLAY PROCESS
    SEGMENT: ?PR?PCT_AUDIOACTIONFORHS?COMMANDSHELL

*** WARNING L16: UNCALLED SEGMENT, IGNORED FOR OVERLAY PROCESS
    SEGMENT: ?PR?MONIHSCOMMDISSCROLL?COMMANDSHELL

*** WARNING L16: UNCALLED SEGMENT, IGNORED FOR OVERLAY PROCESS
    SEGMENT: ?PR?MONIHSCOMMVERSION?COMMANDSHELL

*** WARNING L16: UNCALLED SEGMENT, IGNORED FOR OVERLAY PROCESS
    SEGMENT: ?PR?NEWLINE?MAIN

*** WARNING L16: UNCALLED SEGMENT, IGNORED FOR OVERLAY PROCESS
    SEGMENT: ?PR?_PUTSP?MAIN

*** WARNING L16: UNCALLED SEGMENT, IGNORED FOR OVERLAY PROCESS
    SEGMENT: ?PR?_CHKSTARTCOMMSHELL?MAIN

*** WARNING L16: UNCALLED SEGMENT, IGNORED FOR OVERLAY PROCESS
    SEGMENT: ?PR?_PCT_SHOWSPEAKICON?OSDACTION_

*** WARNING L16: UNCALLED SEGMENT, IGNORED FOR OVERLAY PROCESS
    SEGMENT: ?PR?PCT_SHOWVLOSS?OSDACTION_

*** WARNING L16: UNCALLED SEGMENT, IGNORED FOR OVERLAY PROCESS
    SEGMENT: ?PR?PCT_AUDIOREGLIST?TW28XX_AUDIO

BL51 BANKED LINKER/LOCATER V6.22                                                      12/01/2015  16:17:03  PAGE 126


*** WARNING L16: UNCALLED SEGMENT, IGNORED FOR OVERLAY PROCESS
    SEGMENT: ?PR?PCT_VIDEOLASTMODIFY?TW28XX_VIDEO

*** WARNING L16: UNCALLED SEGMENT, IGNORED FOR OVERLAY PROCESS
    SEGMENT: ?PR?_PCT_WINATTRCLEAR?TW28XX_VIDEO

*** WARNING L16: UNCALLED SEGMENT, IGNORED FOR OVERLAY PROCESS
    SEGMENT: ?PR?I2C_100KHZ?NED

*** WARNING L16: UNCALLED SEGMENT, IGNORED FOR OVERLAY PROCESS
    SEGMENT: ?PR?I2CSTART2?NED

*** WARNING L16: UNCALLED SEGMENT, IGNORED FOR OVERLAY PROCESS
    SEGMENT: ?PR?I2CSTOP2?NED

*** WARNING L16: UNCALLED SEGMENT, IGNORED FOR OVERLAY PROCESS
    SEGMENT: ?PR?_I2CWRITEDATA2?NED

*** WARNING L16: UNCALLED SEGMENT, IGNORED FOR OVERLAY PROCESS
    SEGMENT: ?PR?I2CREADDATA2?NED

*** WARNING L16: UNCALLED SEGMENT, IGNORED FOR OVERLAY PROCESS
    SEGMENT: ?PR?I2CREADDATAWITHACK2?NED

*** WARNING L16: UNCALLED SEGMENT, IGNORED FOR OVERLAY PROCESS
    SEGMENT: ?PR?_READI2C2?NED

*** WARNING L16: UNCALLED SEGMENT, IGNORED FOR OVERLAY PROCESS
    SEGMENT: ?PR?I2C_ACK?NED

*** WARNING L16: UNCALLED SEGMENT, IGNORED FOR OVERLAY PROCESS
    SEGMENT: ?PR?I2C_ACK2?NED

*** WARNING L16: UNCALLED SEGMENT, IGNORED FOR OVERLAY PROCESS
    SEGMENT: ?PR?_SET_CHANNEL?NED

*** WARNING L16: UNCALLED SEGMENT, IGNORED FOR OVERLAY PROCESS
    SEGMENT: ?PR?SEND_CAMERA_VER?NED

*** WARNING L16: UNCALLED SEGMENT, IGNORED FOR OVERLAY PROCESS
    SEGMENT: ?PR?_GET_CAMERA_IRD?NED

*** WARNING L16: UNCALLED SEGMENT, IGNORED FOR OVERLAY PROCESS
    SEGMENT: ?PR?GET_DVR_VER?NED

*** WARNING L16: UNCALLED SEGMENT, IGNORED FOR OVERLAY PROCESS
    SEGMENT: ?PR?SENT_DVR_VER?NED

*** WARNING L16: UNCALLED SEGMENT, IGNORED FOR OVERLAY PROCESS
    SEGMENT: ?PR?GET_DVR_YEAR?NED

*** WARNING L16: UNCALLED SEGMENT, IGNORED FOR OVERLAY PROCESS
    SEGMENT: ?PR?SENT_DVR_YEAR?NED

*** WARNING L16: UNCALLED SEGMENT, IGNORED FOR OVERLAY PROCESS
    SEGMENT: ?PR?GET_DVR_MD?NED

BL51 BANKED LINKER/LOCATER V6.22                                                      12/01/2015  16:17:03  PAGE 127


*** WARNING L16: UNCALLED SEGMENT, IGNORED FOR OVERLAY PROCESS
    SEGMENT: ?PR?SENT_DVR_MDR?NED

*** WARNING L16: UNCALLED SEGMENT, IGNORED FOR OVERLAY PROCESS
    SEGMENT: ?PR?GET_DVR_HS?NED

*** WARNING L16: UNCALLED SEGMENT, IGNORED FOR OVERLAY PROCESS
    SEGMENT: ?PR?SENT_DVR_HS?NED

*** WARNING L16: UNCALLED SEGMENT, IGNORED FOR OVERLAY PROCESS
    SEGMENT: ?PR?_COMMAND_CHECK?NED

*** WARNING L16: UNCALLED SEGMENT, IGNORED FOR OVERLAY PROCESS
    SEGMENT: ?PR?_CHECK_STARTUP?NED

*** WARNING L16: UNCALLED SEGMENT, IGNORED FOR OVERLAY PROCESS
    SEGMENT: ?PR?_GET_DATA?NED

*** WARNING L16: UNCALLED SEGMENT, IGNORED FOR OVERLAY PROCESS
    SEGMENT: ?PR?_PARITY?NED

*** WARNING L16: UNCALLED SEGMENT, IGNORED FOR OVERLAY PROCESS
    SEGMENT: ?PR?ADT75_INIT?NED

*** WARNING L16: UNCALLED SEGMENT, IGNORED FOR OVERLAY PROCESS
    SEGMENT: ?PR?_FIFOAVAILABLEDATA?NED

*** WARNING L16: UNCALLED SEGMENT, IGNORED FOR OVERLAY PROCESS
    SEGMENT: ?PR?_FIFOAVAILABLESPACE?NED

*** WARNING L16: UNCALLED SEGMENT, IGNORED FOR OVERLAY PROCESS
    SEGMENT: ?PR?_ENABLETRANSMIT?NED

*** WARNING L16: UNCALLED SEGMENT, IGNORED FOR OVERLAY PROCESS
    SEGMENT: ?PR?_FLUSH?NED

*** WARNING L16: UNCALLED SEGMENT, IGNORED FOR OVERLAY PROCESS
    SEGMENT: ?PR?_PING?NED

*** WARNING L16: UNCALLED SEGMENT, IGNORED FOR OVERLAY PROCESS
    SEGMENT: ?PR?_TW2835_GET?NED

*** WARNING L16: UNCALLED SEGMENT, IGNORED FOR OVERLAY PROCESS
    SEGMENT: ?PR?_PEEK?NED

*** WARNING L16: UNCALLED SEGMENT, IGNORED FOR OVERLAY PROCESS
    SEGMENT: ?PR?_SET_INT?NED

Program Size: data=104.3 xdata=1042 code=42635
LINK/LOCATE RUN COMPLETE.  58 WARNING(S),  0 ERROR(S)
