BL51 BANKED LINKER/LOCATER V6.22                                                        11/30/2015  19:14:20  PAGE 1


BL51 BANKED LINKER/LOCATER V6.22, INVOKED BY:
C:\KEIL\C51\BIN\BL51.EXE .\OBJ\STARTUP.obj, .\OBJ\UART.obj, .\OBJ\BusCtrl.obj, .\OBJ\CommandShell.obj, .\OBJ\Main.obj, .
>> \OBJ\OSD_Graph.obj, .\OBJ\OSDAction .obj, .\OBJ\OSDCtrl.obj, .\OBJ\Timer.obj, .\OBJ\TW28xx_Audio.obj, .\OBJ\TW28xx_Vi
>> deo.obj, .\OBJ\TW2835_Init.obj, .\OBJ\NED.obj TO .\OBJ\NED_5MCMOS_v0_a_0_XXXX_20151130 PRINT (.\OBJ\NED_5MCMOS_v0_a_0
>> _XXXX_20151130.m51) RAMSIZE (256) CODE (0X0000-0XFFFF)


MEMORY MODEL: LARGE


INPUT MODULES INCLUDED:
  .\OBJ\STARTUP.obj (?C_STARTUP)
  .\OBJ\UART.obj (UART)
  .\OBJ\BusCtrl.obj (BUSCTRL)
  .\OBJ\CommandShell.obj (COMMANDSHELL)
  .\OBJ\Main.obj (MAIN)
  .\OBJ\OSD_Graph.obj (OSD_GRAPH)
  .\OBJ\OSDAction .obj (OSDACTION_)
  .\OBJ\OSDCtrl.obj (OSDCTRL)
  .\OBJ\Timer.obj (TIMER)
  .\OBJ\TW28xx_Audio.obj (TW28XX_AUDIO)
  .\OBJ\TW28xx_Video.obj (TW28XX_VIDEO)
  .\OBJ\TW2835_Init.obj (TW2835_INIT)
  .\OBJ\NED.obj (NED)
  C:\KEIL\C51\LIB\C51L.LIB (?C_INIT)
  C:\KEIL\C51\LIB\C51L.LIB (?C?COPY)
  C:\KEIL\C51\LIB\C51L.LIB (?C?CLDPTR)
  C:\KEIL\C51\LIB\C51L.LIB (?C?CLDOPTR)
  C:\KEIL\C51\LIB\C51L.LIB (?C?CSTPTR)
  C:\KEIL\C51\LIB\C51L.LIB (?C?IMUL)
  C:\KEIL\C51\LIB\C51L.LIB (?C?UIDIV)
  C:\KEIL\C51\LIB\C51L.LIB (?C?IILDX)
  C:\KEIL\C51\LIB\C51L.LIB (?C?ILDIX)
  C:\KEIL\C51\LIB\C51L.LIB (?C?ILDPTR)
  C:\KEIL\C51\LIB\C51L.LIB (?C?IILDOPTR)
  C:\KEIL\C51\LIB\C51L.LIB (?C?LMUL)
  C:\KEIL\C51\LIB\C51L.LIB (?C?ULDIV)
  C:\KEIL\C51\LIB\C51L.LIB (?C?SLDIV)
  C:\KEIL\C51\LIB\C51L.LIB (?C?ULCMP)
  C:\KEIL\C51\LIB\C51L.LIB (?C?ULSHR)
  C:\KEIL\C51\LIB\C51L.LIB (?C?LSTXDATA)
  C:\KEIL\C51\LIB\C51L.LIB (?C?LSTKXDATA)
  C:\KEIL\C51\LIB\C51L.LIB (?C?PLDPTR)
  C:\KEIL\C51\LIB\C51L.LIB (?C?PSTPTR)
  C:\KEIL\C51\LIB\C51L.LIB (?C?CCASE)
  C:\KEIL\C51\LIB\C51L.LIB (?C?ICASE)
  C:\KEIL\C51\LIB\C51L.LIB (PRINTF)
  C:\KEIL\C51\LIB\C51L.LIB (PUTS)
  C:\KEIL\C51\LIB\C51L.LIB (SCANF)
  C:\KEIL\C51\LIB\C51L.LIB (?C?STRCMP)
  C:\KEIL\C51\LIB\C51L.LIB (STRLEN)
  C:\KEIL\C51\LIB\C51L.LIB (ATOI)
  C:\KEIL\C51\LIB\C51L.LIB (?C?ISTPTR)
  C:\KEIL\C51\LIB\C51L.LIB (?C?LNEG)
  C:\KEIL\C51\LIB\C51L.LIB (?C?LSTPTR)
  C:\KEIL\C51\LIB\C51L.LIB (?C?PLDIDATA)
  C:\KEIL\C51\LIB\C51L.LIB (?C?PSTIDATA)
  C:\KEIL\C51\LIB\C51L.LIB (?C?PLDXDATA)
BL51 BANKED LINKER/LOCATER V6.22                                                      11/30/2015  19:14:20  PAGE 2


  C:\KEIL\C51\LIB\C51L.LIB (?C?PLDIXDATA)
  C:\KEIL\C51\LIB\C51L.LIB (?C?PILDXDATA)
  C:\KEIL\C51\LIB\C51L.LIB (?C?PSTXDATA)
  C:\KEIL\C51\LIB\C51L.LIB (?C?PLDPDATA)
  C:\KEIL\C51\LIB\C51L.LIB (?C?PSTPDATA)
  C:\KEIL\C51\LIB\C51L.LIB (?C?PLDCODE)
  C:\KEIL\C51\LIB\C51L.LIB (PUTCHAR)
  C:\KEIL\C51\LIB\C51L.LIB (GETCHAR)
  C:\KEIL\C51\LIB\C51L.LIB (UNGETC)
  C:\KEIL\C51\LIB\C51L.LIB (ISDIGIT)
  C:\KEIL\C51\LIB\C51L.LIB (ISSPACE)
  C:\KEIL\C51\LIB\C51L.LIB (?C?LSTIDATA)
  C:\KEIL\C51\LIB\C51L.LIB (?C?LSTPDATA)
  C:\KEIL\C51\LIB\C51L.LIB (_GETKEY)


LINK MAP OF MODULE:  .\OBJ\NED_5MCMOS_v0_a_0_XXXX_20151130 (?C_STARTUP)


            TYPE    BASE      LENGTH    RELOCATION   SEGMENT NAME
            -----------------------------------------------------

            * * * * * * *   D A T A   M E M O R Y   * * * * * * *
            REG     0000H     0008H     ABSOLUTE     "REG BANK 0"
            DATA    0008H     000AH     UNIT         ?DT?_MONIAUDIOMIXING?COMMANDSHELL
            DATA    0012H     000AH     UNIT         ?DT?_MONIAUDIOGAIN?COMMANDSHELL
            DATA    001CH     0004H     UNIT         ?DT?_MONIREADASICBYTE?COMMANDSHELL
            DATA    0020H     0001H     BIT_ADDR     ?BA?MAIN
            DATA    0021H     0001H     BIT_ADDR     ?BA?OSDACTION_
            DATA    0022H     0001H     BIT_ADDR     ?BA?OSDCTRL
            BIT     0023H.0   0001H.1   UNIT         _BIT_GROUP_
            BIT     0024H.1   0000H.2   UNIT         ?BI?MAIN
            BIT     0024H.3   0000H.1   UNIT         ?BI?_ATOI?ATOI
            BIT     0024H.4   0000H.1   UNIT         ?BI?GETCHAR
                    0024H.5   0000H.3                *** GAP ***
            DATA    0025H     000AH     UNIT         ?DT?_MONIVIDEOMIXATTR?COMMANDSHELL
            DATA    002FH     0009H     UNIT         _DATA_GROUP_
            DATA    0038H     0008H     UNIT         ?DT?_MONISETVIDEOFORMAT?COMMANDSHELL
            DATA    0040H     0006H     UNIT         ?DT?TIMER
            DATA    0046H     0003H     UNIT         ?DT?_MONIREADPAGEBUFFER?COMMANDSHELL
            DATA    0049H     0003H     UNIT         ?DT?_MONIWRITEONEBUFFER?COMMANDSHELL
            DATA    004CH     0003H     UNIT         ?DT?_PCT_WRITEOSDFNTX?OSDCTRL
            DATA    004FH     0002H     UNIT         ?DT?_MONIREADONEBUFFER?COMMANDSHELL
            DATA    0051H     0002H     UNIT         ?DT?MONIREGISTERDUMP?COMMANDSHELL
            DATA    0053H     0002H     UNIT         ?DT?_MONIVIDEOMIXWIN?COMMANDSHELL
            DATA    0055H     0002H     UNIT         ?DT?_MONISHOWSODSTR?COMMANDSHELL
            DATA    0057H     0002H     UNIT         ?DT?PCT_AUDIOACTIONFORHS?COMMANDSHELL
            DATA    0059H     0002H     UNIT         ?DT?OSDCTRL
            DATA    005BH     0002H     UNIT         ?DT?_PCT_WRITEOSDFNTY?OSDCTRL
            DATA    005DH     0001H     UNIT         ?DT?_MONIAUDIOLIVE?COMMANDSHELL
            DATA    005EH     0001H     UNIT         ?DT?_PUTSP?MAIN
            DATA    005FH     0001H     UNIT         ?DT?PCT_SHOWVLOSS?OSDACTION_
            DATA    0060H     0001H     UNIT         ?DT?_PCT_AUDIOMIXMUTE?TW28XX_AUDIO
            DATA    0061H     0001H     UNIT         ?DT?PCT_VIDEOLASTMODIFY?TW28XX_VIDEO
            IDATA   0062H     0001H     UNIT         ?STACK

            * * * * * * *  X D A T A   M E M O R Y  * * * * * * *
BL51 BANKED LINKER/LOCATER V6.22                                                      11/30/2015  19:14:20  PAGE 3


            XDATA   0000H     020BH     UNIT         _XDATA_GROUP_
            XDATA   020BH     0082H     UNIT         ?XD?NED
            XDATA   028DH     0066H     UNIT         ?XD?UART
            XDATA   02F3H     0045H     UNIT         ?XD?MAIN
            XDATA   0338H     001FH     UNIT         ?XD?_PCT_WRITEOSDFNTY?OSDCTRL
            XDATA   0357H     001AH     UNIT         ?XD?COMMANDSHELL
            XDATA   0371H     0013H     UNIT         ?XD?_PCT_WRITEOSDFNTX?OSDCTRL
            XDATA   0384H     0007H     UNIT         ?XD?_PCT_SHOWOSDSTRING?OSDCTRL
            XDATA   038BH     0006H     UNIT         ?XD?_MONIAUDIOMIXING?COMMANDSHELL
            XDATA   0391H     0006H     UNIT         ?XD?_MONIAUDIOGAIN?COMMANDSHELL
            XDATA   0397H     0006H     UNIT         ?XD?_MONIVIDEOMIXATTR?COMMANDSHELL
            XDATA   039DH     0006H     UNIT         ?XD?_MONISETVIDEOFORMAT?COMMANDSHELL
            XDATA   03A3H     0006H     UNIT         ?XD?_MONISHOWSODSTR?COMMANDSHELL
            XDATA   03A9H     0006H     UNIT         ?XD?_TW2835_GET?NED
            XDATA   03AFH     0005H     UNIT         ?XD?_ATOI?ATOI
            XDATA   03B4H     0004H     UNIT         ?XD?_PCT_WRITEOSDDATABUFFERX?OSDCTRL
            XDATA   03B8H     0004H     UNIT         ?XD?_PCT_WRITEOSDDATABUFFERY?OSDCTRL
            XDATA   03BCH     0004H     UNIT         ?XD?_PCT_AUDIOMIXCTRL?TW28XX_AUDIO
            XDATA   03C0H     0004H     UNIT         ?XD?_CHECK_STARTUP?NED
            XDATA   03C4H     0003H     UNIT         ?XD?_PUTSP?MAIN
            XDATA   03C7H     0003H     UNIT         ?XD?_CHKSTARTCOMMSHELL?MAIN
            XDATA   03CAH     0003H     UNIT         ?XD?_PCT_SHOWSPEAKICON?OSDACTION_
            XDATA   03CDH     0003H     UNIT         ?XD?_PCT_AUDIOGAINCTRL?TW28XX_AUDIO
            XDATA   03D0H     0003H     UNIT         ?XD?_PCT_WINATTRCLEAR?TW28XX_VIDEO
            XDATA   03D3H     0003H     UNIT         ?XD?ADT75_INIT?NED
            XDATA   03D6H     0002H     UNIT         ?XD?_PCT_AUDIOMIXMUTE?TW28XX_AUDIO
            XDATA   03D8H     0002H     UNIT         ?XD?_PCT_SETVIDEOFORMAT?TW28XX_VIDEO
            XDATA   03DAH     0002H     UNIT         ?XD?_GET_CAMERA_IRD?NED
            XDATA   03DCH     0001H     UNIT         ?XD?OSD_GRAPH
            XDATA   03DDH     0001H     UNIT         ?XD?OSDACTION_
            XDATA   03DEH     0001H     UNIT         ?XD?_PCT_AUDIOSELLIVE?TW28XX_AUDIO
            XDATA   03DFH     0001H     UNIT         ?XD?_PCT_WINPOPUPCTRL?TW28XX_VIDEO
            XDATA   03E0H     0001H     UNIT         ?XD?_READI2C2?NED
            XDATA   03E1H     0001H     UNIT         ?XD?_SET_CHANNEL?NED
            XDATA   03E2H     0001H     UNIT         ?XD?SEND_CAMERA_VER?NED
            XDATA   03E3H     0001H     UNIT         ?XD?SENT_DVR_VER?NED
            XDATA   03E4H     0001H     UNIT         ?XD?SENT_DVR_YEAR?NED
            XDATA   03E5H     0001H     UNIT         ?XD?_COMMAND_CHECK?NED
            XDATA   03E6H     0001H     UNIT         ?XD?_GET_DATA?NED
            XDATA   03E7H     0001H     UNIT         ?XD?_PEEK?NED
            XDATA   03E8H     0001H     UNIT         ?XD?_SET_INT?NED
            XDATA   03E9H     0001H     UNIT         ?XD?GETCHAR

            * * * * * * *   C O D E   M E M O R Y   * * * * * * *
            CODE    0000H     0003H     ABSOLUTE     
            CODE    0003H     0008H     UNIT         ?PR?_RS_TX?UART
            CODE    000BH     0003H     ABSOLUTE     
            CODE    000EH     0015H     UNIT         ?PR?_RESETDEVICE?NED
            CODE    0023H     0003H     ABSOLUTE     
            CODE    0026H     0005H     UNIT         ?PR?MONIHSCOMMDISSCROLL?COMMANDSHELL
            CODE    002BH     0003H     ABSOLUTE     
            CODE    002EH     16CAH     UNIT         ?CO?OSD_GRAPH
            CODE    16F8H     0EA0H     UNIT         ?CO?OSDCTRL
            CODE    2598H     0703H     UNIT         ?C?LIB_CODE
            CODE    2C9BH     0584H     UNIT         ?PR?PCT_SHOWVLOSS?OSDACTION_
            CODE    321FH     04DEH     UNIT         ?PR?_PCT_SHOWMIRRORICON?OSDACTION_
            CODE    36FDH     04AAH     UNIT         ?PR?_PCT_SHOWSPEAKICON?OSDACTION_
BL51 BANKED LINKER/LOCATER V6.22                                                      11/30/2015  19:14:20  PAGE 4


            CODE    3BA7H     0459H     UNIT         ?CO?TW28XX_VIDEO
            CODE    4000H     0400H     UNIT         ?CO?TW2835_INIT
            CODE    4400H     03AEH     UNIT         ?PR?_PCT_OSD_ACTIONPTHX?OSDACTION_
            CODE    47AEH     0365H     UNIT         ?PR?PRINTF?PRINTF
            CODE    4B13H     0322H     UNIT         ?PR?SCANF?SCANF
            CODE    4E35H     0320H     UNIT         ?PR?_MONITOR_SET?MAIN
            CODE    5155H     02F8H     UNIT         ?PR?_PCT_SETVIDEOHDELAY?TW28XX_VIDEO
            CODE    544DH     027EH     UNIT         ?CO?COMMANDSHELL
            CODE    56CBH     021FH     UNIT         ?PR?COMMANDSHELL
            CODE    58EAH     0217H     UNIT         ?PR?_MONIVIDEOMIXATTR?COMMANDSHELL
            CODE    5B01H     01F7H     UNIT         ?PR?_SC16_SENDDATASELECT?NED
            CODE    5CF8H     01DAH     UNIT         ?CO?MAIN
            CODE    5ED2H     01D9H     UNIT         ?PR?PCT_AUDIOREGLIST?TW28XX_AUDIO
            CODE    60ABH     01D7H     UNIT         ?PR?_SC16_BCC_CHECK?NED
            CODE    6282H     01A3H     UNIT         ?PR?_PCT_SETXVIDEOMIXING?TW28XX_VIDEO
            CODE    6425H     01A2H     UNIT         ?PR?_PCT_OSD16X16GRAPHX?OSD_GRAPH
            CODE    65C7H     017CH     UNIT         ?PR?_PCT_WRITEOSDDATABUFFERX?OSDCTRL
            CODE    6743H     0178H     UNIT         ?PR?_MONIAUDIOMIXING?COMMANDSHELL
            CODE    68BBH     016AH     UNIT         ?PR?OSDCTRL
            CODE    6A25H     0166H     UNIT         ?PR?_PCT_SHOWINDICATEICON?OSDACTION_
            CODE    6B8BH     0163H     UNIT         ?C_INITSEG
            CODE    6CEEH     0163H     UNIT         ?PR?MAIN?MAIN
            CODE    6E51H     014EH     UNIT         ?PR?_MONIHSCOMM?COMMANDSHELL
            CODE    6F9FH     0144H     UNIT         ?PR?_MONIAUDIOGAIN?COMMANDSHELL
            CODE    70E3H     0141H     UNIT         ?PR?_PCT_RECOMPENSEYHDELAY?TW28XX_VIDEO
            CODE    7224H     013AH     UNIT         ?PR?PCT_INITOSDCOLOR?OSDCTRL
            CODE    735EH     0129H     UNIT         ?PR?NED
            CODE    7487H     0124H     UNIT         ?PR?_PCT_WRITEOSDFNTX?OSDCTRL
            CODE    75ABH     0124H     UNIT         ?PR?_PCT_WRITEOSDDATABUFFERY?OSDCTRL
            CODE    76CFH     011EH     UNIT         ?PR?PRESS_CHECK?MAIN
            CODE    77EDH     011DH     UNIT         ?PR?_MONISETVIDEOFORMAT?COMMANDSHELL
            CODE    790AH     011BH     UNIT         ?PR?TW28XX_VIDEO
            CODE    7A25H     00F2H     UNIT         ?PR?_PCT_WRITEOSDFNTY?OSDCTRL
            CODE    7B17H     00EFH     UNIT         ?PR?_PCT_RUNCOMMSHELL?COMMANDSHELL
            CODE    7C06H     00E4H     UNIT         ?PR?CAMERA_MOVE?NED
            CODE    7CEAH     00DDH     UNIT         ?PR?TIMER2_INTERRUPT?TIMER
            CODE    7DC7H     00DBH     UNIT         ?PR?_ATOI?ATOI
            CODE    7EA2H     00D9H     UNIT         ?PR?COMMANDSHELL?MAIN
            CODE    7F7BH     00CFH     UNIT         ?PR?MAIN
            CODE    804AH     00CEH     UNIT         ?PR?_SET_PWM_OUTPUT?MAIN
            CODE    8118H     00C3H     UNIT         ?PR?_SETBAUDRATE?NED
            CODE    81DBH     00B8H     UNIT         ?PR?OSDACTION_
            CODE    8293H     00B6H     UNIT         ?PR?_PCT_CLEARWORDSPATHX?OSDCTRL
            CODE    8349H     00ADH     UNIT         ?PR?_SC16_COMCHECK?NED
            CODE    83F6H     00AAH     UNIT         ?PR?_PCT_FULLCOLORONOSD?OSDCTRL
            CODE    84A0H     00A3H     UNIT         ?PR?_TW2835_GET?NED
            CODE    8543H     009BH     UNIT         ?PR?_I2CWRITEDATA?NED
            CODE    85DEH     0099H     UNIT         ?PR?_PCT_SETCHANELSCALE?TW28XX_VIDEO
            CODE    8677H     0098H     UNIT         ?PR?_CHECK_STARTUP?NED
            CODE    870FH     0096H     UNIT         ?PR?CHECK_OTHER_COM?NED
            CODE    87A5H     008EH     UNIT         ?PR?PCT_VIDEOLASTMODIFY?TW28XX_VIDEO
            CODE    8833H     008CH     UNIT         ?C_C51STARTUP
            CODE    88BFH     008CH     UNIT         ?PR?_PCT_READASICBYTE?BUSCTRL
            CODE    894BH     0081H     UNIT         ?PR?_PCT_WRITEASICTABLE?BUSCTRL
            CODE    89CCH     0080H     UNIT         ?PR?SC16_INIT?NED
            CODE    8A4CH     007BH     UNIT         ?PR?_SET_CHANNEL?NED
            CODE    8AC7H     0073H     UNIT         ?PR?_BOUND_SET?NED
BL51 BANKED LINKER/LOCATER V6.22                                                      11/30/2015  19:14:20  PAGE 5


            CODE    8B3AH     0071H     UNIT         ?PR?_PCT_AUDIOMIXCTRL?TW28XX_AUDIO
            CODE    8BABH     0070H     UNIT         ?PR?_PCT_GETFIRSTSTR?COMMANDSHELL
            CODE    8C1BH     006BH     UNIT         ?PR?_PCT_AUDIOGAINCTRL?TW28XX_AUDIO
            CODE    8C86H     006AH     UNIT         ?PR?_I2CWRITEDATA2?NED
            CODE    8CF0H     0069H     UNIT         ?PR?PCT_CHECKSYSTEM?COMMANDSHELL
            CODE    8D59H     0069H     UNIT         ?PR?_GET_DATA?NED
            CODE    8DC2H     0067H     UNIT         ?PR?PCT_TW2835_INITIAL?TW2835_INIT
            CODE    8E29H     0064H     UNIT         ?PR?_PCT_WRITEASICBYTE?BUSCTRL
            CODE    8E8DH     0064H     UNIT         ?PR?_PCT_CHANGESYSTEMTYPE?TW2835_INIT
            CODE    8EF1H     0064H     UNIT         ?PR?_SETLINE?NED
            CODE    8F55H     0063H     UNIT         ?PR?GPIO_CHECK?NED
            CODE    8FB8H     0061H     UNIT         ?PR?_MONISHOWSODSTR?COMMANDSHELL
            CODE    9019H     0061H     UNIT         ?PR?CAMERA_VERSION_CHECK?MAIN
            CODE    907AH     0061H     UNIT         ?PR?_PCT_SHOWGRAPHSTRING?OSD_GRAPH
            CODE    90DBH     005EH     UNIT         ?PR?_PCT_SHOWOSDSTRING?OSDCTRL
            CODE    9139H     005AH     UNIT         ?PR?TEMP_CHECK?MAIN
            CODE    9193H     0059H     UNIT         ?PR?_PCT_SETOSDCOLOR?OSDCTRL
            CODE    91ECH     0056H     UNIT         ?PR?_MONIVIDEOMIXWIN?COMMANDSHELL
            CODE    9242H     0055H     UNIT         ?PR?VERSION_CHECK?MAIN
            CODE    9297H     0052H     UNIT         ?PR?_PCT_WRITESTABLE?BUSCTRL
            CODE    92E9H     0050H     UNIT         ?PR?_WAIT_MS?MAIN
            CODE    9339H     004DH     UNIT         ?PR?_MONIWRITEASICBYTE?COMMANDSHELL
            CODE    9386H     004CH     UNIT         ?PR?PCT_INITIALOSD?OSDACTION_
            CODE    93D2H     004BH     UNIT         ?PR?MONIREGISTERDUMP?COMMANDSHELL
            CODE    941DH     004BH     UNIT         ?PR?_PCT_DETECTVIDEOFORMAT?TW28XX_VIDEO
            CODE    9468H     004AH     UNIT         ?PR?INITIALMPU?MAIN
            CODE    94B2H     004AH     UNIT         ?PR?I2C_ACK2?NED
            CODE    94FCH     004AH     UNIT         ?PR?_SET_CAMERA_SPEED?NED
            CODE    9546H     0048H     UNIT         ?PR?_PCT_CHECKVMIXTYPE?COMMANDSHELL
            CODE    958EH     0048H     UNIT         ?PR?_MONIREADASICBYTE?COMMANDSHELL
            CODE    95D6H     0047H     UNIT         ?PR?_MONIREADPAGEBUFFER?COMMANDSHELL
            CODE    961DH     0047H     UNIT         ?PR?PCT_AUDIOACTIONFORHS?COMMANDSHELL
            CODE    9664H     0047H     UNIT         ?PR?PCT_GETVIDEOSIGNALSTATUS?OSDACTION_
            CODE    96ABH     0047H     UNIT         ?PR?_READI2CWORD?NED
            CODE    96F2H     0047H     UNIT         ?PR?SEND_CAMERA_VER?NED
            CODE    9739H     0047H     UNIT         ?PR?SENT_CAMERA_ANG?NED
            CODE    9780H     0047H     UNIT         ?PR?SENT_CAMERA_RANG?NED
            CODE    97C7H     0047H     UNIT         ?PR?SENT_DVR_VER?NED
            CODE    980EH     0046H     UNIT         ?PR?SEND_CAMERA_PRESS?NED
            CODE    9854H     0046H     UNIT         ?PR?SENT_DVR_YEAR?NED
            CODE    989AH     0045H     UNIT         ?PR?PCT_SHOWMODEICON?OSDACTION_
            CODE    98DFH     0045H     UNIT         ?PR?_GET_CAMERA_IRD?NED
            CODE    9924H     0044H     UNIT         ?C?LDIV
            CODE    9968H     0043H     UNIT         ?PR?PCT_INITIALTW2835?TW2835_INIT
            CODE    99ABH     0041H     UNIT         ?PR?I2CREADDATAWITHACK?NED
            CODE    99ECH     0041H     UNIT         ?PR?_SC16_DATA_RESET?NED
            CODE    9A2DH     0040H     UNIT         ?CO?TW28XX_AUDIO
            CODE    9A6DH     0040H     UNIT         ?PR?_PCT_WINATTRCLEAR?TW28XX_VIDEO
            CODE    9AADH     003DH     UNIT         ?PR?_PCT_STRTOCOMMCODE?COMMANDSHELL
            CODE    9AEAH     003DH     UNIT         ?CO?NED
            CODE    9B27H     003CH     UNIT         ?PR?BUSCTRL
            CODE    9B63H     003CH     UNIT         ?PR?_PCT_WINATTRCTRLY?TW28XX_VIDEO
            CODE    9B9FH     003AH     UNIT         ?PR?MONIVIDEOAUTODETECT?COMMANDSHELL
            CODE    9BD9H     003AH     UNIT         ?PR?SENT_DVR_TEMP?NED
            CODE    9C13H     0039H     UNIT         ?PR?SEND_CAMERA_TEMP?NED
            CODE    9C4CH     0038H     UNIT         ?PR?OSD_GRAPH
            CODE    9C84H     0037H     UNIT         ?PR?_MONIREADONEBUFFER?COMMANDSHELL
BL51 BANKED LINKER/LOCATER V6.22                                                      11/30/2015  19:14:20  PAGE 6


            CODE    9CBBH     0037H     UNIT         ?PR?TW28XX_AUDIO
            CODE    9CF2H     0037H     UNIT         ?PR?I2CREADDATA?NED
            CODE    9D29H     0036H     UNIT         ?PR?_PCT_ENSHOWOSDPAGE?OSDCTRL
            CODE    9D5FH     0036H     UNIT         ?PR?_PCT_AUDIOMIXMUTE?TW28XX_AUDIO
            CODE    9D95H     0035H     UNIT         ?PR?_PUTSP?MAIN
            CODE    9DCAH     0035H     UNIT         ?PR?_PCT_WINATTRCTRL?TW28XX_VIDEO
            CODE    9DFFH     0034H     UNIT         ?PR?_MONIWRITEONEBUFFER?COMMANDSHELL
            CODE    9E33H     0034H     UNIT         ?PR?_PCT_DISSHOWOSDPAGE?OSDCTRL
            CODE    9E67H     0032H     UNIT         ?PR?REPEAT_PWM_COM?NED
            CODE    9E99H     0032H     UNIT         ?PR?SC16_DATACHECK?NED
            CODE    9ECBH     0031H     UNIT         ?PR?_SC16_SENDDATA?NED
            CODE    9EFCH     0030H     UNIT         ?PR?_PCT_AUDIOSELLIVE?TW28XX_AUDIO
            CODE    9F2CH     002EH     UNIT         ?PR?_PCT_SETVIDEOFORMAT?TW28XX_VIDEO
            CODE    9F5AH     002DH     UNIT         ?PR?RS_INTERRUPT?UART
            CODE    9F87H     002DH     UNIT         ?PR?_PWM_SET?MAIN
            CODE    9FB4H     002CH     UNIT         ?PR?_CHKSTARTCOMMSHELL?MAIN
            CODE    9FE0H     002CH     UNIT         ?PR?GET_CAMERA_VER?NED
            CODE    A00CH     002CH     UNIT         ?PR?GET_CAMERA_ANG?NED
            CODE    A038H     002CH     UNIT         ?PR?GET_CAMERA_RANG?NED
            CODE    A064H     002CH     UNIT         ?PR?GET_DVR_TEMP?NED
            CODE    A090H     002CH     UNIT         ?PR?GET_DVR_VER?NED
            CODE    A0BCH     002CH     UNIT         ?PR?GET_DVR_YEAR?NED
            CODE    A0E8H     002CH     UNIT         ?PR?GET_DVR_MD?NED
            CODE    A114H     002CH     UNIT         ?PR?GET_DVR_HS?NED
            CODE    A140H     002BH     UNIT         ?PR?I2CREADDATAWITHACK2?NED
            CODE    A16BH     002BH     UNIT         ?PR?_PING?NED
            CODE    A196H     002AH     UNIT         ?PR?_BCC_CAL?NED
            CODE    A1C0H     002AH     UNIT         ?PR?_PUTS?PUTS
            CODE    A1EAH     0028H     UNIT         ?PR?ADT75_INIT?NED
            CODE    A212H     0027H     UNIT         ?PR?PUTCHAR?PUTCHAR
            CODE    A239H     0026H     UNIT         ?PR?RESETCOMMSELL?MAIN
            CODE    A25FH     0026H     UNIT         ?PR?PCT_OSDACTIONFORHS?OSDACTION_
            CODE    A285H     0026H     UNIT         ?PR?_PCT_WINPOPUPCTRL?TW28XX_VIDEO
            CODE    A2ABH     0025H     UNIT         ?PR?I2CREADDATA2?NED
            CODE    A2D0H     0025H     UNIT         ?PR?_READI2C2?NED
            CODE    A2F5H     0021H     UNIT         ?PR?_ENABLETRANSMIT?NED
            CODE    A316H     0020H     UNIT         ?CO?OSDACTION_
            CODE    A336H     0020H     UNIT         ?PR?_ADC_READ?NED
            CODE    A356H     001FH     UNIT         ?PR?_PCT_SETOSDDRAWPAGE?OSDCTRL
            CODE    A375H     001FH     UNIT         ?PR?_READI2C?NED
            CODE    A394H     001EH     UNIT         ?PR?_WRITEI2CWORD?NED
            CODE    A3B2H     001DH     UNIT         ?PR?INITIALTIMER2?TIMER
            CODE    A3CFH     001AH     UNIT         ?PR?_PCT_CLEAROSDPAGEX?OSDCTRL
            CODE    A3E9H     0019H     UNIT         ?PR?RS_RX?UART
            CODE    A402H     0019H     UNIT         ?PR?TW2835_INIT
            CODE    A41BH     0018H     UNIT         ?PR?_SET_INT?NED
            CODE    A433H     0016H     UNIT         ?PR?INITIALUART?UART
            CODE    A449H     0016H     UNIT         ?PR?_MONIHSCOMMSJMODE?COMMANDSHELL
            CODE    A45FH     0016H     UNIT         ?PR?_PARITY?NED
            CODE    A475H     0015H     UNIT         ?PR?_STRLEN?STRLEN
            CODE    A48AH     0014H     UNIT         ?PR?_MONIAUDIOLIVE?COMMANDSHELL
            CODE    A49EH     0014H     UNIT         ?PR?_PCT_SETYVIDEOMIXING?TW28XX_VIDEO
            CODE    A4B2H     0014H     UNIT         ?PR?I2C_100KHZ?NED
            CODE    A4C6H     0014H     UNIT         ?PR?_WRITEI2C?NED
            CODE    A4DAH     0014H     UNIT         ?PR?GETCHAR?GETCHAR
            CODE    A4EEH     0014H     UNIT         ?PR?_ISSPACE?ISSPACE
            CODE    A502H     0013H     UNIT         ?PR?MONIHSCOMMVERSION?COMMANDSHELL
BL51 BANKED LINKER/LOCATER V6.22                                                      11/30/2015  19:14:20  PAGE 7


            CODE    A515H     0013H     UNIT         ?PR?PCT_TW2835RESETN?TW2835_INIT
            CODE    A528H     0013H     UNIT         ?PR?_WRITEI2C2?NED
            CODE    A53BH     0012H     UNIT         ?PR?_MONIYVIDEOMIX?COMMANDSHELL
            CODE    A54DH     0012H     UNIT         ?PR?I2CSTART?NED
            CODE    A55FH     0012H     UNIT         ?PR?I2CSTART2?NED
            CODE    A571H     0010H     UNIT         ?PR?RS_RXREADY?UART
            CODE    A581H     0010H     UNIT         ?PR?I2C_ACK?NED
            CODE    A591H     0010H     UNIT         ?PR?_POWER_ONOFF?NED
            CODE    A5A1H     000FH     UNIT         ?PR?MONIAUDIOMUTE?COMMANDSHELL
            CODE    A5B0H     000FH     UNIT         ?PR?PWM_INIT?MAIN
            CODE    A5BFH     000FH     UNIT         ?PR?I2CDELAY2?NED
            CODE    A5CEH     000FH     UNIT         ?PR?_SENT_CAMERA_IRD?NED
            CODE    A5DDH     000FH     UNIT         ?PR?_ISDIGIT?ISDIGIT
            CODE    A5ECH     000EH     UNIT         ?PR?_FLUSH?NED
            CODE    A5FAH     000DH     UNIT         ?PR?TIMER0_INTERRUPT?TIMER
            CODE    A607H     000DH     UNIT         ?PR?I2CSTOP?NED
            CODE    A614H     000DH     UNIT         ?PR?I2CSTOP2?NED
            CODE    A621H     000DH     UNIT         ?PR?_READBYTE?NED
            CODE    A62EH     000CH     UNIT         ?PR?INITIALCOMMSHELL?MAIN
            CODE    A63AH     000BH     UNIT         ?PR?UART
            CODE    A645H     000AH     UNIT         ?PR?_PEEK?NED
            CODE    A64FH     000AH     UNIT         ?PR?_GETKEY?_GETKEY
            CODE    A659H     0009H     UNIT         ?PR?NEWLINE?MAIN
            CODE    A662H     0009H     UNIT         ?PR?_PCT_FLASHOSDCTRL?MAIN
            CODE    A66BH     0009H     UNIT         ?PR?INITIALTIMER0?TIMER
            CODE    A674H     0009H     UNIT         ?PR?_GPIOSETPORTMODE?NED
            CODE    A67DH     0009H     UNIT         ?PR?_GPIOSETPORTSTATE?NED
            CODE    A686H     0009H     UNIT         ?PR?_WRITEBYTE?NED
            CODE    A68FH     0009H     UNIT         ?PR?MCTRL_SET?NED
            CODE    A698H     0008H     UNIT         ?PR?PCT_ENFALSHVLOSS?OSDACTION_
            CODE    A6A0H     0008H     UNIT         ?PR?GETCHAR?UNGETCHAR
            CODE    A6A8H     0006H     UNIT         ?PR?PCT_CLEARGRAPHATTR?OSD_GRAPH
            CODE    A6AEH     0006H     UNIT         ?PR?_PCT_PRESETGRAPHATTR?OSD_GRAPH
            CODE    A6B4H     0006H     UNIT         ?PR?_COMMAND_CHECK?NED
            CODE    A6BAH     0006H     UNIT         ?PR?_GPIOGETPORTSTATE?NED
            CODE    A6C0H     0006H     UNIT         ?PR?_FIFOAVAILABLEDATA?NED
            CODE    A6C6H     0006H     UNIT         ?PR?_FIFOAVAILABLESPACE?NED
            CODE    A6CCH     0003H     UNIT         ?PR?_PCT_PRESETFOREGROUNDCOLOR?OSDCTRL
            CODE    A6CFH     0003H     UNIT         ?PR?_PCT_PRESETBACKGROUNDCOLOR?OSDCTRL
            CODE    A6D2H     0001H     UNIT         ?PR?PTC_SWITCHTOI2CMODE?BUSCTRL
            CODE    A6D3H     0001H     UNIT         ?PR?PCT_SENDACK?COMMANDSHELL
            CODE    A6D4H     0001H     UNIT         ?PR?I2CDELAY?NED
            CODE    A6D5H     0001H     UNIT         ?PR?SENT_DVR_MDR?NED
            CODE    A6D6H     0001H     UNIT         ?PR?SENT_DVR_HS?NED



OVERLAY MAP OF MODULE:   .\OBJ\NED_5MCMOS_v0_a_0_XXXX_20151130 (?C_STARTUP)


SEGMENT                                            BIT_GROUP          DATA_GROUP          XDATA_GROUP
  +--> CALLED SEGMENT                           START    LENGTH     START    LENGTH     START    LENGTH
-------------------------------------------------------------------------------------------------------
?C_C51STARTUP                                   -----    -----      -----    -----      -----    -----
  +--> ?PR?MAIN?MAIN
  +--> ?C_INITSEG

BL51 BANKED LINKER/LOCATER V6.22                                                      11/30/2015  19:14:20  PAGE 8


?PR?MAIN?MAIN                                   -----    -----      -----    -----      0000H    0006H
  +--> ?PR?MAIN
  +--> ?PR?INITIALMPU?MAIN
  +--> ?PR?PWM_INIT?MAIN
  +--> ?PR?INITIALCOMMSHELL?MAIN
  +--> ?PR?RESETCOMMSELL?MAIN
  +--> ?PR?_POWER_ONOFF?NED
  +--> ?PR?SC16_INIT?NED
  +--> ?PR?_MONITOR_SET?MAIN
  +--> ?PR?_GPIOGETPORTSTATE?NED
  +--> ?PR?COMMANDSHELL?MAIN
  +--> ?PR?_PCT_RUNCOMMSHELL?COMMANDSHELL
  +--> ?PR?PCT_CHECKSYSTEM?COMMANDSHELL
  +--> ?PR?RS_RXREADY?UART
  +--> ?PR?PCT_GETVIDEOSIGNALSTATUS?OSDACTION_
  +--> ?PR?GPIO_CHECK?NED
  +--> ?PR?CAMERA_MOVE?NED
  +--> ?PR?_SC16_DATA_RESET?NED
  +--> ?PR?SC16_DATACHECK?NED
  +--> ?PR?_SET_CAMERA_SPEED?NED

?PR?INITIALMPU?MAIN                             -----    -----      -----    -----      -----    -----
  +--> ?PR?INITIALUART?UART
  +--> ?PR?INITIALTIMER0?TIMER
  +--> ?PR?INITIALTIMER2?TIMER

?PR?RESETCOMMSELL?MAIN                          -----    -----      -----    -----      -----    -----
  +--> ?PR?MAIN

?PR?_POWER_ONOFF?NED                            -----    -----      -----    -----      -----    -----
  +--> ?PR?_WAIT_MS?MAIN

?PR?_WAIT_MS?MAIN                               -----    -----      -----    -----      01D5H    0004H

?PR?SC16_INIT?NED                               -----    -----      -----    -----      0006H    0001H
  +--> ?PR?_WAIT_MS?MAIN
  +--> ?PR?NED
  +--> ?PR?_RESETDEVICE?NED
  +--> ?PR?_SETBAUDRATE?NED
  +--> ?PR?_SETLINE?NED
  +--> ?PR?_WRITEI2C?NED
  +--> ?PR?_GPIOSETPORTMODE?NED
  +--> ?PR?_GPIOSETPORTSTATE?NED

?PR?NED                                         -----    -----      -----    -----      -----    -----
  +--> ?PR?I2CDELAY2?NED

?PR?_RESETDEVICE?NED                            -----    -----      -----    -----      -----    -----
  +--> ?PR?_READI2C?NED
  +--> ?PR?_WRITEI2C?NED

?PR?_READI2C?NED                                -----    -----      -----    -----      -----    -----
  +--> ?PR?I2CSTART?NED
  +--> ?PR?_I2CWRITEDATA?NED
  +--> ?PR?NED
  +--> ?PR?I2CREADDATA?NED
  +--> ?PR?I2CSTOP?NED
BL51 BANKED LINKER/LOCATER V6.22                                                      11/30/2015  19:14:20  PAGE 9



?PR?I2CSTART?NED                                -----    -----      -----    -----      -----    -----
  +--> ?PR?I2CDELAY?NED

?PR?I2CDELAY?NED                                -----    -----      -----    -----      01DDH    0002H

?PR?_I2CWRITEDATA?NED                           -----    -----      -----    -----      -----    -----
  +--> ?PR?NED
  +--> ?PR?I2CDELAY?NED

?PR?I2CREADDATA?NED                             -----    -----      -----    -----      -----    -----
  +--> ?PR?I2CDELAY?NED

?PR?I2CSTOP?NED                                 -----    -----      -----    -----      -----    -----
  +--> ?PR?I2CDELAY?NED

?PR?_WRITEI2C?NED                               -----    -----      -----    -----      -----    -----
  +--> ?PR?I2CSTART?NED
  +--> ?PR?_I2CWRITEDATA?NED
  +--> ?PR?NED
  +--> ?PR?I2CSTOP?NED

?PR?_SETBAUDRATE?NED                            -----    -----      -----    -----      0007H    000AH
  +--> ?PR?_READI2C?NED
  +--> ?PR?_WRITEI2C?NED

?PR?_SETLINE?NED                                -----    -----      -----    -----      0007H    0004H
  +--> ?PR?_READI2C?NED
  +--> ?PR?_WRITEI2C?NED

?PR?_GPIOSETPORTMODE?NED                        -----    -----      -----    -----      -----    -----
  +--> ?PR?_WRITEI2C?NED

?PR?_GPIOSETPORTSTATE?NED                       -----    -----      -----    -----      -----    -----
  +--> ?PR?_WRITEI2C?NED

?PR?_MONITOR_SET?MAIN                           -----    -----      -----    -----      0006H    01CFH
  +--> ?CO?MAIN
  +--> ?PR?MAIN
  +--> ?PR?PCT_INITIALTW2835?TW2835_INIT
  +--> ?PR?_PCT_RUNCOMMSHELL?COMMANDSHELL
  +--> ?PR?_PCT_WRITEASICBYTE?BUSCTRL
  +--> ?PR?_BOUND_SET?NED

?PR?PCT_INITIALTW2835?TW2835_INIT               -----    -----      -----    -----      -----    -----
  +--> ?PR?PCT_TW2835RESETN?TW2835_INIT
  +--> ?PR?_PCT_READASICBYTE?BUSCTRL
  +--> ?PR?_PCT_DETECTVIDEOFORMAT?TW28XX_VIDEO
  +--> ?PR?_WAIT_MS?MAIN
  +--> ?PR?PCT_TW2835_INITIAL?TW2835_INIT
  +--> ?PR?PCT_INITIALOSD?OSDACTION_

?PR?_PCT_READASICBYTE?BUSCTRL                   -----    -----      -----    -----      01F2H    0004H
  +--> ?PR?MCTRL_SET?NED
  +--> ?PR?BUSCTRL

?PR?_PCT_DETECTVIDEOFORMAT?TW28XX_VIDEO         -----    -----      -----    -----      01D5H    0002H
BL51 BANKED LINKER/LOCATER V6.22                                                      11/30/2015  19:14:20  PAGE 10


  +--> ?PR?_PCT_READASICBYTE?BUSCTRL

?PR?PCT_TW2835_INITIAL?TW2835_INIT              -----    -----      -----    -----      01D5H    0002H
  +--> ?PR?TW2835_INIT
  +--> ?CO?TW2835_INIT
  +--> ?PR?_PCT_WRITEASICTABLE?BUSCTRL

?PR?TW2835_INIT                                 -----    -----      -----    -----      -----    -----
  +--> ?CO?TW2835_INIT

?PR?_PCT_WRITEASICTABLE?BUSCTRL                 -----    -----      -----    -----      01D7H    0007H
  +--> ?PR?BUSCTRL
  +--> ?PR?MCTRL_SET?NED

?PR?PCT_INITIALOSD?OSDACTION_                   -----    -----      002FH    0001H      -----    -----
  +--> ?PR?PCT_INITOSDCOLOR?OSDCTRL
  +--> ?PR?PCT_CLEARGRAPHATTR?OSD_GRAPH
  +--> ?PR?_PCT_PRESETFOREGROUNDCOLOR?OSDCTRL
  +--> ?PR?_PCT_PRESETBACKGROUNDCOLOR?OSDCTRL
  +--> ?PR?_PCT_ENSHOWOSDPAGE?OSDCTRL
  +--> ?PR?_PCT_SETOSDDRAWPAGE?OSDCTRL
  +--> ?PR?_PCT_FULLCOLORONOSD?OSDCTRL

?PR?PCT_INITOSDCOLOR?OSDCTRL                    -----    -----      -----    -----      -----    -----
  +--> ?PR?_PCT_WRITEASICBYTE?BUSCTRL
  +--> ?PR?OSDCTRL
  +--> ?PR?_PCT_SETOSDCOLOR?OSDCTRL

?PR?_PCT_WRITEASICBYTE?BUSCTRL                  -----    -----      -----    -----      01F2H    0004H
  +--> ?PR?BUSCTRL
  +--> ?PR?MCTRL_SET?NED

?PR?OSDCTRL                                     -----    -----      -----    -----      -----    -----
  +--> ?CO?OSDCTRL

?PR?_PCT_SETOSDCOLOR?OSDCTRL                    -----    -----      -----    -----      01D5H    0005H
  +--> ?PR?_PCT_WRITEASICBYTE?BUSCTRL

?PR?_PCT_ENSHOWOSDPAGE?OSDCTRL                  -----    -----      -----    -----      01DDH    0001H
  +--> ?PR?OSDCTRL
  +--> ?PR?_PCT_WRITEASICBYTE?BUSCTRL
  +--> ?PR?_PCT_READASICBYTE?BUSCTRL

?PR?_PCT_SETOSDDRAWPAGE?OSDCTRL                 -----    -----      -----    -----      01DDH    0001H
  +--> ?PR?OSDCTRL
  +--> ?PR?_PCT_READASICBYTE?BUSCTRL
  +--> ?PR?_PCT_WRITEASICBYTE?BUSCTRL

?PR?_PCT_FULLCOLORONOSD?OSDCTRL                 -----    -----      -----    -----      01DDH    0006H
  +--> ?PR?OSDCTRL
  +--> ?PR?_PCT_WRITEASICBYTE?BUSCTRL
  +--> ?PR?_PCT_READASICBYTE?BUSCTRL

?PR?_PCT_RUNCOMMSHELL?COMMANDSHELL              -----    -----      -----    -----      01D5H    0008H
  +--> ?PR?COMMANDSHELL
  +--> ?PR?_PCT_GETFIRSTSTR?COMMANDSHELL
  +--> ?PR?_PCT_STRTOCOMMCODE?COMMANDSHELL
BL51 BANKED LINKER/LOCATER V6.22                                                      11/30/2015  19:14:20  PAGE 11


  +--> ?CO?COMMANDSHELL
  +--> ?PR?_MONIWRITEASICBYTE?COMMANDSHELL
  +--> ?PR?_MONIYVIDEOMIX?COMMANDSHELL
  +--> ?PR?_MONIHSCOMM?COMMANDSHELL
  +--> ?PR?PCT_OSDACTIONFORHS?OSDACTION_
  +--> ?PR?_PCT_FLASHOSDCTRL?MAIN
  +--> ?PR?_MONIHSCOMMSJMODE?COMMANDSHELL
  +--> ?PR?REPEAT_PWM_COM?NED
  +--> ?PR?_PWM_SET?MAIN

?PR?COMMANDSHELL                                -----    -----      -----    -----      -----    -----
  +--> ?CO?COMMANDSHELL
  +--> ?PR?PCT_SENDACK?COMMANDSHELL

?PR?_PCT_GETFIRSTSTR?COMMANDSHELL               -----    -----      -----    -----      01DDH    0006H
  +--> ?PR?COMMANDSHELL

?PR?_PCT_STRTOCOMMCODE?COMMANDSHELL             -----    -----      002FH    0002H      01DDH    0003H
  +--> ?PR?COMMANDSHELL

?PR?_MONIWRITEASICBYTE?COMMANDSHELL             -----    -----      002FH    0004H      -----    -----
  +--> ?PR?COMMANDSHELL
  +--> ?CO?COMMANDSHELL
  +--> ?PR?SCANF?SCANF
  +--> ?PR?_PCT_WRITEASICBYTE?BUSCTRL

?PR?SCANF?SCANF                                 0023H.0  0000H.6    0033H    0005H      01DDH    002EH
  +--> ?PR?GETCHAR?UNGETCHAR
  +--> ?PR?_ISSPACE?ISSPACE
  +--> ?PR?GETCHAR?GETCHAR

?PR?GETCHAR?GETCHAR                             -----    -----      -----    -----      -----    -----
  +--> ?PR?_GETKEY?_GETKEY
  +--> ?PR?PUTCHAR?PUTCHAR

?PR?_MONIYVIDEOMIX?COMMANDSHELL                 -----    -----      002FH    0001H      -----    -----
  +--> ?PR?COMMANDSHELL
  +--> ?PR?SCANF?SCANF
  +--> ?PR?_PCT_SETYVIDEOMIXING?TW28XX_VIDEO

?PR?_PCT_SETYVIDEOMIXING?TW28XX_VIDEO           -----    -----      -----    -----      -----    -----
  +--> ?CO?TW28XX_VIDEO
  +--> ?PR?_PCT_WRITESTABLE?BUSCTRL

?PR?_PCT_WRITESTABLE?BUSCTRL                    -----    -----      -----    -----      01E4H    0003H
  +--> ?PR?BUSCTRL
  +--> ?PR?_PCT_READASICBYTE?BUSCTRL
  +--> ?PR?_PCT_WRITEASICBYTE?BUSCTRL

?PR?_MONIHSCOMM?COMMANDSHELL                    -----    -----      002FH    0003H      -----    -----
  +--> ?PR?COMMANDSHELL
  +--> ?CO?COMMANDSHELL
  +--> ?PR?SCANF?SCANF
  +--> ?PR?_PCT_WINATTRCTRLY?TW28XX_VIDEO
  +--> ?PR?_PCT_RECOMPENSEYHDELAY?TW28XX_VIDEO
  +--> ?PR?_PCT_SETVIDEOHDELAY?TW28XX_VIDEO
  +--> ?PR?_PCT_SETXVIDEOMIXING?TW28XX_VIDEO
BL51 BANKED LINKER/LOCATER V6.22                                                      11/30/2015  19:14:20  PAGE 12


  +--> ?PR?_PCT_WINATTRCTRL?TW28XX_VIDEO
  +--> ?PR?_PCT_FLASHOSDCTRL?MAIN
  +--> ?PR?_PCT_CHECKVMIXTYPE?COMMANDSHELL
  +--> ?PR?_PCT_DISSHOWOSDPAGE?OSDCTRL
  +--> ?PR?_PCT_CLEAROSDPAGEX?OSDCTRL
  +--> ?PR?PCT_SHOWMODEICON?OSDACTION_
  +--> ?PR?_PCT_OSD_ACTIONPTHX?OSDACTION_

?PR?_PCT_WINATTRCTRLY?TW28XX_VIDEO              -----    -----      -----    -----      01DDH    0003H
  +--> ?PR?TW28XX_VIDEO
  +--> ?PR?_PCT_READASICBYTE?BUSCTRL
  +--> ?PR?_PCT_WRITEASICBYTE?BUSCTRL

?PR?TW28XX_VIDEO                                -----    -----      -----    -----      -----    -----
  +--> ?CO?TW28XX_VIDEO

?PR?_PCT_RECOMPENSEYHDELAY?TW28XX_VIDEO         -----    -----      -----    -----      01DDH    0003H
  +--> ?PR?TW28XX_VIDEO
  +--> ?PR?_PCT_READASICBYTE?BUSCTRL
  +--> ?CO?TW28XX_VIDEO
  +--> ?PR?_PCT_WRITEASICBYTE?BUSCTRL

?PR?_PCT_SETVIDEOHDELAY?TW28XX_VIDEO            -----    -----      -----    -----      01DDH    0008H
  +--> ?PR?TW28XX_VIDEO
  +--> ?PR?_PCT_READASICBYTE?BUSCTRL
  +--> ?PR?_PCT_WRITEASICBYTE?BUSCTRL
  +--> ?CO?TW28XX_VIDEO

?PR?_PCT_SETXVIDEOMIXING?TW28XX_VIDEO           -----    -----      -----    -----      01DDH    0007H
  +--> ?PR?TW28XX_VIDEO
  +--> ?PR?_PCT_WRITEASICBYTE?BUSCTRL
  +--> ?CO?TW28XX_VIDEO
  +--> ?PR?_PCT_SETCHANELSCALE?TW28XX_VIDEO
  +--> ?PR?_PCT_WRITESTABLE?BUSCTRL

?PR?_PCT_SETCHANELSCALE?TW28XX_VIDEO            -----    -----      -----    -----      01E4H    0008H
  +--> ?PR?TW28XX_VIDEO
  +--> ?CO?TW28XX_VIDEO
  +--> ?PR?_PCT_WRITEASICBYTE?BUSCTRL

?PR?_PCT_WINATTRCTRL?TW28XX_VIDEO               -----    -----      -----    -----      01DDH    0003H
  +--> ?PR?TW28XX_VIDEO
  +--> ?PR?_PCT_READASICBYTE?BUSCTRL
  +--> ?PR?_PCT_WRITEASICBYTE?BUSCTRL

?PR?_PCT_CHECKVMIXTYPE?COMMANDSHELL             -----    -----      0032H    0001H      -----    -----
  +--> ?PR?COMMANDSHELL

?PR?_PCT_DISSHOWOSDPAGE?OSDCTRL                 -----    -----      -----    -----      01DDH    0003H
  +--> ?PR?OSDCTRL
  +--> ?PR?_PCT_READASICBYTE?BUSCTRL
  +--> ?PR?_PCT_WRITEASICBYTE?BUSCTRL

?PR?_PCT_CLEAROSDPAGEX?OSDCTRL                  -----    -----      -----    -----      -----    -----
  +--> ?PR?_PCT_SETOSDDRAWPAGE?OSDCTRL
  +--> ?PR?_PCT_PRESETBACKGROUNDCOLOR?OSDCTRL
  +--> ?PR?_PCT_FULLCOLORONOSD?OSDCTRL
BL51 BANKED LINKER/LOCATER V6.22                                                      11/30/2015  19:14:20  PAGE 13



?PR?PCT_SHOWMODEICON?OSDACTION_                 -----    -----      -----    -----      -----    -----
  +--> ?PR?_PCT_SETOSDDRAWPAGE?OSDCTRL
  +--> ?PR?OSDACTION_
  +--> ?CO?OSDACTION_
  +--> ?PR?_PCT_SHOWGRAPHSTRING?OSD_GRAPH
  +--> ?PR?_PCT_PRESETBACKGROUNDCOLOR?OSDCTRL
  +--> ?PR?_PCT_PRESETFOREGROUNDCOLOR?OSDCTRL

?PR?OSDACTION_                                  -----    -----      -----    -----      -----    -----
  +--> ?CO?OSDACTION_

?PR?_PCT_SHOWGRAPHSTRING?OSD_GRAPH              -----    -----      -----    -----      01E0H    0007H
  +--> ?PR?OSD_GRAPH
  +--> ?PR?_STRLEN?STRLEN
  +--> ?PR?_PCT_OSD16X16GRAPHX?OSD_GRAPH
  +--> ?PR?PTC_SWITCHTOI2CMODE?BUSCTRL

?PR?_PCT_OSD16X16GRAPHX?OSD_GRAPH               -----    -----      -----    -----      01E7H    000BH
  +--> ?CO?OSD_GRAPH
  +--> ?PR?OSD_GRAPH
  +--> ?PR?_PCT_WRITEASICBYTE?BUSCTRL
  +--> ?PR?_PCT_READASICBYTE?BUSCTRL

?PR?_PCT_OSD_ACTIONPTHX?OSDACTION_              -----    -----      -----    -----      01DDH    0003H
  +--> ?PR?OSDACTION_
  +--> ?PR?_PCT_PRESETFOREGROUNDCOLOR?OSDCTRL
  +--> ?PR?_PCT_PRESETBACKGROUNDCOLOR?OSDCTRL
  +--> ?PR?_PCT_SHOWGRAPHSTRING?OSD_GRAPH

?PR?PCT_OSDACTIONFORHS?OSDACTION_               -----    -----      -----    -----      -----    -----
  +--> ?PR?_PCT_SETOSDDRAWPAGE?OSDCTRL
  +--> ?PR?_PCT_SHOWMIRRORICON?OSDACTION_
  +--> ?PR?_PCT_SHOWINDICATEICON?OSDACTION_
  +--> ?PR?PCT_ENFALSHVLOSS?OSDACTION_
  +--> ?PR?_PCT_ENSHOWOSDPAGE?OSDCTRL

?PR?_PCT_SHOWMIRRORICON?OSDACTION_              -----    -----      -----    -----      01DDH    0003H
  +--> ?PR?OSDACTION_
  +--> ?PR?_PCT_PRESETFOREGROUNDCOLOR?OSDCTRL
  +--> ?PR?_PCT_CLEARWORDSPATHX?OSDCTRL
  +--> ?PR?_PCT_SHOWGRAPHSTRING?OSD_GRAPH
  +--> ?CO?OSDACTION_

?PR?_PCT_CLEARWORDSPATHX?OSDCTRL                -----    -----      -----    -----      01E0H    0007H
  +--> ?PR?OSDCTRL
  +--> ?PR?_PCT_WRITEASICBYTE?BUSCTRL
  +--> ?PR?_PCT_READASICBYTE?BUSCTRL

?PR?_PCT_SHOWINDICATEICON?OSDACTION_            -----    -----      002FH    0001H      01DDH    0003H
  +--> ?PR?OSDACTION_
  +--> ?PR?_PCT_PRESETFOREGROUNDCOLOR?OSDCTRL
  +--> ?PR?_PCT_SHOWGRAPHSTRING?OSD_GRAPH
  +--> ?PR?_PCT_CLEARWORDSPATHX?OSDCTRL
  +--> ?CO?OSDACTION_

?PR?_MONIHSCOMMSJMODE?COMMANDSHELL              -----    -----      -----    -----      -----    -----
BL51 BANKED LINKER/LOCATER V6.22                                                      11/30/2015  19:14:20  PAGE 14


  +--> ?PR?COMMANDSHELL
  +--> ?CO?COMMANDSHELL
  +--> ?PR?SCANF?SCANF

?PR?REPEAT_PWM_COM?NED                          -----    -----      -----    -----      -----    -----
  +--> ?PR?_WRITEBYTE?NED

?PR?_WRITEBYTE?NED                              -----    -----      -----    -----      -----    -----
  +--> ?PR?_WRITEI2C?NED

?PR?_PWM_SET?MAIN                               -----    -----      -----    -----      -----    -----
  +--> ?PR?MAIN
  +--> ?PR?_SET_PWM_OUTPUT?MAIN

?PR?_SET_PWM_OUTPUT?MAIN                        -----    -----      -----    -----      01DDH    0008H
  +--> ?CO?MAIN
  +--> ?PR?MAIN

?PR?_BOUND_SET?NED                              -----    -----      -----    -----      01D5H    0004H
  +--> ?CO?NED
  +--> ?PR?NED
  +--> ?PR?_PCT_WRITEASICBYTE?BUSCTRL

?PR?_GPIOGETPORTSTATE?NED                       -----    -----      -----    -----      -----    -----
  +--> ?PR?_READI2C?NED

?PR?COMMANDSHELL?MAIN                           -----    -----      002FH    0001H      -----    -----
  +--> ?PR?RS_RXREADY?UART
  +--> ?PR?RS_RX?UART
  +--> ?PR?MAIN
  +--> ?PR?_SC16_BCC_CHECK?NED
  +--> ?PR?RESETCOMMSELL?MAIN

?PR?RS_RX?UART                                  -----    -----      -----    -----      -----    -----
  +--> ?PR?UART

?PR?_SC16_BCC_CHECK?NED                         -----    -----      -----    -----      0006H    0006H
  +--> ?PR?NED
  +--> ?PR?_RS_TX?UART
  +--> ?PR?_WRITEBYTE?NED
  +--> ?PR?SEND_CAMERA_TEMP?NED
  +--> ?PR?SEND_CAMERA_PRESS?NED
  +--> ?PR?SENT_CAMERA_ANG?NED
  +--> ?PR?SENT_CAMERA_RANG?NED
  +--> ?PR?_SENT_CAMERA_IRD?NED
  +--> ?PR?SENT_DVR_TEMP?NED
  +--> ?PR?VERSION_CHECK?MAIN
  +--> ?PR?CAMERA_VERSION_CHECK?MAIN
  +--> ?PR?CHECK_OTHER_COM?NED
  +--> ?PR?_SC16_SENDDATA?NED

?PR?SEND_CAMERA_TEMP?NED                        -----    -----      -----    -----      000CH    0001H
  +--> ?PR?NED
  +--> ?PR?_BCC_CAL?NED
  +--> ?PR?_RS_TX?UART

?PR?_BCC_CAL?NED                                -----    -----      -----    -----      000DH    0002H
BL51 BANKED LINKER/LOCATER V6.22                                                      11/30/2015  19:14:20  PAGE 15



?PR?SEND_CAMERA_PRESS?NED                       -----    -----      -----    -----      000CH    0001H
  +--> ?PR?NED
  +--> ?PR?_BCC_CAL?NED
  +--> ?PR?_RS_TX?UART

?PR?SENT_CAMERA_ANG?NED                         -----    -----      -----    -----      000CH    0001H
  +--> ?PR?NED
  +--> ?PR?_BCC_CAL?NED
  +--> ?PR?_RS_TX?UART

?PR?SENT_CAMERA_RANG?NED                        -----    -----      -----    -----      000CH    0001H
  +--> ?PR?NED
  +--> ?PR?_BCC_CAL?NED
  +--> ?PR?_RS_TX?UART

?PR?_SENT_CAMERA_IRD?NED                        -----    -----      -----    -----      000CH    0003H
  +--> ?PR?_RS_TX?UART

?PR?SENT_DVR_TEMP?NED                           -----    -----      -----    -----      000CH    0001H
  +--> ?PR?NED
  +--> ?PR?_BCC_CAL?NED
  +--> ?PR?_RS_TX?UART

?PR?VERSION_CHECK?MAIN                          -----    -----      -----    -----      000CH    0001H
  +--> ?PR?MAIN
  +--> ?PR?_RS_TX?UART

?PR?CAMERA_VERSION_CHECK?MAIN                   -----    -----      -----    -----      000CH    0001H
  +--> ?PR?MAIN
  +--> ?PR?_RS_TX?UART

?PR?CHECK_OTHER_COM?NED                         -----    -----      -----    -----      -----    -----
  +--> ?PR?_RS_TX?UART

?PR?_SC16_SENDDATA?NED                          -----    -----      -----    -----      000CH    0002H
  +--> ?PR?_WRITEBYTE?NED

?PR?PCT_CHECKSYSTEM?COMMANDSHELL                -----    -----      -----    -----      -----    -----
  +--> ?PR?_PCT_DETECTVIDEOFORMAT?TW28XX_VIDEO
  +--> ?PR?_PCT_ENSHOWOSDPAGE?OSDCTRL
  +--> ?PR?_PCT_CHANGESYSTEMTYPE?TW2835_INIT
  +--> ?PR?_PCT_RECOMPENSEYHDELAY?TW28XX_VIDEO
  +--> ?PR?COMMANDSHELL
  +--> ?PR?_PCT_SETVIDEOHDELAY?TW28XX_VIDEO
  +--> ?PR?_PCT_SETXVIDEOMIXING?TW28XX_VIDEO
  +--> ?PR?_PCT_CLEAROSDPAGEX?OSDCTRL
  +--> ?PR?PCT_SHOWMODEICON?OSDACTION_
  +--> ?PR?_PCT_OSD_ACTIONPTHX?OSDACTION_
  +--> ?PR?PCT_OSDACTIONFORHS?OSDACTION_

?PR?_PCT_CHANGESYSTEMTYPE?TW2835_INIT           -----    -----      -----    -----      0006H    0002H
  +--> ?PR?TW2835_INIT
  +--> ?CO?TW2835_INIT
  +--> ?PR?_PCT_WRITEASICTABLE?BUSCTRL

?PR?PCT_GETVIDEOSIGNALSTATUS?OSDACTION_         -----    -----      -----    -----      -----    -----
BL51 BANKED LINKER/LOCATER V6.22                                                      11/30/2015  19:14:20  PAGE 16


  +--> ?PR?_PCT_READASICBYTE?BUSCTRL
  +--> ?PR?_PCT_WRITEASICBYTE?BUSCTRL
  +--> ?PR?_PCT_PRESETFOREGROUNDCOLOR?OSDCTRL
  +--> ?PR?_PCT_PRESETGRAPHATTR?OSD_GRAPH
  +--> ?PR?PCT_CLEARGRAPHATTR?OSD_GRAPH

?PR?GPIO_CHECK?NED                              -----    -----      -----    -----      0006H    0002H
  +--> ?PR?_GPIOGETPORTSTATE?NED

?PR?CAMERA_MOVE?NED                             -----    -----      -----    -----      0006H    000DH
  +--> ?CO?NED
  +--> ?PR?NED
  +--> ?PR?_WRITEBYTE?NED

?PR?_SC16_DATA_RESET?NED                        -----    -----      -----    -----      -----    -----
  +--> ?PR?TEMP_CHECK?MAIN
  +--> ?PR?PRESS_CHECK?MAIN
  +--> ?PR?GET_CAMERA_ANG?NED
  +--> ?PR?GET_CAMERA_RANG?NED
  +--> ?PR?GET_DVR_TEMP?NED
  +--> ?PR?GET_CAMERA_VER?NED

?PR?TEMP_CHECK?MAIN                             -----    -----      -----    -----      -----    -----
  +--> ?PR?_READI2CWORD?NED

?PR?_READI2CWORD?NED                            -----    -----      -----    -----      0006H    0002H
  +--> ?PR?I2CSTART?NED
  +--> ?PR?_I2CWRITEDATA?NED
  +--> ?PR?I2CREADDATAWITHACK?NED
  +--> ?PR?I2CREADDATA?NED
  +--> ?PR?I2CSTOP?NED

?PR?I2CREADDATAWITHACK?NED                      -----    -----      -----    -----      -----    -----
  +--> ?PR?I2CDELAY?NED

?PR?PRESS_CHECK?MAIN                            -----    -----      -----    -----      0006H    0007H
  +--> ?PR?MAIN
  +--> ?PR?_ADC_READ?NED

?PR?GET_CAMERA_ANG?NED                          -----    -----      -----    -----      -----    -----
  +--> ?PR?_WRITEBYTE?NED

?PR?GET_CAMERA_RANG?NED                         -----    -----      -----    -----      -----    -----
  +--> ?PR?_WRITEBYTE?NED

?PR?GET_DVR_TEMP?NED                            -----    -----      -----    -----      -----    -----
  +--> ?PR?_WRITEBYTE?NED

?PR?GET_CAMERA_VER?NED                          -----    -----      -----    -----      -----    -----
  +--> ?PR?_WRITEBYTE?NED

?PR?SC16_DATACHECK?NED                          -----    -----      -----    -----      0006H    0003H
  +--> ?PR?_SC16_SENDDATASELECT?NED

?PR?_SC16_SENDDATASELECT?NED                    -----    -----      -----    -----      0009H    0009H
  +--> ?PR?NED
  +--> ?PR?_READI2C?NED
BL51 BANKED LINKER/LOCATER V6.22                                                      11/30/2015  19:14:20  PAGE 17


  +--> ?PR?_READBYTE?NED
  +--> ?PR?_RS_TX?UART
  +--> ?CO?NED
  +--> ?PR?PRINTF?PRINTF
  +--> ?PR?_SC16_COMCHECK?NED

?PR?_READBYTE?NED                               -----    -----      -----    -----      0012H    0001H
  +--> ?PR?_READI2C?NED

?PR?PRINTF?PRINTF                               0023H.0  0001H.1    002FH    0005H      0012H    0028H
  +--> ?PR?PUTCHAR?PUTCHAR

?PR?_SC16_COMCHECK?NED                          -----    -----      -----    -----      0012H    0002H
  +--> ?PR?NED

?PR?_SET_CAMERA_SPEED?NED                       -----    -----      -----    -----      -----    -----
  +--> ?PR?_WRITEBYTE?NED

*** NEW ROOT ***************************************************

?PR?RS_INTERRUPT?UART                           -----    -----      -----    -----      -----    -----
  +--> ?PR?UART



SYMBOL TABLE OF MODULE:  .\OBJ\NED_5MCMOS_v0_a_0_XXXX_20151130 (?C_STARTUP)

  VALUE           TYPE          NAME
  ----------------------------------

  -------         MODULE        ?C_STARTUP
  C:8833H         SEGMENT       ?C_C51STARTUP
  I:0062H         SEGMENT       ?STACK
  C:0000H         PUBLIC        ?C_STARTUP
  D:00E0H         SYMBOL        ACC
  D:00F0H         SYMBOL        B
  D:0083H         SYMBOL        DPH
  D:0082H         SYMBOL        DPL
  N:0000H         SYMBOL        IBPSTACK
  N:0100H         SYMBOL        IBPSTACKTOP
  N:0080H         SYMBOL        IDATALEN
  C:8836H         SYMBOL        IDATALOOP
  N:0000H         SYMBOL        PBPSTACK
  N:0100H         SYMBOL        PBPSTACKTOP
  N:0000H         SYMBOL        PDATALEN
  N:0000H         SYMBOL        PDATASTART
  N:0000H         SYMBOL        PPAGE
  N:0000H         SYMBOL        PPAGEENABLE
  D:00A0H         SYMBOL        PPAGE_SFR
  D:0081H         SYMBOL        SP
  C:8833H         SYMBOL        STARTUP1
  N:0000H         SYMBOL        XBPSTACK
  N:0000H         SYMBOL        XBPSTACKTOP
  N:0000H         SYMBOL        XDATALEN
  N:0000H         SYMBOL        XDATASTART
  C:0000H         LINE#         126
  C:8833H         LINE#         133
BL51 BANKED LINKER/LOCATER V6.22                                                      11/30/2015  19:14:20  PAGE 18


  C:8835H         LINE#         134
  C:8836H         LINE#         135
  C:8837H         LINE#         136
  C:8839H         LINE#         185
  C:883CH         LINE#         196
  -------         ENDMOD        ?C_STARTUP

  -------         MODULE        UART
  C:0000H         SYMBOL        _ICE_DUMMY_
  D:0080H         PUBLIC        P0
  D:0090H         PUBLIC        P1
  D:00A0H         PUBLIC        P2
  D:00C0H         PUBLIC        XICON
  D:00B0H         PUBLIC        P3
  D:00E8H         PUBLIC        P4
  C:A433H         PUBLIC        InitialUART
  D:00A8H         PUBLIC        IE
  X:028DH         PUBLIC        RS_RECVBUF
  B:00A8H.4       PUBLIC        ES
  D:00B8H         PUBLIC        IP
  B:0098H.0       PUBLIC        RI
  B:0098H.1       PUBLIC        TI
  B:00B8H.4       PUBLIC        PS
  D:00D8H         PUBLIC        CCON
  D:0099H         PUBLIC        SBUF
  D:00C0H         PUBLIC        WDTC
  D:0098H         PUBLIC        SCON
  D:0088H         PUBLIC        TCON
  C:A571H         PUBLIC        RS_RxReady
  D:008DH         PUBLIC        TH1
  D:008BH         PUBLIC        TL1
  X:02F1H         PUBLIC        RsRxRp
  B:0088H.6       PUBLIC        TR1
  X:02F2H         PUBLIC        RsRxWp
  D:00F8H         PUBLIC        IPA
  D:00C8H         PUBLIC        T2CON
  C:A3E9H         PUBLIC        RS_rx
  C:0003H         PUBLIC        _RS_tx
  C:9F5AH         PUBLIC        RS_interrupt
  D:00D0H         PUBLIC        PSW
  C:A63AH         SYMBOL        Com000E
  C:A63AH         SYMBOL        L?0015
  -------         PROC          COM000E
  -------         ENDPROC       COM000E
  -------         PROC          INITIALUART
  C:A433H         LINE#         75
  C:A433H         LINE#         76
  C:A433H         LINE#         79
  C:A435H         LINE#         80
  C:A437H         LINE#         84
  C:A43AH         LINE#         99
  C:A43DH         LINE#         103
  C:A440H         LINE#         104
  C:A442H         LINE#         106
  C:A446H         LINE#         107
  C:A448H         LINE#         108
  -------         ENDPROC       INITIALUART
BL51 BANKED LINKER/LOCATER V6.22                                                      11/30/2015  19:14:20  PAGE 19


  -------         PROC          RS_RXREADY
  C:A571H         LINE#         114
  C:A571H         LINE#         115
  C:A571H         LINE#         116
  C:A57EH         LINE#         117
  C:A580H         LINE#         118
  -------         ENDPROC       RS_RXREADY
  -------         PROC          RS_RX
  -------         DO            
  D:0007H         SYMBOL        ret
  -------         ENDDO         
  C:A3E9H         LINE#         124
  C:A3E9H         LINE#         125
  C:A3E9H         LINE#         131
  C:A3F1H         LINE#         132
  C:A3F7H         LINE#         133
  C:A3FDH         LINE#         134
  C:A3FFH         LINE#         138
  C:A401H         LINE#         140
  C:A401H         LINE#         141
  -------         ENDPROC       RS_RX
  -------         PROC          _RS_TX
  D:0007H         SYMBOL        tx_buf
  C:0003H         LINE#         147
  C:0003H         LINE#         148
  C:0003H         LINE#         166
  C:0003H         LINE#         167
  C:0003H         LINE#         169
  C:0006H         LINE#         178
  C:0008H         LINE#         179
  C:000AH         LINE#         180
  C:000AH         LINE#         181
  C:000AH         LINE#         182
  C:000AH         LINE#         185
  -------         ENDPROC       _RS_TX
  -------         PROC          RS_INTERRUPT
  C:9F5AH         LINE#         193
  C:9F62H         LINE#         196
  C:9F65H         LINE#         197
  C:9F67H         LINE#         206
  C:9F70H         LINE#         210
  C:9F76H         LINE#         211
  C:9F7EH         LINE#         218
  C:9F7EH         LINE#         221
  -------         ENDPROC       RS_INTERRUPT
  -------         ENDMOD        UART

  -------         MODULE        BUSCTRL
  C:0000H         SYMBOL        _ICE_DUMMY_
  D:0080H         PUBLIC        P0
  D:0090H         PUBLIC        P1
  D:00A0H         PUBLIC        P2
  D:00C0H         PUBLIC        XICON
  D:00B0H         PUBLIC        P3
  D:00E8H         PUBLIC        P4
  B:00A8H.7       PUBLIC        EA
  D:00A8H         PUBLIC        IE
BL51 BANKED LINKER/LOCATER V6.22                                                      11/30/2015  19:14:20  PAGE 20


  C:9297H         PUBLIC        _PCT_WriteSTable
  D:00B8H         PUBLIC        IP
  B:00A0H.3       PUBLIC        HALE
  B:00A0H.2       PUBLIC        HRDB
  D:00D8H         PUBLIC        CCON
  D:00C0H         PUBLIC        WDTC
  B:00A0H.1       PUBLIC        HWRB
  D:0098H         PUBLIC        SCON
  D:0088H         PUBLIC        TCON
  C:894BH         PUBLIC        _PCT_WriteAsicTable
  C:A6D2H         PUBLIC        PTC_SwitchToI2CMode
  B:00B0H.6       PUBLIC        HCSB0
  B:00B0H.7       PUBLIC        HCSB1
  D:00F8H         PUBLIC        IPA
  C:88BFH         PUBLIC        _PCT_ReadAsicByte
  D:00C8H         PUBLIC        T2CON
  C:8E29H         PUBLIC        _PCT_WriteAsicByte
  D:00D0H         PUBLIC        PSW
  C:9B27H         SYMBOL        Com0038
  C:9B27H         SYMBOL        L?0057
  C:9B2AH         SYMBOL        L?0058
  C:9B2CH         SYMBOL        L?0059
  C:9B34H         SYMBOL        L?0060
  C:9B34H         SYMBOL        L?0061
  C:9B3CH         SYMBOL        L?0062
  C:9B3CH         SYMBOL        L?0063
  C:9B43H         SYMBOL        L?0064
  C:9B4FH         SYMBOL        L?0065
  C:9B59H         SYMBOL        L?0066
  -------         PROC          COM0038
  -------         ENDPROC       COM0038
  -------         PROC          _PCT_WRITEASICBYTE
  D:0007H         SYMBOL        _dvc
  X:01F3H         SYMBOL        _pg
  X:01F4H         SYMBOL        _addr
  X:01F5H         SYMBOL        _wdat
  C:8E29H         LINE#         63
  C:8E2CH         LINE#         64
  C:8E2CH         LINE#         65
  C:8E2CH         LINE#         67
  C:8E2FH         LINE#         70
  C:8E32H         LINE#         75
  C:8E3FH         LINE#         76
  C:8E49H         LINE#         77
  C:8E51H         LINE#         78
  C:8E54H         LINE#         79
  C:8E54H         LINE#         82
  C:8E67H         LINE#         84
  C:8E69H         LINE#         85
  C:8E6FH         LINE#         86
  C:8E71H         LINE#         89
  C:8E84H         LINE#         92
  C:8E86H         LINE#         96
  C:8E89H         LINE#         101
  C:8E89H         LINE#         102
  C:8E89H         LINE#         103
  C:8E89H         LINE#         104
BL51 BANKED LINKER/LOCATER V6.22                                                      11/30/2015  19:14:20  PAGE 21


  C:8E8CH         LINE#         105
  -------         ENDPROC       _PCT_WRITEASICBYTE
  -------         PROC          _PCT_WRITEASICTABLE
  D:0007H         SYMBOL        _dvc
  X:01D8H         SYMBOL        _pg
  X:01D9H         SYMBOL        _addr
  X:01DAH         SYMBOL        _tbl_ptr
  X:01DDH         SYMBOL        _tbl_cnt
  C:894BH         LINE#         111
  C:894EH         LINE#         112
  C:894EH         LINE#         113
  C:894EH         LINE#         115
  C:8951H         LINE#         119
  C:8954H         LINE#         124
  C:8961H         LINE#         125
  C:896BH         LINE#         126
  C:8973H         LINE#         128
  C:8973H         LINE#         129
  C:897CH         LINE#         130
  C:897CH         LINE#         133
  C:898FH         LINE#         136
  C:8991H         LINE#         138
  C:89A6H         LINE#         139
  C:89A8H         LINE#         142
  C:89BBH         LINE#         145
  C:89BDH         LINE#         146
  C:89C5H         LINE#         150
  C:89C8H         LINE#         155
  C:89C8H         LINE#         156
  C:89C8H         LINE#         157
  C:89C8H         LINE#         158
  C:89CBH         LINE#         159
  -------         ENDPROC       _PCT_WRITEASICTABLE
  -------         PROC          _PCT_READASICBYTE
  X:01F2H         SYMBOL        _dvc
  X:01F3H         SYMBOL        _pg
  X:01F4H         SYMBOL        _addr
  -------         DO            
  X:01F5H         SYMBOL        _rdat_
  -------         ENDDO         
  C:88BFH         LINE#         165
  C:88CAH         LINE#         166
  C:88CAH         LINE#         169
  C:88CCH         LINE#         173
  C:88CFH         LINE#         178
  C:88D4H         LINE#         179
  C:88DFH         LINE#         180
  C:88E9H         LINE#         181
  C:88F1H         LINE#         183
  C:88F4H         LINE#         184
  C:88F4H         LINE#         186
  C:8907H         LINE#         189
  C:8909H         LINE#         190
  C:890CH         LINE#         192
  C:891FH         LINE#         196
  C:8921H         LINE#         197
  C:8927H         LINE#         201
BL51 BANKED LINKER/LOCATER V6.22                                                      11/30/2015  19:14:20  PAGE 22


  C:893AH         LINE#         204
  C:893CH         LINE#         208
  C:893FH         LINE#         213
  C:8941H         LINE#         214
  C:8943H         LINE#         215
  C:8945H         LINE#         216
  C:894AH         LINE#         217
  -------         ENDPROC       _PCT_READASICBYTE
  -------         PROC          _PCT_WRITESTABLE
  D:0007H         SYMBOL        _dvc
  X:01E4H         SYMBOL        _tbl_ptr
  C:9297H         LINE#         224
  C:92A2H         LINE#         225
  C:92A2H         LINE#         229
  C:92A2H         LINE#         230
  C:92B0H         LINE#         231
  C:92CAH         LINE#         232
  C:92CAH         LINE#         233
  C:92DCH         LINE#         234
  C:92DCH         LINE#         235
  C:92E6H         LINE#         236
  C:92E8H         LINE#         237
  -------         ENDPROC       _PCT_WRITESTABLE
  -------         PROC          PTC_SWITCHTOI2CMODE
  C:A6D2H         LINE#         243
  C:A6D2H         LINE#         244
  C:A6D2H         LINE#         254
  -------         ENDPROC       PTC_SWITCHTOI2CMODE
  -------         ENDMOD        BUSCTRL

  -------         MODULE        COMMANDSHELL
  C:0000H         SYMBOL        _ICE_DUMMY_
  D:0080H         PUBLIC        P0
  D:0090H         PUBLIC        P1
  D:00A0H         PUBLIC        P2
  D:00C0H         PUBLIC        XICON
  D:00B0H         PUBLIC        P3
  D:00E8H         PUBLIC        P4
  C:A449H         PUBLIC        _MoniHSCommSJmode
  C:9B9FH         PUBLIC        MoniVideoAutoDetect
  C:7B17H         PUBLIC        _PCT_RunCommShell
  C:6F9FH         PUBLIC        _MoniAudioGain
  D:00A8H         PUBLIC        IE
  C:9C84H         PUBLIC        _MoniReadOneBuffer
  D:00B8H         PUBLIC        IP
  C:A53BH         PUBLIC        _MoniYVideoMix
  X:0357H         PUBLIC        sysdat
  C:A48AH         PUBLIC        _MoniAudioLive
  D:00D8H         PUBLIC        CCON
  C:A6D3H         PUBLIC        PCT_SendACK
  C:9DFFH         PUBLIC        _MoniWriteOneBuffer
  C:A5A1H         PUBLIC        MoniAudioMute
  C:A502H         PUBLIC        MoniHSCommVersion
  C:77EDH         PUBLIC        _MoniSetVideoFormat
  C:958EH         PUBLIC        _MoniReadAsicByte
  C:8BABH         PUBLIC        _PCT_GetFirstStr
  C:8CF0H         PUBLIC        PCT_CheckSystem
BL51 BANKED LINKER/LOCATER V6.22                                                      11/30/2015  19:14:20  PAGE 23


  D:00C0H         PUBLIC        WDTC
  D:0098H         PUBLIC        SCON
  D:0088H         PUBLIC        TCON
  C:9339H         PUBLIC        _MoniWriteAsicByte
  C:6E51H         PUBLIC        _MoniHSComm
  X:0368H         PUBLIC        msg
  C:9AADH         PUBLIC        _PCT_StrToCommCode
  C:9546H         PUBLIC        _PCT_CheckVMixType
  C:0026H         PUBLIC        MoniHSCommDisScroll
  D:00F8H         PUBLIC        IPA
  C:8FB8H         PUBLIC        _MoniShowSODStr
  C:58EAH         PUBLIC        _MoniVideoMixAttr
  C:961DH         PUBLIC        PCT_AudioActionForHS
  D:00C8H         PUBLIC        T2CON
  C:91ECH         PUBLIC        _MoniVideoMixWin
  C:95D6H         PUBLIC        _MoniReadPageBuffer
  X:0370H         PUBLIC        Original_selwintype
  C:93D2H         PUBLIC        MoniRegisterDump
  D:00D0H         PUBLIC        PSW
  C:6743H         PUBLIC        _MoniAudioMixing
  C:56CBH         SYMBOL        Com00B2
  C:56CBH         SYMBOL        L?0179
  C:56CCH         SYMBOL        L?0180
  C:5702H         SYMBOL        L?0181
  C:5709H         SYMBOL        L?0182
  C:570AH         SYMBOL        L?0183
  C:5740H         SYMBOL        L?0184
  C:5747H         SYMBOL        L?0185
  C:5748H         SYMBOL        L?0186
  C:5768H         SYMBOL        L?0187
  C:576FH         SYMBOL        L?0188
  C:5770H         SYMBOL        L?0189
  C:5774H         SYMBOL        L?0190
  C:577DH         SYMBOL        L?0191
  C:577DH         SYMBOL        L?0192
  C:5789H         SYMBOL        L?0193
  C:5790H         SYMBOL        L?0194
  C:57A0H         SYMBOL        L?0195
  C:57A7H         SYMBOL        L?0196
  C:57B7H         SYMBOL        L?0197
  C:57BEH         SYMBOL        L?0198
  C:57CEH         SYMBOL        L?0199
  C:57D5H         SYMBOL        L?0200
  C:57E1H         SYMBOL        L?0201
  C:57E8H         SYMBOL        L?0202
  C:57F4H         SYMBOL        L?0203
  C:57FBH         SYMBOL        L?0204
  C:5800H         SYMBOL        L?0205
  C:5807H         SYMBOL        L?0206
  C:580CH         SYMBOL        L?0207
  C:5813H         SYMBOL        L?0208
  C:5813H         SYMBOL        L?0209
  C:581BH         SYMBOL        L?0210
  C:581BH         SYMBOL        L?0211
  C:5823H         SYMBOL        L?0212
  C:582BH         SYMBOL        L?0213
  C:5837H         SYMBOL        L?0214
BL51 BANKED LINKER/LOCATER V6.22                                                      11/30/2015  19:14:20  PAGE 24


  C:5838H         SYMBOL        L?0215
  C:583FH         SYMBOL        L?0216
  C:5846H         SYMBOL        L?0219
  C:584DH         SYMBOL        L?0222
  C:5854H         SYMBOL        L?0224
  C:585BH         SYMBOL        L?0228
  C:5862H         SYMBOL        L?0229
  C:5863H         SYMBOL        L?0230
  C:5870H         SYMBOL        L?0232
  C:5880H         SYMBOL        L?0233
  C:5887H         SYMBOL        L?0235
  C:588EH         SYMBOL        L?0237
  C:5895H         SYMBOL        L?0242
  C:5895H         SYMBOL        L?0243
  C:5896H         SYMBOL        L?0244
  C:589EH         SYMBOL        L?0245
  C:589EH         SYMBOL        L?0246
  C:58A8H         SYMBOL        L?0247
  C:58B3H         SYMBOL        L?0249
  C:58BAH         SYMBOL        L?0250
  C:58BAH         SYMBOL        L?0251
  C:58C1H         SYMBOL        L?0252
  C:58C1H         SYMBOL        L?0253
  C:58CAH         SYMBOL        L?0255
  C:58D6H         SYMBOL        L?0258
  C:58D6H         SYMBOL        L?0259
  C:58DCH         SYMBOL        L?0260
  C:58E3H         SYMBOL        L?0261
  C:58E3H         SYMBOL        L?0262
  -------         PROC          COM00B2
  -------         ENDPROC       COM00B2
  -------         PROC          _PCT_GETFIRSTSTR
  X:01DDH         SYMBOL        tagStr
  X:01E0H         SYMBOL        sourceStr
  C:8BABH         LINE#         88
  C:8BB1H         LINE#         89
  C:8BB1H         LINE#         90
  C:8BBCH         LINE#         91
  C:8BD3H         LINE#         92
  C:8BEBH         LINE#         93
  C:8BEDH         LINE#         94
  C:8BEDH         LINE#         95
  C:8BFAH         LINE#         96
  C:8BFEH         LINE#         97
  C:8C07H         LINE#         98
  C:8C0AH         LINE#         99
  C:8C0DH         LINE#         100
  C:8C10H         LINE#         101
  C:8C19H         LINE#         102
  -------         ENDPROC       _PCT_GETFIRSTSTR
  -------         PROC          _PCT_STRTOCOMMCODE
  X:01DDH         SYMBOL        Str
  -------         DO            
  D:002FH         SYMBOL        ret
  -------         ENDDO         
  C:9AADH         LINE#         112
  C:9AB3H         LINE#         113
BL51 BANKED LINKER/LOCATER V6.22                                                      11/30/2015  19:14:20  PAGE 25


  C:9AB3H         LINE#         114
  C:9AB8H         LINE#         116
  C:9AE5H         LINE#         117
  C:9AE9H         LINE#         118
  -------         ENDPROC       _PCT_STRTOCOMMCODE
  -------         PROC          PCT_SENDACK
  C:A6D3H         LINE#         124
  C:A6D3H         LINE#         125
  C:A6D3H         LINE#         131
  -------         ENDPROC       PCT_SENDACK
  -------         PROC          _PCT_CHECKVMIXTYPE
  D:0007H         SYMBOL        _typ
  -------         DO            
  D:0032H         SYMBOL        tmplktp
  -------         ENDDO         
  C:9546H         LINE#         143
  C:9546H         LINE#         144
  C:9546H         LINE#         145
  C:9549H         LINE#         147
  C:954FH         LINE#         148
  C:9556H         LINE#         149
  C:955CH         LINE#         150
  C:9568H         LINE#         152
  C:9576H         LINE#         153
  C:957CH         LINE#         155
  C:957CH         LINE#         156
  C:9582H         LINE#         157
  C:9588H         LINE#         158
  C:958DH         LINE#         159
  -------         ENDPROC       _PCT_CHECKVMIXTYPE
  -------         PROC          _MONIREADPAGEBUFFER
  D:0001H         SYMBOL        szParam
  -------         DO            
  D:0046H         SYMBOL        page
  D:0047H         SYMBOL        start
  D:0048H         SYMBOL        end
  -------         ENDDO         
  C:95D6H         LINE#         170
  C:95D6H         LINE#         171
  C:95D6H         LINE#         174
  C:95FBH         LINE#         176
  C:95FBH         LINE#         177
  C:9615H         LINE#         178
  C:9617H         LINE#         179
  C:961CH         LINE#         180
  -------         ENDPROC       _MONIREADPAGEBUFFER
  -------         PROC          _MONIREADONEBUFFER
  D:0001H         SYMBOL        szParam
  -------         DO            
  D:004FH         SYMBOL        page
  D:0050H         SYMBOL        addr
  -------         ENDDO         
  C:9C84H         LINE#         186
  C:9C84H         LINE#         187
  C:9C84H         LINE#         190
  C:9CA1H         LINE#         192
  -------         ENDPROC       _MONIREADONEBUFFER
BL51 BANKED LINKER/LOCATER V6.22                                                      11/30/2015  19:14:20  PAGE 26


  -------         PROC          _MONIWRITEONEBUFFER
  D:0001H         SYMBOL        szParam
  -------         DO            
  D:0049H         SYMBOL        page
  D:004AH         SYMBOL        addr
  D:004BH         SYMBOL        dat
  -------         ENDDO         
  C:9DFFH         LINE#         199
  C:9DFFH         LINE#         200
  C:9DFFH         LINE#         203
  C:9E24H         LINE#         204
  -------         ENDPROC       _MONIWRITEONEBUFFER
  -------         PROC          _MONIWRITEASICBYTE
  D:0001H         SYMBOL        szParam
  -------         DO            
  D:002FH         SYMBOL        _dev
  D:0030H         SYMBOL        _pg
  D:0031H         SYMBOL        _addr
  D:0032H         SYMBOL        _wdat
  -------         ENDDO         
  C:9339H         LINE#         211
  C:9339H         LINE#         212
  C:9339H         LINE#         213
  C:933CH         LINE#         214
  C:933EH         LINE#         215
  C:9340H         LINE#         216
  C:9342H         LINE#         218
  C:9377H         LINE#         219
  -------         ENDPROC       _MONIWRITEASICBYTE
  -------         PROC          _MONIREADASICBYTE
  D:0001H         SYMBOL        szParam
  -------         DO            
  D:001CH         SYMBOL        _dev
  D:001DH         SYMBOL        _pg
  D:001EH         SYMBOL        _addr
  D:001FH         SYMBOL        _rdat
  -------         ENDDO         
  C:958EH         LINE#         226
  C:958EH         LINE#         227
  C:958EH         LINE#         228
  C:9591H         LINE#         229
  C:9593H         LINE#         230
  C:9595H         LINE#         231
  C:9597H         LINE#         233
  C:95BCH         LINE#         234
  C:95C7H         LINE#         235
  -------         ENDPROC       _MONIREADASICBYTE
  C:686CH         SYMBOL        L?0217
  C:6882H         SYMBOL        L?0225
  C:6898H         SYMBOL        L?0227
  -------         PROC          _MONIAUDIOMIXING
  X:038BH         SYMBOL        szParam
  -------         DO            
  D:0008H         SYMBOL        selch0
  D:0009H         SYMBOL        selch1
  D:000AH         SYMBOL        selch2
  D:000BH         SYMBOL        selch3
BL51 BANKED LINKER/LOCATER V6.22                                                      11/30/2015  19:14:20  PAGE 27


  D:000CH         SYMBOL        selch4
  D:000DH         SYMBOL        valch0
  D:000EH         SYMBOL        valch1
  D:000FH         SYMBOL        valch2
  D:0010H         SYMBOL        valch3
  D:0011H         SYMBOL        valch4
  X:038EH         SYMBOL        getStr
  C:56C6H         SYMBOL        chaddr
  -------         ENDDO         
  C:6743H         LINE#         243
  C:6746H         LINE#         244
  C:6746H         LINE#         255
  C:6759H         LINE#         257
  C:6761H         LINE#         263
  C:6788H         LINE#         264
  C:6788H         LINE#         265
  C:6799H         LINE#         266
  C:67A2H         LINE#         267
  C:67A8H         LINE#         268
  C:67ABH         LINE#         270
  C:67ABH         LINE#         271
  C:67C9H         LINE#         273
  C:67C9H         LINE#         274
  C:67CCH         LINE#         275
  C:67CFH         LINE#         276
  C:67D2H         LINE#         278
  C:67D2H         LINE#         279
  C:67E6H         LINE#         281
  C:67E6H         LINE#         282
  C:67E9H         LINE#         283
  C:67EDH         LINE#         284
  C:67F0H         LINE#         285
  C:67F3H         LINE#         287
  C:67F3H         LINE#         288
  C:680AH         LINE#         290
  C:680AH         LINE#         291
  C:680AH         LINE#         292
  C:680AH         LINE#         293
  C:680DH         LINE#         295
  C:6815H         LINE#         296
  C:6818H         LINE#         298
  C:6818H         LINE#         299
  C:6840H         LINE#         301
  C:6840H         LINE#         302
  C:6840H         LINE#         303
  C:6840H         LINE#         304
  C:6848H         LINE#         305
  C:6851H         LINE#         307
  C:686BH         LINE#         308
  C:686BH         LINE#         310
  C:686BH         LINE#         311
  C:686BH         LINE#         312
  C:686BH         LINE#         313
  -------         ENDPROC       _MONIAUDIOMIXING
  -------         PROC          MONIAUDIOMUTE
  C:A5A1H         LINE#         320
  C:A5A1H         LINE#         321
BL51 BANKED LINKER/LOCATER V6.22                                                      11/30/2015  19:14:20  PAGE 28


  C:A5A1H         LINE#         322
  C:A5A9H         LINE#         327
  -------         ENDPROC       MONIAUDIOMUTE
  C:70AEH         SYMBOL        L?0221
  C:70C8H         SYMBOL        L?0248
  C:70D9H         SYMBOL        L?0263
  -------         PROC          _MONIAUDIOGAIN
  X:0391H         SYMBOL        szParam
  -------         DO            
  D:0012H         SYMBOL        selch0
  D:0013H         SYMBOL        selch1
  D:0014H         SYMBOL        selch2
  D:0015H         SYMBOL        selch3
  D:0016H         SYMBOL        selch4
  D:0017H         SYMBOL        ch0val
  D:0018H         SYMBOL        ch1val
  D:0019H         SYMBOL        ch2val
  D:001AH         SYMBOL        ch3val
  D:001BH         SYMBOL        ch4val
  X:0394H         SYMBOL        getStr
  -------         ENDDO         
  C:6F9FH         LINE#         335
  C:6FA2H         LINE#         336
  C:6FA2H         LINE#         341
  C:6FB5H         LINE#         343
  C:6FDCH         LINE#         344
  C:6FDCH         LINE#         345
  C:6FF2H         LINE#         346
  C:6FF6H         LINE#         347
  C:6FF9H         LINE#         349
  C:6FF9H         LINE#         350
  C:701CH         LINE#         352
  C:701CH         LINE#         353
  C:701FH         LINE#         354
  C:7022H         LINE#         356
  C:7022H         LINE#         357
  C:703AH         LINE#         359
  C:703AH         LINE#         360
  C:703AH         LINE#         361
  C:703DH         LINE#         362
  C:7040H         LINE#         364
  C:7040H         LINE#         365
  C:705BH         LINE#         367
  C:705BH         LINE#         368
  C:705BH         LINE#         369
  C:705EH         LINE#         370
  C:7061H         LINE#         371
  C:7064H         LINE#         373
  C:7064H         LINE#         374
  C:7090H         LINE#         376
  C:7090H         LINE#         377
  C:7098H         LINE#         378
  C:709CH         LINE#         379
  C:70A4H         LINE#         380
  C:70ADH         LINE#         381
  C:70ADH         LINE#         383
  C:70ADH         LINE#         384
BL51 BANKED LINKER/LOCATER V6.22                                                      11/30/2015  19:14:20  PAGE 29


  C:70ADH         LINE#         385
  C:70ADH         LINE#         386
  -------         ENDPROC       _MONIAUDIOGAIN
  -------         PROC          _MONIAUDIOLIVE
  D:0001H         SYMBOL        szParam
  -------         DO            
  D:005DH         SYMBOL        chan
  -------         ENDDO         
  C:A48AH         LINE#         393
  C:A48AH         LINE#         394
  C:A48AH         LINE#         397
  C:A497H         LINE#         399
  -------         ENDPROC       _MONIAUDIOLIVE
  -------         PROC          MONIREGISTERDUMP
  -------         DO            
  D:0051H         SYMBOL        addr
  D:0052H         SYMBOL        page
  -------         ENDDO         
  C:93D2H         LINE#         406
  C:93D2H         LINE#         407
  C:93D2H         LINE#         411
  C:93D5H         LINE#         412
  C:93E4H         LINE#         413
  C:93E7H         LINE#         414
  C:93E7H         LINE#         415
  C:93FEH         LINE#         416
  C:9400H         LINE#         417
  C:940FH         LINE#         418
  C:9413H         LINE#         419
  C:941CH         LINE#         420
  -------         ENDPROC       MONIREGISTERDUMP
  -------         PROC          _MONIVIDEOMIXWIN
  D:0001H         SYMBOL        szParam
  -------         DO            
  D:0053H         SYMBOL        chose
  D:0054H         SYMBOL        wintp
  -------         ENDDO         
  C:91ECH         LINE#         426
  C:91ECH         LINE#         427
  C:91ECH         LINE#         430
  C:922EH         LINE#         432
  C:923BH         LINE#         433
  -------         ENDPROC       _MONIVIDEOMIXWIN
  C:5ABFH         SYMBOL        L?0220
  C:5AC6H         SYMBOL        L?0223
  C:5ACDH         SYMBOL        L?0226
  C:5AD4H         SYMBOL        L?0234
  C:5ADBH         SYMBOL        L?0236
  C:5AE2H         SYMBOL        L?0239
  C:5AF3H         SYMBOL        L?0241
  C:5AFAH         SYMBOL        L?0254
  -------         PROC          _MONIVIDEOMIXATTR
  X:0397H         SYMBOL        szParam
  -------         DO            
  D:0025H         SYMBOL        chose
  D:0027H         SYMBOL        attrsel
  D:0028H         SYMBOL        setval
BL51 BANKED LINKER/LOCATER V6.22                                                      11/30/2015  19:14:20  PAGE 30


  D:0029H         SYMBOL        winNm
  D:002DH         SYMBOL        wincnt
  D:002EH         SYMBOL        division
  X:039AH         SYMBOL        getStr
  -------         ENDDO         
  C:58EAH         LINE#         443
  C:58F0H         LINE#         444
  C:58F0H         LINE#         447
  C:58F3H         LINE#         451
  C:5909H         LINE#         452
  C:5914H         LINE#         454
  C:591AH         LINE#         455
  C:5927H         LINE#         457
  C:5935H         LINE#         458
  C:5938H         LINE#         459
  C:5938H         LINE#         460
  C:5949H         LINE#         461
  C:594CH         LINE#         462
  C:594CH         LINE#         463
  C:595DH         LINE#         464
  C:5960H         LINE#         465
  C:5960H         LINE#         466
  C:5970H         LINE#         467
  C:5973H         LINE#         468
  C:5973H         LINE#         469
  C:5983H         LINE#         470
  C:5986H         LINE#         471
  C:5986H         LINE#         472
  C:5996H         LINE#         473
  C:5999H         LINE#         474
  C:5999H         LINE#         475
  C:59A9H         LINE#         476
  C:59ACH         LINE#         477
  C:59ACH         LINE#         478
  C:59BCH         LINE#         479
  C:59BFH         LINE#         480
  C:59C2H         LINE#         481
  C:59D3H         LINE#         482
  C:59D6H         LINE#         483
  C:59D6H         LINE#         484
  C:59E7H         LINE#         485
  C:59EAH         LINE#         486
  C:59EAH         LINE#         487
  C:59FAH         LINE#         488
  C:59FDH         LINE#         489
  C:59FDH         LINE#         490
  C:5A0DH         LINE#         491
  C:5A10H         LINE#         492
  C:5A10H         LINE#         493
  C:5A20H         LINE#         494
  C:5A23H         LINE#         495
  C:5A23H         LINE#         496
  C:5A33H         LINE#         497
  C:5A36H         LINE#         498
  C:5A36H         LINE#         499
  C:5A49H         LINE#         500
  C:5A4CH         LINE#         501
BL51 BANKED LINKER/LOCATER V6.22                                                      11/30/2015  19:14:20  PAGE 31


  C:5A4FH         LINE#         502
  C:5A64H         LINE#         503
  C:5A67H         LINE#         504
  C:5A69H         LINE#         505
  C:5A69H         LINE#         507
  C:5A69H         LINE#         509
  C:5A72H         LINE#         510
  C:5A90H         LINE#         511
  C:5A90H         LINE#         512
  C:5AA1H         LINE#         513
  C:5AA3H         LINE#         514
  C:5AA3H         LINE#         515
  C:5AA5H         LINE#         516
  C:5AA9H         LINE#         517
  C:5AB3H         LINE#         518
  C:5ABAH         LINE#         519
  C:5ABAH         LINE#         520
  C:5ABEH         LINE#         521
  -------         ENDPROC       _MONIVIDEOMIXATTR
  -------         PROC          _MONIYVIDEOMIX
  D:0001H         SYMBOL        szParam
  -------         DO            
  D:002FH         SYMBOL        chan
  -------         ENDDO         
  C:A53BH         LINE#         528
  C:A53BH         LINE#         529
  C:A53BH         LINE#         532
  C:A548H         LINE#         533
  -------         ENDPROC       _MONIYVIDEOMIX
  -------         PROC          MONIVIDEOAUTODETECT
  C:9B9FH         LINE#         540
  C:9B9FH         LINE#         541
  C:9B9FH         LINE#         542
  -------         ENDPROC       MONIVIDEOAUTODETECT
  C:78E0H         SYMBOL        L?0218
  C:78FEH         SYMBOL        L?0256
  -------         PROC          _MONISETVIDEOFORMAT
  X:039DH         SYMBOL        szParam
  -------         DO            
  D:0038H         SYMBOL        selch0
  D:0039H         SYMBOL        selch1
  D:003AH         SYMBOL        selch2
  D:003BH         SYMBOL        selch3
  D:003CH         SYMBOL        valch0
  D:003DH         SYMBOL        valch1
  D:003EH         SYMBOL        valch2
  D:003FH         SYMBOL        valch3
  X:03A0H         SYMBOL        getStr
  -------         ENDDO         
  C:77EDH         LINE#         554
  C:77F0H         LINE#         555
  C:77F0H         LINE#         560
  C:7803H         LINE#         562
  C:7824H         LINE#         563
  C:7824H         LINE#         564
  C:783CH         LINE#         565
  C:783FH         LINE#         566
BL51 BANKED LINKER/LOCATER V6.22                                                      11/30/2015  19:14:20  PAGE 32


  C:7842H         LINE#         568
  C:7842H         LINE#         569
  C:785AH         LINE#         571
  C:7862H         LINE#         572
  C:786AH         LINE#         573
  C:786DH         LINE#         575
  C:786DH         LINE#         576
  C:7888H         LINE#         578
  C:7888H         LINE#         579
  C:788BH         LINE#         580
  C:7893H         LINE#         581
  C:7896H         LINE#         583
  C:7896H         LINE#         584
  C:78C2H         LINE#         586
  C:78C2H         LINE#         587
  C:78C5H         LINE#         588
  C:78D2H         LINE#         589
  C:78DFH         LINE#         590
  C:78DFH         LINE#         592
  C:78DFH         LINE#         593
  C:78DFH         LINE#         594
  C:78DFH         LINE#         595
  -------         ENDPROC       _MONISETVIDEOFORMAT
  C:9005H         SYMBOL        L?0240
  -------         PROC          _MONISHOWSODSTR
  X:03A3H         SYMBOL        szParam
  -------         DO            
  D:0055H         SYMBOL        addrx
  D:0056H         SYMBOL        addry
  X:03A6H         SYMBOL        getStr
  -------         ENDDO         
  C:8FB8H         LINE#         601
  C:8FBBH         LINE#         602
  C:8FBBH         LINE#         606
  C:8FBEH         LINE#         607
  C:8FC9H         LINE#         608
  C:8FCCH         LINE#         609
  C:8FD7H         LINE#         611
  C:8FDCH         LINE#         612
  C:8FE1H         LINE#         613
  C:8FE6H         LINE#         614
  C:9000H         LINE#         615
  C:9005H         LINE#         616
  -------         ENDPROC       _MONISHOWSODSTR
  -------         PROC          PCT_AUDIOACTIONFORHS
  -------         DO            
  D:0057H         SYMBOL        winid
  D:0058H         SYMBOL        muteFlage
  -------         ENDDO         
  C:961DH         LINE#         622
  C:961DH         LINE#         623
  C:961DH         LINE#         625
  C:9620H         LINE#         628
  C:9623H         LINE#         629
  C:9632H         LINE#         630
  C:9644H         LINE#         631
  C:9647H         LINE#         632
BL51 BANKED LINKER/LOCATER V6.22                                                      11/30/2015  19:14:20  PAGE 33


  C:9647H         LINE#         633
  C:9650H         LINE#         635
  C:9654H         LINE#         637
  C:965CH         LINE#         642
  C:9663H         LINE#         643
  C:9663H         LINE#         645
  -------         ENDPROC       PCT_AUDIOACTIONFORHS
  -------         PROC          _MONIHSCOMM
  D:0001H         SYMBOL        szParam
  -------         DO            
  D:002FH         SYMBOL        winid
  D:0030H         SYMBOL        chose
  D:0031H         SYMBOL        wintp
  -------         ENDDO         
  C:6E51H         LINE#         652
  C:6E51H         LINE#         656
  C:6EBBH         LINE#         659
  C:6ED7H         LINE#         663
  C:6EE1H         LINE#         664
  C:6EEBH         LINE#         665
  C:6EF6H         LINE#         666
  C:6F01H         LINE#         668
  C:6F0CH         LINE#         669
  C:6F17H         LINE#         670
  C:6F22H         LINE#         671
  C:6F2DH         LINE#         678
  C:6F36H         LINE#         679
  C:6F3FH         LINE#         682
  C:6F4AH         LINE#         685
  C:6F4DH         LINE#         686
  C:6F69H         LINE#         691
  C:6F6EH         LINE#         692
  C:6F73H         LINE#         693
  C:6F78H         LINE#         695
  C:6F80H         LINE#         696
  C:6F85H         LINE#         697
  C:6F8AH         LINE#         698
  C:6F8DH         LINE#         699
  C:6F96H         LINE#         700
  C:6F9EH         LINE#         718
  -------         ENDPROC       _MONIHSCOMM
  -------         PROC          PCT_CHECKSYSTEM
  -------         DO            
  D:0007H         SYMBOL        TempSystem
  -------         ENDDO         
  C:8CF0H         LINE#         725
  C:8CF0H         LINE#         726
  C:8CF0H         LINE#         729
  C:8CF5H         LINE#         731
  C:8CF9H         LINE#         732
  C:8CFBH         LINE#         733
  C:8D02H         LINE#         734
  C:8D04H         LINE#         735
  C:8D09H         LINE#         738
  C:8D19H         LINE#         740
  C:8D1EH         LINE#         744
  C:8D26H         LINE#         745
BL51 BANKED LINKER/LOCATER V6.22                                                      11/30/2015  19:14:20  PAGE 34


  C:8D2FH         LINE#         746
  C:8D38H         LINE#         748
  C:8D43H         LINE#         752
  C:8D48H         LINE#         753
  C:8D4BH         LINE#         754
  C:8D54H         LINE#         755
  C:8D57H         LINE#         758
  C:8D58H         LINE#         759
  -------         ENDPROC       PCT_CHECKSYSTEM
  -------         PROC          _MONIHSCOMMSJMODE
  D:0001H         SYMBOL        szParam
  C:A449H         LINE#         766
  C:A449H         LINE#         767
  C:A449H         LINE#         768
  -------         ENDPROC       _MONIHSCOMMSJMODE
  -------         PROC          MONIHSCOMMDISSCROLL
  C:0026H         LINE#         775
  C:0026H         LINE#         776
  C:0026H         LINE#         777
  -------         ENDPROC       MONIHSCOMMDISSCROLL
  -------         PROC          MONIHSCOMMVERSION
  C:A502H         LINE#         784
  C:A502H         LINE#         785
  C:A502H         LINE#         786
  C:A50BH         LINE#         787
  -------         ENDPROC       MONIHSCOMMVERSION
  C:7BEAH         SYMBOL        L?0231
  C:7BF4H         SYMBOL        L?0238
  C:7BFDH         SYMBOL        L?0257
  -------         PROC          _PCT_RUNCOMMSHELL
  X:01D5H         SYMBOL        strptr
  -------         DO            
  X:01D8H         SYMBOL        commcode
  X:01DAH         SYMBOL        getStr
  -------         ENDDO         
  C:7B17H         LINE#         795
  C:7B1AH         LINE#         796
  C:7B1AH         LINE#         812
  C:7B2DH         LINE#         815
  C:7B3EH         LINE#         831
  C:7B4DH         LINE#         834
  C:7B56H         LINE#         836
  C:7B59H         LINE#         889
  C:7B68H         LINE#         891
  C:7B68H         LINE#         893
  C:7B71H         LINE#         895
  C:7B74H         LINE#         917
  C:7B84H         LINE#         918
  C:7B84H         LINE#         920
  C:7B8DH         LINE#         923
  C:7B90H         LINE#         924
  C:7B95H         LINE#         937
  C:7BA7H         LINE#         938
  C:7BA7H         LINE#         940
  C:7BB0H         LINE#         941
  C:7BB2H         LINE#         955
  C:7BC2H         LINE#         956
BL51 BANKED LINKER/LOCATER V6.22                                                      11/30/2015  19:14:20  PAGE 35


  C:7BC2H         LINE#         958
  C:7BCAH         LINE#         963
  C:7BCCH         LINE#         964
  C:7BDCH         LINE#         965
  C:7BDCH         LINE#         967
  C:7BDFH         LINE#         968
  C:7BE7H         LINE#         975
  C:7BE7H         LINE#         1005
  C:7BE7H         LINE#         1006
  C:7BE7H         LINE#         1011
  C:7BE9H         LINE#         1012
  -------         ENDPROC       _PCT_RUNCOMMSHELL
  -------         ENDMOD        COMMANDSHELL

  -------         MODULE        MAIN
  C:0000H         SYMBOL        _ICE_DUMMY_
  C:9D95H         PUBLIC        _PutsP
  D:0094H         PUBLIC        P0M1
  D:0091H         PUBLIC        P1M0
  D:00F6H         PUBLIC        PCAPWM4
  D:0095H         PUBLIC        P2M0
  D:0092H         PUBLIC        P1M1
  D:00F7H         PUBLIC        PCAPWM5
  D:0080H         PUBLIC        P0
  D:00B1H         PUBLIC        P3M0
  D:0096H         PUBLIC        P2M1
  D:0090H         PUBLIC        P1
  X:02F4H         PUBLIC        CB_flag
  D:00B2H         PUBLIC        P3M1
  D:00B3H         PUBLIC        P4M0
  D:00A0H         PUBLIC        P2
  D:00B4H         PUBLIC        P4M1
  D:00C0H         PUBLIC        XICON
  D:00B0H         PUBLIC        P3
  D:00E8H         PUBLIC        P4
  X:02F5H         PUBLIC        Temp_timeout
  D:00E1H         PUBLIC        WDTCR
  B:00A8H.7       PUBLIC        EA
  X:02F6H         PUBLIC        RScommand
  D:00F9H         PUBLIC        CH
  C:A5B0H         PUBLIC        PWM_init
  D:00A8H         PUBLIC        IE
  D:00E9H         PUBLIC        CL
  D:00FAH         PUBLIC        CCAP0H
  B:0090H.1       PUBLIC        P1_1
  D:00FBH         PUBLIC        CCAP1H
  B:0090H.2       PUBLIC        P1_2
  D:00FCH         PUBLIC        CCAP2H
  B:0090H.3       PUBLIC        P1_3
  D:00FDH         PUBLIC        CCAP3H
  B:00E8H.1       PUBLIC        P4_1
  B:0090H.4       PUBLIC        P1_4
  D:00FEH         PUBLIC        CCAP4H
  D:00EAH         PUBLIC        CCAP0L
  B:0090H.5       PUBLIC        P1_5
  D:00FFH         PUBLIC        CCAP5H
  D:00EBH         PUBLIC        CCAP1L
BL51 BANKED LINKER/LOCATER V6.22                                                      11/30/2015  19:14:20  PAGE 36


  D:00DAH         PUBLIC        CCAPM0
  B:0024H.1       PUBLIC        VlossFlag
  B:0090H.6       PUBLIC        P1_6
  D:00ECH         PUBLIC        CCAP2L
  D:00DBH         PUBLIC        CCAPM1
  B:0090H.7       PUBLIC        P1_7
  D:00EDH         PUBLIC        CCAP3L
  D:00DCH         PUBLIC        CCAPM2
  D:00EEH         PUBLIC        CCAP4L
  D:00DDH         PUBLIC        CCAPM3
  D:00B8H         PUBLIC        IP
  D:00EFH         PUBLIC        CCAP5L
  D:00DEH         PUBLIC        CCAPM4
  C:4E35H         PUBLIC        _Monitor_set
  D:00DFH         PUBLIC        CCAPM5
  B:0098H.1       PUBLIC        TI
  C:9F87H         PUBLIC        _PWM_set
  X:0321H         PUBLIC        SC16_com_state
  D:00D9H         PUBLIC        CMOD
  D:00D8H         PUBLIC        CCON
  C:6CEEH         PUBLIC        main
  C:A239H         PUBLIC        ResetCommSell
  D:0020H         PUBLIC        commFlag
  X:0322H         PUBLIC        timerout1
  B:0024H.2       PUBLIC        data_chk_flag
  X:0324H         PUBLIC        timerout2
  D:0087H         PUBLIC        PCON
  X:0326H         PUBLIC        timerout3
  X:0328H         PUBLIC        timerout4
  X:032AH         PUBLIC        boot_flag
  D:00C0H         PUBLIC        WDTC
  D:0098H         PUBLIC        SCON
  D:0089H         PUBLIC        TMOD
  D:0088H         PUBLIC        TCON
  C:A659H         PUBLIC        NewLine
  C:A662H         PUBLIC        _PCT_FlashOSDCtrl
  C:7EA2H         PUBLIC        CommandShell
  D:008EH         PUBLIC        AUXR
  X:032BH         PUBLIC        work_flag
  X:032CH         PUBLIC        Small_f
  C:9468H         PUBLIC        InitialMPU
  C:5CFFH         SYMBOL        _?ix1000
  B:0020H.0       PUBLIC        comm_chk_flag
  C:5DEEH         SYMBOL        _?ix1010
  C:5D05H         SYMBOL        _?ix1001
  C:5E14H         SYMBOL        _?ix1011
  C:5D13H         SYMBOL        _?ix1002
  C:5E3AH         SYMBOL        _?ix1012
  C:5D21H         SYMBOL        _?ix1003
  C:5E60H         SYMBOL        _?ix1013
  C:5D29H         SYMBOL        _?ix1004
  C:5E86H         SYMBOL        _?ix1014
  C:5D30H         SYMBOL        _?ix1005
  C:5EACH         SYMBOL        _?ix1015
  C:5D56H         SYMBOL        _?ix1006
  C:5D7CH         SYMBOL        _?ix1007
  C:5DA2H         SYMBOL        _?ix1008
BL51 BANKED LINKER/LOCATER V6.22                                                      11/30/2015  19:14:20  PAGE 37


  C:5DC8H         SYMBOL        _?ix1009
  C:9242H         PUBLIC        Version_check
  X:032DH         PUBLIC        Main_f
  X:032EH         PUBLIC        ADC_Val
  C:9FB4H         PUBLIC        _chkStartCommShell
  X:0332H         PUBLIC        m_current
  C:92E9H         PUBLIC        _Wait_ms
  C:A62EH         PUBLIC        InitialCommShell
  D:00F8H         PUBLIC        IPA
  B:0020H.1       PUBLIC        osd_chk_flag
  X:0333H         PUBLIC        PIP_flag
  D:00C8H         PUBLIC        T2CON
  X:0334H         PUBLIC        CB_timeout
  C:76CFH         PUBLIC        Press_check
  X:0335H         PUBLIC        _delay
  D:00A2H         PUBLIC        AUXR1
  X:0337H         PUBLIC        timer2_loop
  D:00A6H         PUBLIC        AUXR2
  C:804AH         PUBLIC        _Set_PWM_Output
  C:9019H         PUBLIC        Camera_Version_check
  C:9139H         PUBLIC        Temp_check
  D:00F2H         PUBLIC        PCAPWM0
  D:00D0H         PUBLIC        PSW
  D:00F3H         PUBLIC        PCAPWM1
  D:00F4H         PUBLIC        PCAPWM2
  D:0093H         PUBLIC        P0M0
  D:00F5H         PUBLIC        PCAPWM3
  C:7F7BH         SYMBOL        Com00B7
  C:7F7BH         SYMBOL        L?0184
  C:7F7FH         SYMBOL        L?0185
  C:7F86H         SYMBOL        L?0187
  C:7F8BH         SYMBOL        L?0188
  C:7F8EH         SYMBOL        L?0189
  C:7F96H         SYMBOL        L?0190
  C:7F96H         SYMBOL        L?0191
  C:7FA2H         SYMBOL        L?0192
  C:7FACH         SYMBOL        L?0193
  C:7FB2H         SYMBOL        L?0194
  C:7FB2H         SYMBOL        L?0195
  C:7FBBH         SYMBOL        L?0196
  C:7FC4H         SYMBOL        L?0197
  C:7FC6H         SYMBOL        L?0198
  C:7FD6H         SYMBOL        L?0199
  C:7FD7H         SYMBOL        L?0200
  C:7FDEH         SYMBOL        L?0201
  C:7FF3H         SYMBOL        L?0202
  C:7FFEH         SYMBOL        L?0203
  C:7FFEH         SYMBOL        L?0204
  C:8008H         SYMBOL        L?0205
  C:800BH         SYMBOL        L?0206
  C:8011H         SYMBOL        L?0207
  C:801EH         SYMBOL        L?0208
  C:801EH         SYMBOL        L?0209
  C:8026H         SYMBOL        L?0210
  C:8032H         SYMBOL        L?0211
  C:803CH         SYMBOL        L?0212
  C:803CH         SYMBOL        L?0213
BL51 BANKED LINKER/LOCATER V6.22                                                      11/30/2015  19:14:20  PAGE 38


  C:8043H         SYMBOL        L?0214
  C:8043H         SYMBOL        L?0215
  -------         PROC          COM00B7
  -------         ENDPROC       COM00B7
  -------         PROC          COMMANDSHELL
  -------         DO            
  D:002FH         SYMBOL        ch
  X:02F3H         SYMBOL        etx_flag
  -------         ENDDO         
  C:7EA2H         LINE#         138
  C:7EA2H         LINE#         139
  C:7EA2H         LINE#         144
  C:7EADH         LINE#         145
  C:7EADH         LINE#         147
  C:7EB0H         LINE#         148
  C:7EB5H         LINE#         156
  C:7EC0H         LINE#         157
  C:7EC0H         LINE#         158
  C:7EC5H         LINE#         160
  C:7ECBH         LINE#         165
  C:7ED1H         LINE#         166
  C:7ED2H         LINE#         168
  C:7EF5H         LINE#         169
  C:7EF5H         LINE#         170
  C:7EFBH         LINE#         171
  C:7EFEH         LINE#         172
  C:7F01H         LINE#         173
  C:7F02H         LINE#         174
  C:7F0DH         LINE#         175
  C:7F0DH         LINE#         177
  C:7F13H         LINE#         178
  C:7F16H         LINE#         179
  C:7F1CH         LINE#         180
  C:7F21H         LINE#         185
  C:7F22H         LINE#         186
  C:7F2AH         LINE#         187
  C:7F2AH         LINE#         189
  C:7F33H         LINE#         199
  C:7F41H         LINE#         200
  C:7F41H         LINE#         201
  C:7F47H         LINE#         203
  C:7F4FH         LINE#         204
  C:7F52H         LINE#         206
  C:7F5AH         LINE#         208
  C:7F60H         LINE#         209
  C:7F61H         LINE#         217
  C:7F61H         LINE#         218
  C:7F67H         LINE#         219
  C:7F6AH         LINE#         220
  C:7F73H         LINE#         225
  C:7F73H         LINE#         266
  C:7F73H         LINE#         268
  C:7F73H         LINE#         269
  C:7F7AH         LINE#         270
  C:7F7AH         LINE#         274
  -------         ENDPROC       COMMANDSHELL
  -------         PROC          NEWLINE
BL51 BANKED LINKER/LOCATER V6.22                                                      11/30/2015  19:14:20  PAGE 39


  C:A659H         LINE#         281
  C:A659H         LINE#         282
  C:A659H         LINE#         283
  -------         ENDPROC       NEWLINE
  -------         PROC          _PUTSP
  X:03C4H         SYMBOL        ptr
  -------         DO            
  D:005EH         SYMBOL        ch
  -------         ENDDO         
  C:9D95H         LINE#         290
  C:9DA0H         LINE#         291
  C:9DA0H         LINE#         294
  C:9DB0H         LINE#         295
  C:9DC3H         LINE#         296
  C:9DC7H         LINE#         297
  C:9DC9H         LINE#         298
  -------         ENDPROC       _PUTSP
  -------         PROC          RESETCOMMSELL
  C:A239H         LINE#         304
  C:A239H         LINE#         305
  C:A239H         LINE#         308
  C:A23EH         LINE#         309
  C:A242H         LINE#         310
  C:A246H         LINE#         311
  C:A249H         LINE#         312
  C:A249H         LINE#         313
  C:A249H         LINE#         314
  C:A24CH         LINE#         315
  C:A24CH         LINE#         316
  C:A24CH         LINE#         317
  C:A250H         LINE#         318
  C:A252H         LINE#         319
  C:A254H         LINE#         321
  C:A258H         LINE#         322
  C:A25AH         LINE#         323
  C:A25EH         LINE#         324
  -------         ENDPROC       RESETCOMMSELL
  -------         PROC          _PCT_FLASHOSDCTRL
  D:0007H         SYMBOL        _on
  C:A662H         LINE#         330
  C:A662H         LINE#         331
  C:A662H         LINE#         332
  C:A668H         LINE#         333
  C:A66AH         LINE#         334
  -------         ENDPROC       _PCT_FLASHOSDCTRL
  -------         PROC          INITIALCOMMSHELL
  C:A62EH         LINE#         341
  C:A62EH         LINE#         342
  C:A62EH         LINE#         343
  C:A630H         LINE#         344
  C:A632H         LINE#         347
  C:A634H         LINE#         348
  C:A639H         LINE#         349
  -------         ENDPROC       INITIALCOMMSHELL
  -------         PROC          _CHKSTARTCOMMSHELL
  X:03C7H         SYMBOL        ptr
  C:9FB4H         LINE#         355
BL51 BANKED LINKER/LOCATER V6.22                                                      11/30/2015  19:14:20  PAGE 40


  C:9FBFH         LINE#         356
  C:9FBFH         LINE#         357
  C:9FC2H         LINE#         358
  C:9FDFH         LINE#         359
  -------         ENDPROC       _CHKSTARTCOMMSHELL
  -------         PROC          _WAIT_MS
  X:01D5H         SYMBOL        Tms
  -------         DO            
  X:01D7H         SYMBOL        count
  -------         ENDDO         
  C:92E9H         LINE#         361
  C:92F1H         LINE#         363
  C:92F1H         LINE#         372
  C:92FBH         LINE#         374
  C:92FBH         LINE#         376
  C:9328H         LINE#         378
  C:9336H         LINE#         380
  C:9338H         LINE#         381
  -------         ENDPROC       _WAIT_MS
  -------         PROC          MAIN
  -------         DO            
  X:0000H         SYMBOL        Counter
  X:0001H         SYMBOL        readtemp
  X:0003H         SYMBOL        OsdCount1
  X:0004H         SYMBOL        OsdCount2
  X:0005H         SYMBOL        Camera_speed
  -------         ENDDO         
  C:6CEEH         LINE#         389
  C:6CEEH         LINE#         390
  C:6CEEH         LINE#         391
  C:6CF1H         LINE#         392
  C:6CF1H         LINE#         393
  C:6CF7H         LINE#         394
  C:6CFBH         LINE#         395
  C:6CFEH         LINE#         409
  C:6D01H         LINE#         410
  C:6D04H         LINE#         463
  C:6D07H         LINE#         464
  C:6D0AH         LINE#         475
  C:6D0FH         LINE#         476
  C:6D12H         LINE#         479
  C:6D17H         LINE#         495
  C:6D1DH         LINE#         496
  C:6D23H         LINE#         497
  C:6D2DH         LINE#         499
  C:6D33H         LINE#         500
  C:6D3AH         LINE#         502
  C:6D4AH         LINE#         504
  C:6D4AH         LINE#         506
  C:6D4DH         LINE#         507
  C:6D5AH         LINE#         508
  C:6D64H         LINE#         510
  C:6D67H         LINE#         511
  C:6D67H         LINE#         512
  C:6D6CH         LINE#         513
  C:6D6EH         LINE#         514
  C:6D6EH         LINE#         518
BL51 BANKED LINKER/LOCATER V6.22                                                      11/30/2015  19:14:20  PAGE 41


  C:6D7DH         LINE#         522
  C:6D85H         LINE#         523
  C:6D85H         LINE#         527
  C:6D89H         LINE#         528
  C:6D92H         LINE#         529
  C:6D92H         LINE#         531
  C:6DA0H         LINE#         532
  C:6DA0H         LINE#         535
  C:6DA3H         LINE#         536
  C:6DA6H         LINE#         538
  C:6DB2H         LINE#         539
  C:6DB2H         LINE#         540
  C:6DB5H         LINE#         541
  C:6DB5H         LINE#         548
  C:6DBBH         LINE#         550
  C:6DBBH         LINE#         552
  C:6DCCH         LINE#         553
  C:6DCCH         LINE#         554
  C:6DD2H         LINE#         555
  C:6DD5H         LINE#         557
  C:6DD5H         LINE#         568
  C:6DE3H         LINE#         569
  C:6DE3H         LINE#         574
  C:6DFCH         LINE#         575
  C:6E02H         LINE#         576
  C:6E08H         LINE#         577
  C:6E10H         LINE#         579
  C:6E12H         LINE#         581
  C:6E15H         LINE#         584
  C:6E21H         LINE#         585
  C:6E21H         LINE#         586
  C:6E27H         LINE#         587
  C:6E30H         LINE#         591
  C:6E30H         LINE#         598
  C:6E3CH         LINE#         599
  C:6E3CH         LINE#         600
  C:6E44H         LINE#         601
  C:6E4BH         LINE#         602
  C:6E4BH         LINE#         604
  C:6E4EH         LINE#         625
  -------         ENDPROC       MAIN
  -------         PROC          INITIALMPU
  C:9468H         LINE#         641
  C:9468H         LINE#         643
  C:946BH         LINE#         644
  C:946DH         LINE#         648
  C:946FH         LINE#         651
  C:9472H         LINE#         653
  C:9474H         LINE#         654
  C:9477H         LINE#         659
  C:9479H         LINE#         667
  C:947CH         LINE#         668
  C:947FH         LINE#         669
  C:9482H         LINE#         674
  C:9485H         LINE#         675
  C:9487H         LINE#         676
  C:9489H         LINE#         677
BL51 BANKED LINKER/LOCATER V6.22                                                      11/30/2015  19:14:20  PAGE 42


  C:948BH         LINE#         678
  C:948CH         LINE#         734
  C:948EH         LINE#         735
  C:9490H         LINE#         737
  C:9493H         LINE#         738
  C:9496H         LINE#         740
  C:9498H         LINE#         741
  C:949AH         LINE#         743
  C:949CH         LINE#         744
  C:949EH         LINE#         746
  C:94A0H         LINE#         747
  C:94A3H         LINE#         748
  C:94A5H         LINE#         751
  C:94A7H         LINE#         752
  C:94A9H         LINE#         753
  C:94ABH         LINE#         754
  C:94ADH         LINE#         755
  C:94AFH         LINE#         756
  C:94B1H         LINE#         760
  -------         ENDPROC       INITIALMPU
  -------         PROC          _SET_PWM_OUTPUT
  X:01DDH         SYMBOL        addr
  X:01DEH         SYMBOL        val
  -------         DO            
  X:01DFH         SYMBOL        num
  -------         ENDDO         
  C:804AH         LINE#         763
  C:8052H         LINE#         764
  C:8052H         LINE#         766
  C:805FH         LINE#         777
  C:807CH         LINE#         778
  C:807CH         LINE#         779
  C:807CH         LINE#         780
  C:807FH         LINE#         781
  C:808AH         LINE#         782
  C:808DH         LINE#         784
  C:8092H         LINE#         785
  C:8095H         LINE#         786
  C:8096H         LINE#         787
  C:8096H         LINE#         788
  C:8099H         LINE#         789
  C:80A4H         LINE#         790
  C:80A7H         LINE#         792
  C:80ACH         LINE#         793
  C:80AFH         LINE#         794
  C:80B0H         LINE#         795
  C:80B0H         LINE#         796
  C:80B3H         LINE#         797
  C:80BEH         LINE#         798
  C:80C1H         LINE#         800
  C:80C6H         LINE#         801
  C:80C9H         LINE#         802
  C:80CAH         LINE#         803
  C:80CAH         LINE#         804
  C:80CDH         LINE#         805
  C:80D8H         LINE#         806
  C:80DBH         LINE#         808
BL51 BANKED LINKER/LOCATER V6.22                                                      11/30/2015  19:14:20  PAGE 43


  C:80E0H         LINE#         809
  C:80E3H         LINE#         810
  C:80E4H         LINE#         811
  C:80E4H         LINE#         812
  C:80E7H         LINE#         813
  C:80F2H         LINE#         814
  C:80F5H         LINE#         816
  C:80FAH         LINE#         817
  C:80FDH         LINE#         818
  C:80FEH         LINE#         819
  C:80FEH         LINE#         820
  C:8101H         LINE#         821
  C:810CH         LINE#         822
  C:810FH         LINE#         824
  C:8114H         LINE#         825
  C:8117H         LINE#         826
  C:8117H         LINE#         827
  C:8117H         LINE#         828
  C:8117H         LINE#         829
  C:8117H         LINE#         832
  -------         ENDPROC       _SET_PWM_OUTPUT
  -------         PROC          PWM_INIT
  C:A5B0H         LINE#         835
  C:A5B0H         LINE#         836
  C:A5B0H         LINE#         838
  C:A5B3H         LINE#         839
  C:A5B5H         LINE#         840
  C:A5B8H         LINE#         843
  C:A5BBH         LINE#         851
  C:A5BEH         LINE#         888
  -------         ENDPROC       PWM_INIT
  C:513CH         SYMBOL        L?0186
  -------         PROC          _MONITOR_SET
  X:0006H         SYMBOL        val
  -------         DO            
  X:0007H         SYMBOL        busw1
  X:0015H         SYMBOL        busw2
  X:0023H         SYMBOL        yvmix
  X:002BH         SYMBOL        mode
  X:0032H         SYMBOL        conf1
  X:0058H         SYMBOL        conf2
  X:007EH         SYMBOL        conf3
  X:00A4H         SYMBOL        conf4
  X:00CAH         SYMBOL        conf5
  X:00F0H         SYMBOL        conf6
  X:0116H         SYMBOL        conf7
  X:013CH         SYMBOL        conf8
  X:0162H         SYMBOL        conf9
  X:0188H         SYMBOL        conf10
  X:01AEH         SYMBOL        conf11
  X:01D4H         SYMBOL        Error
  D:0007H         SYMBOL        ch
  -------         ENDDO         
  C:4E35H         LINE#         891
  C:4E3AH         LINE#         892
  C:4E3AH         LINE#         893
  C:4E45H         LINE#         894
BL51 BANKED LINKER/LOCATER V6.22                                                      11/30/2015  19:14:20  PAGE 44


  C:4E50H         LINE#         895
  C:4E63H         LINE#         896
  C:4E70H         LINE#         908
  C:4E7BH         LINE#         909
  C:4E86H         LINE#         910
  C:4E95H         LINE#         912
  C:4EA4H         LINE#         913
  C:4EB3H         LINE#         915
  C:4EC2H         LINE#         916
  C:4ED1H         LINE#         918
  C:4EE0H         LINE#         919
  C:4EEFH         LINE#         921
  C:4EFEH         LINE#         942
  C:4F0DH         LINE#         945
  C:4F12H         LINE#         946
  C:4F12H         LINE#         948
  C:4F1AH         LINE#         951
  C:4F1FH         LINE#         952
  C:4F25H         LINE#         954
  C:4F2AH         LINE#         958
  C:4F2FH         LINE#         960
  C:4F54H         LINE#         961
  C:4F54H         LINE#         962
  C:4F59H         LINE#         963
  C:4F60H         LINE#         964
  C:4F60H         LINE#         965
  C:4F64H         LINE#         966
  C:4F64H         LINE#         967
  C:4F66H         LINE#         968
  C:4F6BH         LINE#         969
  C:4F6BH         LINE#         970
  C:4F6DH         LINE#         971
  C:4F73H         LINE#         972
  C:4F79H         LINE#         973
  C:4F7BH         LINE#         974
  C:4F80H         LINE#         975
  C:4F85H         LINE#         976
  C:4F87H         LINE#         978
  C:4F87H         LINE#         979
  C:4F8DH         LINE#         980
  C:4F8FH         LINE#         981
  C:4F8FH         LINE#         982
  C:4F95H         LINE#         983
  C:4F97H         LINE#         985
  C:4F9DH         LINE#         986
  C:4F9DH         LINE#         989
  C:4FA7H         LINE#         990
  C:4FA7H         LINE#         991
  C:4FACH         LINE#         992
  C:4FAFH         LINE#         993
  C:4FB7H         LINE#         994
  C:4FB7H         LINE#         995
  C:4FBDH         LINE#         996
  C:4FBDH         LINE#         997
  C:4FC3H         LINE#         998
  C:4FC3H         LINE#         999
  C:4FC6H         LINE#         1000
BL51 BANKED LINKER/LOCATER V6.22                                                      11/30/2015  19:14:20  PAGE 45


  C:4FCCH         LINE#         1001
  C:4FCEH         LINE#         1003
  C:4FCEH         LINE#         1004
  C:4FD1H         LINE#         1005
  C:4FD6H         LINE#         1006
  C:4FD6H         LINE#         1007
  C:4FD8H         LINE#         1009
  C:4FD8H         LINE#         1010
  C:4FDEH         LINE#         1011
  C:4FDEH         LINE#         1012
  C:4FE1H         LINE#         1013
  C:4FE7H         LINE#         1014
  C:4FE9H         LINE#         1016
  C:4FE9H         LINE#         1017
  C:4FECH         LINE#         1018
  C:4FF1H         LINE#         1019
  C:4FF1H         LINE#         1021
  C:4FF1H         LINE#         1023
  C:4FFEH         LINE#         1025
  C:5000H         LINE#         1027
  C:5000H         LINE#         1029
  C:5006H         LINE#         1030
  C:5006H         LINE#         1031
  C:5009H         LINE#         1032
  C:500BH         LINE#         1034
  C:500BH         LINE#         1035
  C:5011H         LINE#         1036
  C:5011H         LINE#         1037
  C:5014H         LINE#         1038
  C:501AH         LINE#         1039
  C:501CH         LINE#         1041
  C:501CH         LINE#         1042
  C:501FH         LINE#         1043
  C:5024H         LINE#         1044
  C:5024H         LINE#         1046
  C:5024H         LINE#         1048
  C:5030H         LINE#         1050
  C:5030H         LINE#         1055
  C:5036H         LINE#         1056
  C:5036H         LINE#         1059
  C:5039H         LINE#         1062
  C:5040H         LINE#         1063
  C:5040H         LINE#         1065
  C:5047H         LINE#         1066
  C:5047H         LINE#         1071
  C:5055H         LINE#         1073
  C:505BH         LINE#         1074
  C:505BH         LINE#         1076
  C:505BH         LINE#         1097
  C:505BH         LINE#         1104
  C:5081H         LINE#         1105
  C:5081H         LINE#         1108
  C:5083H         LINE#         1109
  C:508CH         LINE#         1110
  C:50A7H         LINE#         1111
  C:50A9H         LINE#         1112
  C:50ABH         LINE#         1113
BL51 BANKED LINKER/LOCATER V6.22                                                      11/30/2015  19:14:20  PAGE 46


  C:50B4H         LINE#         1114
  C:50BDH         LINE#         1115
  C:50C6H         LINE#         1116
  C:50CFH         LINE#         1133
  C:50CFH         LINE#         1134
  C:50D9H         LINE#         1147
  C:50D9H         LINE#         1156
  C:50DEH         LINE#         1158
  C:50E4H         LINE#         1161
  C:510AH         LINE#         1162
  C:510AH         LINE#         1164
  C:510CH         LINE#         1165
  C:5110H         LINE#         1166
  C:5114H         LINE#         1167
  C:5118H         LINE#         1168
  C:511CH         LINE#         1169
  C:5120H         LINE#         1170
  C:5127H         LINE#         1171
  C:512BH         LINE#         1172
  C:5136H         LINE#         1174
  C:5136H         LINE#         1175
  C:5136H         LINE#         1176
  C:5136H         LINE#         1204
  C:513BH         LINE#         1206
  -------         ENDPROC       _MONITOR_SET
  -------         PROC          _PWM_SET
  D:0003H         SYMBOL        val
  -------         DO            
  D:0007H         SYMBOL        Error
  D:0002H         SYMBOL        ch
  D:0006H         SYMBOL        set_val
  -------         ENDDO         
  C:9F87H         LINE#         1210
  C:9F89H         LINE#         1211
  C:9F89H         LINE#         1213
  C:9F8CH         LINE#         1215
  C:9F98H         LINE#         1216
  C:9F98H         LINE#         1217
  C:9FA2H         LINE#         1218
  C:9FACH         LINE#         1221
  C:9FB1H         LINE#         1227
  C:9FB3H         LINE#         1228
  C:9FB3H         LINE#         1230
  C:9FB3H         LINE#         1231
  -------         ENDPROC       _PWM_SET
  -------         PROC          TEMP_CHECK
  -------         DO            
  D:0002H         SYMBOL        val
  -------         ENDDO         
  C:9139H         LINE#         1235
  C:9139H         LINE#         1236
  C:9139H         LINE#         1237
  C:913CH         LINE#         1241
  C:915EH         LINE#         1242
  C:9161H         LINE#         1243
  C:9165H         LINE#         1250
  C:9179H         LINE#         1252
BL51 BANKED LINKER/LOCATER V6.22                                                      11/30/2015  19:14:20  PAGE 47


  C:9180H         LINE#         1254
  C:9192H         LINE#         1289
  -------         ENDPROC       TEMP_CHECK
  -------         PROC          PRESS_CHECK
  -------         DO            
  X:0006H         SYMBOL        val
  X:0008H         SYMBOL        loop
  X:0009H         SYMBOL        temp_val
  -------         ENDDO         
  C:76CFH         LINE#         1294
  C:76CFH         LINE#         1295
  C:76CFH         LINE#         1304
  C:76D2H         LINE#         1305
  C:76D2H         LINE#         1315
  C:76DCH         LINE#         1316
  C:76E9H         LINE#         1318
  C:76F1H         LINE#         1319
  C:76F4H         LINE#         1321
  C:76FDH         LINE#         1322
  C:76FDH         LINE#         1323
  C:7716H         LINE#         1324
  C:7716H         LINE#         1326
  C:7734H         LINE#         1327
  C:7736H         LINE#         1329
  C:7736H         LINE#         1330
  C:773DH         LINE#         1331
  C:773DH         LINE#         1332
  C:773FH         LINE#         1334
  C:773FH         LINE#         1336
  C:7748H         LINE#         1337
  C:7748H         LINE#         1339
  C:7764H         LINE#         1340
  C:7766H         LINE#         1342
  C:7766H         LINE#         1343
  C:7770H         LINE#         1344
  C:7770H         LINE#         1345
  C:7770H         LINE#         1348
  C:7791H         LINE#         1351
  C:7794H         LINE#         1355
  C:77A7H         LINE#         1359
  C:77C4H         LINE#         1360
  C:77D5H         LINE#         1361
  C:77E6H         LINE#         1362
  C:77ECH         LINE#         1411
  -------         ENDPROC       PRESS_CHECK
  -------         PROC          VERSION_CHECK
  -------         DO            
  X:000CH         SYMBOL        loop
  -------         ENDDO         
  C:9242H         LINE#         1414
  C:9242H         LINE#         1415
  C:9242H         LINE#         1420
  C:9242H         LINE#         1421
  C:9242H         LINE#         1422
  C:9248H         LINE#         1423
  C:924CH         LINE#         1424
  C:9250H         LINE#         1426
BL51 BANKED LINKER/LOCATER V6.22                                                      11/30/2015  19:14:20  PAGE 48


  C:9253H         LINE#         1427
  C:9253H         LINE#         1428
  C:9253H         LINE#         1429
  C:9256H         LINE#         1435
  C:9264H         LINE#         1436
  C:9277H         LINE#         1441
  C:9286H         LINE#         1442
  C:9286H         LINE#         1443
  C:928EH         LINE#         1445
  C:9296H         LINE#         1447
  -------         ENDPROC       VERSION_CHECK
  -------         PROC          CAMERA_VERSION_CHECK
  -------         DO            
  X:000CH         SYMBOL        loop
  -------         ENDDO         
  C:9019H         LINE#         1449
  C:9019H         LINE#         1450
  C:9019H         LINE#         1454
  C:9019H         LINE#         1455
  C:9019H         LINE#         1456
  C:901FH         LINE#         1457
  C:9027H         LINE#         1458
  C:902FH         LINE#         1460
  C:9036H         LINE#         1461
  C:9036H         LINE#         1462
  C:9036H         LINE#         1463
  C:9039H         LINE#         1469
  C:9047H         LINE#         1470
  C:905AH         LINE#         1475
  C:9069H         LINE#         1476
  C:9069H         LINE#         1477
  C:9071H         LINE#         1479
  C:9079H         LINE#         1481
  -------         ENDPROC       CAMERA_VERSION_CHECK
  -------         ENDMOD        MAIN

  -------         MODULE        OSD_GRAPH
  C:0000H         SYMBOL        _ICE_DUMMY_
  D:0080H         PUBLIC        P0
  D:0090H         PUBLIC        P1
  D:00A0H         PUBLIC        P2
  D:00C0H         PUBLIC        XICON
  D:00B0H         PUBLIC        P3
  D:00E8H         PUBLIC        P4
  D:00A8H         PUBLIC        IE
  D:00B8H         PUBLIC        IP
  D:00D8H         PUBLIC        CCON
  C:1354H         PUBLIC        GRAPH16_TABLE
  C:A6AEH         PUBLIC        _PCT_PreSetGraphAttr
  D:00C0H         PUBLIC        WDTC
  D:0098H         PUBLIC        SCON
  D:0088H         PUBLIC        TCON
  C:002EH         PUBLIC        GRAPH_TABLE
  C:6425H         PUBLIC        _PCT_OSD16x16GraphX
  C:A6A8H         PUBLIC        PCT_ClearGraphAttr
  X:03DCH         PUBLIC        graphattr
  D:00F8H         PUBLIC        IPA
BL51 BANKED LINKER/LOCATER V6.22                                                      11/30/2015  19:14:20  PAGE 49


  C:907AH         PUBLIC        _PCT_ShowGraphString
  D:00C8H         PUBLIC        T2CON
  D:00D0H         PUBLIC        PSW
  C:9C4CH         SYMBOL        Com001D
  C:9C4CH         SYMBOL        L?0030
  C:9C4CH         SYMBOL        L?0031
  C:9C4FH         SYMBOL        L?0032
  C:9C5AH         SYMBOL        L?0033
  C:9C5DH         SYMBOL        L?0034
  C:9C66H         SYMBOL        L?0035
  C:9C7AH         SYMBOL        L?0039
  -------         PROC          COM001D
  -------         ENDPROC       COM001D
  -------         PROC          PCT_CLEARGRAPHATTR
  C:A6A8H         LINE#         73
  C:A6A8H         LINE#         74
  C:A6A8H         LINE#         75
  C:A6ADH         LINE#         76
  -------         ENDPROC       PCT_CLEARGRAPHATTR
  -------         PROC          _PCT_PRESETGRAPHATTR
  D:0007H         SYMBOL        _attribute
  C:A6AEH         LINE#         82
  C:A6AEH         LINE#         83
  C:A6AEH         LINE#         84
  C:A6B3H         LINE#         86
  -------         ENDPROC       _PCT_PRESETGRAPHATTR
  C:656DH         SYMBOL        L?0027
  C:6596H         SYMBOL        L?0028
  C:65A9H         SYMBOL        L?0036
  C:65B1H         SYMBOL        L?0037
  C:65BCH         SYMBOL        L?0038
  -------         PROC          _PCT_OSD16X16GRAPHX
  X:01E7H         SYMBOL        _posx
  X:01E8H         SYMBOL        _posy
  D:0003H         SYMBOL        _indx
  -------         DO            
  X:01EAH         SYMBOL        row
  X:01EBH         SYMBOL        column
  X:01ECH         SYMBOL        cntr
  X:01EDH         SYMBOL        cntc
  X:01EEH         SYMBOL        posx
  X:01EFH         SYMBOL        graph
  -------         ENDDO         
  C:6425H         LINE#         92
  C:6430H         LINE#         93
  C:6430H         LINE#         97
  C:6438H         LINE#         98
  C:6440H         LINE#         99
  C:6456H         LINE#         100
  C:6462H         LINE#         101
  C:6480H         LINE#         102
  C:6486H         LINE#         103
  C:648DH         LINE#         105
  C:64A0H         LINE#         106
  C:64B3H         LINE#         107
  C:64C4H         LINE#         108
  C:64CFH         LINE#         109
BL51 BANKED LINKER/LOCATER V6.22                                                      11/30/2015  19:14:20  PAGE 50


  C:64DAH         LINE#         110
  C:64E8H         LINE#         111
  C:64F3H         LINE#         112
  C:64FDH         LINE#         114
  C:6507H         LINE#         115
  C:6512H         LINE#         117
  C:6521H         LINE#         118
  C:6524H         LINE#         119
  C:652AH         LINE#         121
  C:6534H         LINE#         122
  C:6537H         LINE#         123
  C:653DH         LINE#         125
  C:6543H         LINE#         126
  C:654DH         LINE#         127
  C:6555H         LINE#         128
  C:6563H         LINE#         129
  C:656CH         LINE#         130
  -------         ENDPROC       _PCT_OSD16X16GRAPHX
  -------         PROC          _PCT_SHOWGRAPHSTRING
  X:01E0H         SYMBOL        _path
  X:01E1H         SYMBOL        _addrx
  X:01E2H         SYMBOL        _addry
  X:01E3H         SYMBOL        _strptr
  -------         DO            
  X:01E6H         SYMBOL        slen
  -------         ENDDO         
  C:907AH         LINE#         136
  C:9085H         LINE#         137
  C:9085H         LINE#         140
  C:9091H         LINE#         141
  C:9098H         LINE#         142
  C:909FH         LINE#         143
  C:909FH         LINE#         144
  C:90B4H         LINE#         145
  C:90BAH         LINE#         146
  C:90C4H         LINE#         147
  C:90CBH         LINE#         148
  C:90D0H         LINE#         149
  C:90D2H         LINE#         150
  C:90D2H         LINE#         151
  C:90D7H         LINE#         152
  C:90D7H         LINE#         153
  C:90DAH         LINE#         155
  -------         ENDPROC       _PCT_SHOWGRAPHSTRING
  -------         ENDMOD        OSD_GRAPH

  -------         MODULE        OSDACTION_
  C:0000H         SYMBOL        _ICE_DUMMY_
  C:9386H         PUBLIC        PCT_InitialOSD
  C:989AH         PUBLIC        PCT_ShowModeIcon
  D:0080H         PUBLIC        P0
  D:0090H         PUBLIC        P1
  D:00A0H         PUBLIC        P2
  D:00C0H         PUBLIC        XICON
  D:00B0H         PUBLIC        P3
  D:00E8H         PUBLIC        P4
  C:A698H         PUBLIC        PCT_EnfalshVLoss
BL51 BANKED LINKER/LOCATER V6.22                                                      11/30/2015  19:14:20  PAGE 51


  C:A316H         PUBLIC        camstr
  D:00A8H         PUBLIC        IE
  D:00B8H         PUBLIC        IP
  C:6A25H         PUBLIC        _PCT_ShowIndicateIcon
  C:A333H         PUBLIC        SPEAKICON
  D:00D8H         PUBLIC        CCON
  X:03DDH         PUBLIC        VlossCount
  D:00C0H         PUBLIC        WDTC
  D:0098H         PUBLIC        SCON
  D:0088H         PUBLIC        TCON
  B:0021H.0       PUBLIC        OSDPAGE2
  B:0021H.1       PUBLIC        OSDPAGE3
  B:0021H.2       PUBLIC        OSDPAGE4
  B:0021H.3       PUBLIC        OSDPAGE5
  D:0021H         PUBLIC        osdflage
  C:9664H         PUBLIC        PCT_GetVideoSignalStatus
  C:A32BH         PUBLIC        indicate_icon
  C:A25FH         PUBLIC        PCT_OSDActionForHS
  D:00F8H         PUBLIC        IPA
  C:A335H         PUBLIC        msgVLOSS
  C:2C9BH         PUBLIC        PCT_ShowVLoss
  D:00C8H         PUBLIC        T2CON
  C:36FDH         PUBLIC        _PCT_ShowSpeakIcon
  C:321FH         PUBLIC        _PCT_ShowMirrorIcon
  C:4400H         PUBLIC        _PCT_OSD_ActionPthX
  D:00D0H         PUBLIC        PSW
  C:81DBH         SYMBOL        Com020E
  C:81DBH         SYMBOL        L?0527
  C:81DBH         SYMBOL        L?0528
  C:81DEH         SYMBOL        L?0529
  C:81EAH         SYMBOL        L?0530
  C:81EBH         SYMBOL        L?0531
  C:81F3H         SYMBOL        L?0532
  C:81F3H         SYMBOL        L?0533
  C:81F6H         SYMBOL        L?0534
  C:81FFH         SYMBOL        L?0535
  C:81FFH         SYMBOL        L?0536
  C:8202H         SYMBOL        L?0537
  C:820CH         SYMBOL        L?0538
  C:820CH         SYMBOL        L?0539
  C:8215H         SYMBOL        L?0542
  C:8215H         SYMBOL        L?0543
  C:821DH         SYMBOL        L?0547
  C:821DH         SYMBOL        L?0548
  C:8223H         SYMBOL        L?0550
  C:8223H         SYMBOL        L?0551
  C:822BH         SYMBOL        L?0554
  C:822BH         SYMBOL        L?0555
  C:8233H         SYMBOL        L?0565
  C:8233H         SYMBOL        L?0566
  C:823BH         SYMBOL        L?0569
  C:823BH         SYMBOL        L?0570
  C:8241H         SYMBOL        L?0580
  C:8241H         SYMBOL        L?0581
  C:8244H         SYMBOL        L?0582
  C:824DH         SYMBOL        L?0598
  C:824DH         SYMBOL        L?0599
BL51 BANKED LINKER/LOCATER V6.22                                                      11/30/2015  19:14:20  PAGE 52


  C:8255H         SYMBOL        L?0603
  C:8255H         SYMBOL        L?0604
  C:825CH         SYMBOL        L?0609
  C:825CH         SYMBOL        L?0610
  C:825EH         SYMBOL        L?0611
  C:8265H         SYMBOL        L?0614
  C:8265H         SYMBOL        L?0615
  C:826EH         SYMBOL        L?0616
  C:826EH         SYMBOL        L?0617
  C:8274H         SYMBOL        L?0618
  C:8274H         SYMBOL        L?0619
  C:827BH         SYMBOL        L?0623
  C:827BH         SYMBOL        L?0624
  C:8283H         SYMBOL        L?0630
  C:8283H         SYMBOL        L?0631
  C:828BH         SYMBOL        L?0632
  C:828BH         SYMBOL        L?0633
  -------         PROC          COM020E
  -------         ENDPROC       COM020E
  C:93BCH         SYMBOL        L?0606
  -------         PROC          PCT_INITIALOSD
  -------         DO            
  D:002FH         SYMBOL        page
  -------         ENDDO         
  C:9386H         LINE#         101
  C:9386H         LINE#         102
  C:9386H         LINE#         105
  C:9389H         LINE#         106
  C:938CH         LINE#         108
  C:9391H         LINE#         109
  C:9396H         LINE#         110
  C:9399H         LINE#         111
  C:939BH         LINE#         112
  C:939EH         LINE#         113
  C:93A7H         LINE#         114
  C:93ACH         LINE#         115
  C:93B1H         LINE#         116
  C:93B3H         LINE#         117
  C:93B6H         LINE#         119
  C:93BBH         LINE#         120
  -------         ENDPROC       PCT_INITIALOSD
  C:4752H         SYMBOL        L?0544
  C:4761H         SYMBOL        L?0552
  C:4770H         SYMBOL        L?0560
  C:477FH         SYMBOL        L?0593
  C:478EH         SYMBOL        L?0612
  C:4796H         SYMBOL        L?0625
  C:479EH         SYMBOL        L?0634
  C:47A6H         SYMBOL        L?0635
  -------         PROC          _PCT_OSD_ACTIONPTHX
  X:01DDH         SYMBOL        _attr
  C:4400H         LINE#         127
  C:4406H         LINE#         128
  C:4406H         LINE#         129
  C:440BH         LINE#         130
  C:4410H         LINE#         132
  C:4445H         LINE#         134
BL51 BANKED LINKER/LOCATER V6.22                                                      11/30/2015  19:14:20  PAGE 53


  C:4445H         LINE#         135
  C:4451H         LINE#         136
  C:4454H         LINE#         138
  C:4454H         LINE#         139
  C:446AH         LINE#         140
  C:4485H         LINE#         141
  C:4488H         LINE#         143
  C:4488H         LINE#         144
  C:44A2H         LINE#         145
  C:44B9H         LINE#         146
  C:44BCH         LINE#         148
  C:44BCH         LINE#         149
  C:44CEH         LINE#         150
  C:44E0H         LINE#         151
  C:44F7H         LINE#         152
  C:44FAH         LINE#         154
  C:44FAH         LINE#         155
  C:44FAH         LINE#         157
  C:44FAH         LINE#         158
  C:4509H         LINE#         159
  C:451BH         LINE#         160
  C:4532H         LINE#         161
  C:4535H         LINE#         163
  C:4535H         LINE#         164
  C:4544H         LINE#         165
  C:4556H         LINE#         166
  C:456DH         LINE#         167
  C:4570H         LINE#         169
  C:4570H         LINE#         170
  C:457FH         LINE#         171
  C:4594H         LINE#         172
  C:45A6H         LINE#         173
  C:45BDH         LINE#         174
  C:45C0H         LINE#         177
  C:45C0H         LINE#         178
  C:45D4H         LINE#         179
  C:45D7H         LINE#         181
  C:45D7H         LINE#         182
  C:45E9H         LINE#         183
  C:4600H         LINE#         184
  C:4603H         LINE#         186
  C:4603H         LINE#         187
  C:4612H         LINE#         188
  C:4629H         LINE#         189
  C:462CH         LINE#         191
  C:462CH         LINE#         192
  C:4642H         LINE#         193
  C:4657H         LINE#         194
  C:466EH         LINE#         195
  C:4671H         LINE#         197
  C:4671H         LINE#         198
  C:4671H         LINE#         200
  C:4671H         LINE#         201
  C:4683H         LINE#         202
  C:4698H         LINE#         203
  C:46AFH         LINE#         204
  C:46B2H         LINE#         206
BL51 BANKED LINKER/LOCATER V6.22                                                      11/30/2015  19:14:20  PAGE 54


  C:46B2H         LINE#         207
  C:46C4H         LINE#         208
  C:46DDH         LINE#         209
  C:46F1H         LINE#         210
  C:46F4H         LINE#         212
  C:46F4H         LINE#         213
  C:4706H         LINE#         214
  C:471FH         LINE#         215
  C:4738H         LINE#         216
  C:4751H         LINE#         217
  C:4751H         LINE#         219
  C:4751H         LINE#         220
  C:4751H         LINE#         221
  C:4751H         LINE#         222
  -------         ENDPROC       _PCT_OSD_ACTIONPTHX
  -------         PROC          PCT_ENFALSHVLOSS
  C:A698H         LINE#         228
  C:A698H         LINE#         229
  C:A698H         LINE#         230
  C:A69FH         LINE#         231
  -------         ENDPROC       PCT_ENFALSHVLOSS
  -------         PROC          PCT_GETVIDEOSIGNALSTATUS
  C:9664H         LINE#         237
  C:9664H         LINE#         238
  C:9664H         LINE#         242
  C:9675H         LINE#         244
  C:967CH         LINE#         250
  C:967EH         LINE#         251
  C:9695H         LINE#         253
  C:969AH         LINE#         254
  C:969FH         LINE#         256
  C:96A2H         LINE#         258
  C:96AAH         LINE#         259
  -------         ENDPROC       PCT_GETVIDEOSIGNALSTATUS
  C:6B59H         SYMBOL        L?0559
  C:6B72H         SYMBOL        L?0586
  -------         PROC          _PCT_SHOWINDICATEICON
  X:01DDH         SYMBOL        _attr
  -------         DO            
  D:002FH         SYMBOL        iconid
  -------         ENDDO         
  C:6A25H         LINE#         277
  C:6A2BH         LINE#         278
  C:6A2BH         LINE#         282
  C:6A30H         LINE#         283
  C:6A5FH         LINE#         285
  C:6A5FH         LINE#         286
  C:6A5FH         LINE#         287
  C:6A68H         LINE#         288
  C:6A6AH         LINE#         289
  C:6A6AH         LINE#         290
  C:6A6AH         LINE#         291
  C:6A6DH         LINE#         292
  C:6A6DH         LINE#         293
  C:6A6DH         LINE#         294
  C:6A70H         LINE#         296
  C:6A70H         LINE#         297
BL51 BANKED LINKER/LOCATER V6.22                                                      11/30/2015  19:14:20  PAGE 55


  C:6A70H         LINE#         299
  C:6A79H         LINE#         300
  C:6A7BH         LINE#         301
  C:6A7BH         LINE#         302
  C:6A8BH         LINE#         303
  C:6A8DH         LINE#         304
  C:6A93H         LINE#         305
  C:6A93H         LINE#         308
  C:6A9FH         LINE#         309
  C:6AA1H         LINE#         310
  C:6AA1H         LINE#         311
  C:6AA1H         LINE#         312
  C:6AA4H         LINE#         317
  C:6AA4H         LINE#         318
  C:6AA4H         LINE#         320
  C:6AADH         LINE#         321
  C:6AAFH         LINE#         322
  C:6AAFH         LINE#         323
  C:6ABFH         LINE#         324
  C:6AC1H         LINE#         325
  C:6AC7H         LINE#         326
  C:6AC7H         LINE#         329
  C:6AD3H         LINE#         330
  C:6AD5H         LINE#         331
  C:6AD5H         LINE#         332
  C:6AD5H         LINE#         333
  C:6AD8H         LINE#         334
  C:6AD8H         LINE#         335
  C:6AD8H         LINE#         336
  C:6ADBH         LINE#         338
  C:6ADBH         LINE#         339
  C:6ADBH         LINE#         341
  C:6AE4H         LINE#         342
  C:6AE6H         LINE#         343
  C:6AE6H         LINE#         344
  C:6AF1H         LINE#         345
  C:6AF4H         LINE#         346
  C:6AFBH         LINE#         347
  C:6AFBH         LINE#         348
  C:6AFEH         LINE#         350
  C:6AFEH         LINE#         351
  C:6AFEH         LINE#         352
  C:6AFEH         LINE#         354
  C:6AFEH         LINE#         355
  C:6AFEH         LINE#         357
  C:6B07H         LINE#         358
  C:6B09H         LINE#         359
  C:6B09H         LINE#         360
  C:6B14H         LINE#         361
  C:6B16H         LINE#         362
  C:6B19H         LINE#         363
  C:6B19H         LINE#         365
  C:6B1BH         LINE#         367
  C:6B1BH         LINE#         368
  C:6B1BH         LINE#         370
  C:6B27H         LINE#         371
  C:6B29H         LINE#         372
BL51 BANKED LINKER/LOCATER V6.22                                                      11/30/2015  19:14:20  PAGE 56


  C:6B32H         LINE#         373
  C:6B4EH         LINE#         374
  C:6B4EH         LINE#         375
  C:6B58H         LINE#         376
  C:6B58H         LINE#         377
  C:6B58H         LINE#         379
  C:6B58H         LINE#         380
  C:6B58H         LINE#         381
  C:6B58H         LINE#         383
  C:6B58H         LINE#         384
  C:6B58H         LINE#         385
  C:6B58H         LINE#         386
  -------         ENDPROC       _PCT_SHOWINDICATEICON
  C:3629H         SYMBOL        L?0540
  C:363AH         SYMBOL        L?0545
  C:364BH         SYMBOL        L?0553
  C:3656H         SYMBOL        L?0558
  C:3661H         SYMBOL        L?0563
  C:366CH         SYMBOL        L?0564
  C:3676H         SYMBOL        L?0572
  C:3680H         SYMBOL        L?0573
  C:368BH         SYMBOL        L?0578
  C:3696H         SYMBOL        L?0583
  C:36A0H         SYMBOL        L?0588
  C:36ABH         SYMBOL        L?0591
  C:36B5H         SYMBOL        L?0595
  C:36C0H         SYMBOL        L?0596
  C:36CAH         SYMBOL        L?0608
  C:36D5H         SYMBOL        L?0620
  C:36DFH         SYMBOL        L?0621
  C:36E9H         SYMBOL        L?0637
  C:36F3H         SYMBOL        L?0638
  -------         PROC          _PCT_SHOWMIRRORICON
  X:01DDH         SYMBOL        _attr
  C:321FH         LINE#         396
  C:3225H         LINE#         397
  C:3225H         LINE#         398
  C:322AH         LINE#         399
  C:325FH         LINE#         401
  C:325FH         LINE#         403
  C:326BH         LINE#         404
  C:326BH         LINE#         405
  C:326EH         LINE#         406
  C:326EH         LINE#         407
  C:326EH         LINE#         408
  C:3271H         LINE#         410
  C:3271H         LINE#         412
  C:327DH         LINE#         413
  C:3286H         LINE#         414
  C:3288H         LINE#         415
  C:328BH         LINE#         416
  C:328BH         LINE#         418
  C:3297H         LINE#         419
  C:3297H         LINE#         420
  C:329AH         LINE#         421
  C:329AH         LINE#         422
  C:329AH         LINE#         423
BL51 BANKED LINKER/LOCATER V6.22                                                      11/30/2015  19:14:20  PAGE 57


  C:329DH         LINE#         425
  C:329DH         LINE#         427
  C:32A9H         LINE#         428
  C:32AFH         LINE#         429
  C:32B1H         LINE#         430
  C:32B4H         LINE#         431
  C:32B4H         LINE#         434
  C:32C0H         LINE#         435
  C:32C0H         LINE#         436
  C:32C3H         LINE#         437
  C:32C3H         LINE#         438
  C:32C3H         LINE#         440
  C:32C6H         LINE#         442
  C:32C6H         LINE#         444
  C:32D2H         LINE#         445
  C:32DBH         LINE#         446
  C:32DDH         LINE#         447
  C:32E0H         LINE#         448
  C:32E0H         LINE#         451
  C:32ECH         LINE#         452
  C:32F5H         LINE#         453
  C:32F7H         LINE#         454
  C:32FFH         LINE#         455
  C:32FFH         LINE#         458
  C:330BH         LINE#         459
  C:330BH         LINE#         460
  C:330EH         LINE#         461
  C:330EH         LINE#         462
  C:330EH         LINE#         463
  C:3311H         LINE#         465
  C:3311H         LINE#         466
  C:3311H         LINE#         468
  C:3311H         LINE#         470
  C:331DH         LINE#         471
  C:3323H         LINE#         472
  C:3325H         LINE#         473
  C:3328H         LINE#         474
  C:3328H         LINE#         477
  C:3334H         LINE#         478
  C:333DH         LINE#         479
  C:333FH         LINE#         480
  C:3342H         LINE#         481
  C:3342H         LINE#         484
  C:334EH         LINE#         485
  C:334EH         LINE#         486
  C:3351H         LINE#         487
  C:3351H         LINE#         488
  C:3351H         LINE#         489
  C:3354H         LINE#         491
  C:3354H         LINE#         493
  C:3360H         LINE#         494
  C:3366H         LINE#         495
  C:3368H         LINE#         496
  C:336BH         LINE#         497
  C:336BH         LINE#         500
  C:3377H         LINE#         501
  C:3380H         LINE#         502
BL51 BANKED LINKER/LOCATER V6.22                                                      11/30/2015  19:14:20  PAGE 58


  C:3382H         LINE#         503
  C:3385H         LINE#         504
  C:3385H         LINE#         507
  C:3391H         LINE#         508
  C:3399H         LINE#         509
  C:339CH         LINE#         510
  C:33A0H         LINE#         511
  C:33A0H         LINE#         512
  C:33A3H         LINE#         514
  C:33A3H         LINE#         516
  C:33AFH         LINE#         517
  C:33B5H         LINE#         518
  C:33B7H         LINE#         519
  C:33BAH         LINE#         520
  C:33BAH         LINE#         523
  C:33C6H         LINE#         524
  C:33CFH         LINE#         525
  C:33D1H         LINE#         526
  C:33D4H         LINE#         527
  C:33D4H         LINE#         530
  C:33E0H         LINE#         531
  C:33E9H         LINE#         532
  C:33EBH         LINE#         533
  C:33F3H         LINE#         534
  C:33F3H         LINE#         537
  C:33FFH         LINE#         538
  C:3407H         LINE#         539
  C:340AH         LINE#         540
  C:340EH         LINE#         541
  C:340EH         LINE#         542
  C:3411H         LINE#         545
  C:3411H         LINE#         547
  C:341DH         LINE#         548
  C:3425H         LINE#         549
  C:3427H         LINE#         550
  C:342CH         LINE#         551
  C:342CH         LINE#         552
  C:342EH         LINE#         554
  C:342EH         LINE#         556
  C:343AH         LINE#         557
  C:3443H         LINE#         558
  C:3445H         LINE#         559
  C:3448H         LINE#         560
  C:3448H         LINE#         562
  C:3454H         LINE#         563
  C:345EH         LINE#         564
  C:3461H         LINE#         565
  C:3466H         LINE#         566
  C:3466H         LINE#         567
  C:3469H         LINE#         569
  C:3469H         LINE#         571
  C:3475H         LINE#         572
  C:347EH         LINE#         573
  C:3480H         LINE#         574
  C:3483H         LINE#         575
  C:3483H         LINE#         578
  C:348FH         LINE#         579
BL51 BANKED LINKER/LOCATER V6.22                                                      11/30/2015  19:14:20  PAGE 59


  C:3499H         LINE#         580
  C:349CH         LINE#         581
  C:349FH         LINE#         582
  C:349FH         LINE#         584
  C:34A2H         LINE#         586
  C:34A2H         LINE#         588
  C:34AEH         LINE#         589
  C:34B7H         LINE#         590
  C:34B9H         LINE#         591
  C:34BCH         LINE#         592
  C:34BCH         LINE#         595
  C:34C8H         LINE#         596
  C:34D1H         LINE#         597
  C:34D3H         LINE#         598
  C:34DBH         LINE#         599
  C:34DBH         LINE#         602
  C:34E7H         LINE#         603
  C:34F1H         LINE#         604
  C:34F4H         LINE#         605
  C:34FCH         LINE#         606
  C:34FCH         LINE#         607
  C:34FFH         LINE#         609
  C:34FFH         LINE#         610
  C:34FFH         LINE#         612
  C:34FFH         LINE#         614
  C:350BH         LINE#         615
  C:3514H         LINE#         616
  C:3516H         LINE#         617
  C:3519H         LINE#         618
  C:3519H         LINE#         621
  C:3525H         LINE#         622
  C:352EH         LINE#         623
  C:3530H         LINE#         624
  C:3533H         LINE#         625
  C:3533H         LINE#         628
  C:353FH         LINE#         629
  C:3549H         LINE#         630
  C:354CH         LINE#         631
  C:3551H         LINE#         632
  C:3551H         LINE#         633
  C:3554H         LINE#         635
  C:3554H         LINE#         637
  C:3560H         LINE#         638
  C:3569H         LINE#         639
  C:356BH         LINE#         640
  C:356EH         LINE#         641
  C:356EH         LINE#         644
  C:357AH         LINE#         645
  C:3583H         LINE#         646
  C:3585H         LINE#         647
  C:358BH         LINE#         648
  C:358BH         LINE#         651
  C:3597H         LINE#         652
  C:35A1H         LINE#         653
  C:35A4H         LINE#         654
  C:35ACH         LINE#         655
  C:35ACH         LINE#         656
BL51 BANKED LINKER/LOCATER V6.22                                                      11/30/2015  19:14:20  PAGE 60


  C:35AFH         LINE#         658
  C:35AFH         LINE#         660
  C:35BBH         LINE#         661
  C:35C4H         LINE#         662
  C:35C6H         LINE#         663
  C:35C9H         LINE#         664
  C:35C9H         LINE#         667
  C:35D5H         LINE#         668
  C:35DEH         LINE#         669
  C:35E0H         LINE#         670
  C:35E6H         LINE#         671
  C:35E6H         LINE#         674
  C:35F2H         LINE#         675
  C:35FBH         LINE#         676
  C:35FDH         LINE#         677
  C:3605H         LINE#         678
  C:3605H         LINE#         681
  C:3611H         LINE#         682
  C:3620H         LINE#         683
  C:3620H         LINE#         684
  C:3628H         LINE#         685
  C:3628H         LINE#         686
  C:3628H         LINE#         688
  C:3628H         LINE#         689
  C:3628H         LINE#         690
  C:3628H         LINE#         691
  -------         ENDPROC       _PCT_SHOWMIRRORICON
  C:3ADDH         SYMBOL        L?0541
  C:3AEEH         SYMBOL        L?0546
  C:3AFFH         SYMBOL        L?0556
  C:3B0AH         SYMBOL        L?0561
  C:3B15H         SYMBOL        L?0567
  C:3B20H         SYMBOL        L?0568
  C:3B2AH         SYMBOL        L?0574
  C:3B34H         SYMBOL        L?0577
  C:3B3FH         SYMBOL        L?0584
  C:3B4AH         SYMBOL        L?0587
  C:3B54H         SYMBOL        L?0592
  C:3B5FH         SYMBOL        L?0594
  C:3B69H         SYMBOL        L?0602
  C:3B74H         SYMBOL        L?0605
  C:3B7EH         SYMBOL        L?0622
  C:3B88H         SYMBOL        L?0626
  C:3B93H         SYMBOL        L?0627
  C:3B9DH         SYMBOL        L?0639
  -------         PROC          _PCT_SHOWSPEAKICON
  X:03CAH         SYMBOL        _attr
  C:36FDH         LINE#         702
  C:3703H         LINE#         703
  C:3703H         LINE#         704
  C:3708H         LINE#         705
  C:373AH         LINE#         707
  C:373AH         LINE#         708
  C:3746H         LINE#         709
  C:3746H         LINE#         710
  C:3749H         LINE#         711
  C:3749H         LINE#         712
BL51 BANKED LINKER/LOCATER V6.22                                                      11/30/2015  19:14:20  PAGE 61


  C:3749H         LINE#         713
  C:374CH         LINE#         715
  C:374CH         LINE#         716
  C:3758H         LINE#         717
  C:3761H         LINE#         718
  C:3763H         LINE#         719
  C:3766H         LINE#         720
  C:3766H         LINE#         721
  C:3772H         LINE#         722
  C:3772H         LINE#         723
  C:3775H         LINE#         724
  C:3778H         LINE#         725
  C:3778H         LINE#         726
  C:377BH         LINE#         728
  C:377BH         LINE#         729
  C:3787H         LINE#         730
  C:378DH         LINE#         731
  C:378FH         LINE#         732
  C:3792H         LINE#         733
  C:3792H         LINE#         734
  C:379EH         LINE#         735
  C:379EH         LINE#         736
  C:37A1H         LINE#         737
  C:37A1H         LINE#         738
  C:37A1H         LINE#         739
  C:37A4H         LINE#         741
  C:37A4H         LINE#         742
  C:37B0H         LINE#         743
  C:37B9H         LINE#         744
  C:37BBH         LINE#         745
  C:37BEH         LINE#         746
  C:37BEH         LINE#         747
  C:37CAH         LINE#         748
  C:37D3H         LINE#         749
  C:37D5H         LINE#         750
  C:37DDH         LINE#         751
  C:37DDH         LINE#         752
  C:37E9H         LINE#         753
  C:37E9H         LINE#         754
  C:37ECH         LINE#         755
  C:37ECH         LINE#         756
  C:37ECH         LINE#         757
  C:37EFH         LINE#         759
  C:37EFH         LINE#         760
  C:37EFH         LINE#         762
  C:37EFH         LINE#         763
  C:37FBH         LINE#         764
  C:3801H         LINE#         765
  C:3803H         LINE#         766
  C:3806H         LINE#         767
  C:3806H         LINE#         768
  C:3812H         LINE#         769
  C:381BH         LINE#         770
  C:381DH         LINE#         771
  C:3820H         LINE#         772
  C:3820H         LINE#         773
  C:382CH         LINE#         774
BL51 BANKED LINKER/LOCATER V6.22                                                      11/30/2015  19:14:20  PAGE 62


  C:382CH         LINE#         775
  C:382FH         LINE#         776
  C:382FH         LINE#         777
  C:382FH         LINE#         778
  C:3832H         LINE#         780
  C:3832H         LINE#         781
  C:383EH         LINE#         782
  C:3844H         LINE#         783
  C:3846H         LINE#         784
  C:3849H         LINE#         785
  C:3849H         LINE#         786
  C:3855H         LINE#         787
  C:385EH         LINE#         788
  C:3860H         LINE#         789
  C:3863H         LINE#         790
  C:3863H         LINE#         791
  C:386FH         LINE#         792
  C:3877H         LINE#         793
  C:387AH         LINE#         794
  C:387EH         LINE#         795
  C:387EH         LINE#         796
  C:3881H         LINE#         798
  C:3881H         LINE#         799
  C:388DH         LINE#         800
  C:3893H         LINE#         801
  C:3895H         LINE#         802
  C:3898H         LINE#         803
  C:3898H         LINE#         804
  C:38A4H         LINE#         805
  C:38ADH         LINE#         806
  C:38AFH         LINE#         807
  C:38B2H         LINE#         808
  C:38B2H         LINE#         809
  C:38BEH         LINE#         810
  C:38C7H         LINE#         811
  C:38C9H         LINE#         812
  C:38D1H         LINE#         813
  C:38D1H         LINE#         814
  C:38DDH         LINE#         815
  C:38E5H         LINE#         816
  C:38E8H         LINE#         817
  C:38ECH         LINE#         818
  C:38ECH         LINE#         819
  C:38EFH         LINE#         822
  C:38EFH         LINE#         823
  C:38FBH         LINE#         824
  C:3905H         LINE#         825
  C:3908H         LINE#         826
  C:390FH         LINE#         827
  C:390FH         LINE#         828
  C:3912H         LINE#         830
  C:3912H         LINE#         831
  C:3912H         LINE#         833
  C:3912H         LINE#         834
  C:391EH         LINE#         835
  C:3927H         LINE#         836
  C:3929H         LINE#         837
BL51 BANKED LINKER/LOCATER V6.22                                                      11/30/2015  19:14:20  PAGE 63


  C:392CH         LINE#         838
  C:392CH         LINE#         839
  C:3938H         LINE#         840
  C:3942H         LINE#         841
  C:3945H         LINE#         842
  C:394CH         LINE#         843
  C:394CH         LINE#         844
  C:394FH         LINE#         846
  C:394FH         LINE#         847
  C:395BH         LINE#         848
  C:396AH         LINE#         849
  C:396CH         LINE#         850
  C:3976H         LINE#         851
  C:3976H         LINE#         852
  C:3982H         LINE#         853
  C:398BH         LINE#         854
  C:398DH         LINE#         855
  C:3995H         LINE#         856
  C:3995H         LINE#         857
  C:39A1H         LINE#         858
  C:39ABH         LINE#         859
  C:39AEH         LINE#         860
  C:39B6H         LINE#         861
  C:39B6H         LINE#         862
  C:39B9H         LINE#         864
  C:39B9H         LINE#         865
  C:39B9H         LINE#         867
  C:39B9H         LINE#         868
  C:39C5H         LINE#         869
  C:39CEH         LINE#         870
  C:39D0H         LINE#         871
  C:39D3H         LINE#         872
  C:39D3H         LINE#         873
  C:39DFH         LINE#         874
  C:39E8H         LINE#         875
  C:39EAH         LINE#         876
  C:39EDH         LINE#         877
  C:39EDH         LINE#         878
  C:39F9H         LINE#         879
  C:3A03H         LINE#         880
  C:3A06H         LINE#         881
  C:3A0BH         LINE#         882
  C:3A0BH         LINE#         883
  C:3A0EH         LINE#         885
  C:3A0EH         LINE#         886
  C:3A1AH         LINE#         887
  C:3A23H         LINE#         888
  C:3A25H         LINE#         889
  C:3A28H         LINE#         890
  C:3A28H         LINE#         891
  C:3A34H         LINE#         892
  C:3A3DH         LINE#         893
  C:3A3FH         LINE#         894
  C:3A42H         LINE#         895
  C:3A42H         LINE#         896
  C:3A4EH         LINE#         897
  C:3A58H         LINE#         898
BL51 BANKED LINKER/LOCATER V6.22                                                      11/30/2015  19:14:20  PAGE 64


  C:3A5BH         LINE#         899
  C:3A63H         LINE#         900
  C:3A63H         LINE#         901
  C:3A66H         LINE#         903
  C:3A66H         LINE#         904
  C:3A72H         LINE#         905
  C:3A7BH         LINE#         906
  C:3A7DH         LINE#         907
  C:3A80H         LINE#         908
  C:3A80H         LINE#         909
  C:3A8CH         LINE#         910
  C:3A95H         LINE#         911
  C:3A97H         LINE#         912
  C:3A9AH         LINE#         913
  C:3A9AH         LINE#         914
  C:3AA6H         LINE#         915
  C:3AAFH         LINE#         916
  C:3AB1H         LINE#         917
  C:3AB9H         LINE#         918
  C:3AB9H         LINE#         919
  C:3AC5H         LINE#         920
  C:3AD4H         LINE#         921
  C:3AD4H         LINE#         922
  C:3ADCH         LINE#         923
  C:3ADCH         LINE#         924
  C:3ADCH         LINE#         926
  C:3ADCH         LINE#         927
  C:3ADCH         LINE#         928
  C:3ADCH         LINE#         929
  -------         ENDPROC       _PCT_SHOWSPEAKICON
  C:3169H         SYMBOL        L?0549
  C:3175H         SYMBOL        L?0557
  C:3181H         SYMBOL        L?0562
  C:318DH         SYMBOL        L?0571
  C:3199H         SYMBOL        L?0575
  C:31A3H         SYMBOL        L?0576
  C:31AFH         SYMBOL        L?0579
  C:31B9H         SYMBOL        L?0585
  C:31C5H         SYMBOL        L?0589
  C:31CFH         SYMBOL        L?0590
  C:31DBH         SYMBOL        L?0597
  C:31E5H         SYMBOL        L?0600
  C:31EDH         SYMBOL        L?0601
  C:31F9H         SYMBOL        L?0607
  C:3203H         SYMBOL        L?0613
  C:320BH         SYMBOL        L?0628
  C:3215H         SYMBOL        L?0629
  -------         PROC          PCT_SHOWVLOSS
  -------         DO            
  D:005FH         SYMBOL        tmpsta
  -------         ENDDO         
  C:2C9BH         LINE#         951
  C:2C9BH         LINE#         952
  C:2C9BH         LINE#         954
  C:2CA7H         LINE#         955
  C:2CD4H         LINE#         957
  C:2CD4H         LINE#         958
BL51 BANKED LINKER/LOCATER V6.22                                                      11/30/2015  19:14:20  PAGE 65


  C:2CE5H         LINE#         959
  C:2CF0H         LINE#         961
  C:2CF4H         LINE#         962
  C:2CF7H         LINE#         964
  C:2CF7H         LINE#         965
  C:2CF7H         LINE#         967
  C:2CF7H         LINE#         968
  C:2D08H         LINE#         969
  C:2D13H         LINE#         971
  C:2D16H         LINE#         972
  C:2D2AH         LINE#         973
  C:2D35H         LINE#         975
  C:2D39H         LINE#         976
  C:2D3CH         LINE#         978
  C:2D3CH         LINE#         979
  C:2D4DH         LINE#         980
  C:2D5EH         LINE#         982
  C:2D63H         LINE#         983
  C:2D77H         LINE#         984
  C:2D84H         LINE#         986
  C:2D87H         LINE#         987
  C:2D9BH         LINE#         988
  C:2DA6H         LINE#         990
  C:2DAAH         LINE#         991
  C:2DADH         LINE#         993
  C:2DADH         LINE#         994
  C:2DADH         LINE#         996
  C:2DADH         LINE#         997
  C:2DBEH         LINE#         998
  C:2DC9H         LINE#         1000
  C:2DCCH         LINE#         1001
  C:2DE0H         LINE#         1002
  C:2DEBH         LINE#         1004
  C:2DEEH         LINE#         1005
  C:2E02H         LINE#         1006
  C:2E0DH         LINE#         1008
  C:2E11H         LINE#         1009
  C:2E14H         LINE#         1011
  C:2E14H         LINE#         1012
  C:2E25H         LINE#         1013
  C:2E30H         LINE#         1015
  C:2E33H         LINE#         1016
  C:2E47H         LINE#         1017
  C:2E54H         LINE#         1019
  C:2E5CH         LINE#         1020
  C:2E70H         LINE#         1021
  C:2E7BH         LINE#         1023
  C:2E7FH         LINE#         1024
  C:2E82H         LINE#         1026
  C:2E82H         LINE#         1027
  C:2E93H         LINE#         1028
  C:2E9EH         LINE#         1030
  C:2EA1H         LINE#         1031
  C:2EB5H         LINE#         1032
  C:2EC0H         LINE#         1034
  C:2EC3H         LINE#         1035
  C:2ED7H         LINE#         1036
BL51 BANKED LINKER/LOCATER V6.22                                                      11/30/2015  19:14:20  PAGE 66


  C:2EE8H         LINE#         1038
  C:2EEBH         LINE#         1039
  C:2EFFH         LINE#         1040
  C:2F0AH         LINE#         1042
  C:2F0EH         LINE#         1043
  C:2F11H         LINE#         1046
  C:2F11H         LINE#         1047
  C:2F22H         LINE#         1048
  C:2F2FH         LINE#         1050
  C:2F37H         LINE#         1051
  C:2F3AH         LINE#         1053
  C:2F3AH         LINE#         1054
  C:2F3AH         LINE#         1056
  C:2F3AH         LINE#         1057
  C:2F4BH         LINE#         1058
  C:2F58H         LINE#         1060
  C:2F5BH         LINE#         1061
  C:2F6FH         LINE#         1062
  C:2F7CH         LINE#         1064
  C:2F84H         LINE#         1065
  C:2F87H         LINE#         1067
  C:2F87H         LINE#         1068
  C:2F98H         LINE#         1069
  C:2FA9H         LINE#         1071
  C:2FAEH         LINE#         1072
  C:2FC2H         LINE#         1073
  C:2FCDH         LINE#         1075
  C:2FD0H         LINE#         1076
  C:2FE4H         LINE#         1077
  C:2FF1H         LINE#         1079
  C:2FF4H         LINE#         1080
  C:2FF7H         LINE#         1082
  C:2FF7H         LINE#         1083
  C:2FF7H         LINE#         1085
  C:2FF7H         LINE#         1086
  C:3008H         LINE#         1087
  C:3015H         LINE#         1089
  C:3018H         LINE#         1090
  C:302CH         LINE#         1091
  C:3037H         LINE#         1093
  C:303AH         LINE#         1094
  C:304EH         LINE#         1095
  C:305BH         LINE#         1097
  C:305EH         LINE#         1098
  C:3061H         LINE#         1100
  C:3061H         LINE#         1101
  C:3072H         LINE#         1102
  C:307DH         LINE#         1104
  C:3080H         LINE#         1105
  C:3094H         LINE#         1106
  C:30A5H         LINE#         1108
  C:30B0H         LINE#         1109
  C:30C4H         LINE#         1110
  C:30D1H         LINE#         1112
  C:30D9H         LINE#         1113
  C:30DCH         LINE#         1115
  C:30DCH         LINE#         1116
BL51 BANKED LINKER/LOCATER V6.22                                                      11/30/2015  19:14:20  PAGE 67


  C:30EDH         LINE#         1117
  C:30F8H         LINE#         1119
  C:30FBH         LINE#         1120
  C:310FH         LINE#         1121
  C:311AH         LINE#         1123
  C:311DH         LINE#         1124
  C:3131H         LINE#         1125
  C:313CH         LINE#         1127
  C:313FH         LINE#         1128
  C:3153H         LINE#         1129
  C:3162H         LINE#         1131
  C:3168H         LINE#         1132
  C:3168H         LINE#         1134
  C:3168H         LINE#         1135
  C:3168H         LINE#         1136
  C:3168H         LINE#         1137
  -------         ENDPROC       PCT_SHOWVLOSS
  C:98D4H         SYMBOL        L?0636
  -------         PROC          PCT_SHOWMODEICON
  C:989AH         LINE#         1143
  C:989AH         LINE#         1144
  C:989AH         LINE#         1145
  C:989FH         LINE#         1147
  C:98AAH         LINE#         1148
  C:98AAH         LINE#         1149
  C:98AAH         LINE#         1150
  C:98AAH         LINE#         1151
  C:98ADH         LINE#         1152
  C:98B6H         LINE#         1153
  C:98B6H         LINE#         1154
  C:98B8H         LINE#         1156
  C:98B8H         LINE#         1157
  C:98B8H         LINE#         1158
  C:98BBH         LINE#         1159
  C:98CEH         LINE#         1160
  C:98D3H         LINE#         1161
  C:98D3H         LINE#         1163
  C:98D3H         LINE#         1164
  C:98D3H         LINE#         1165
  C:98D3H         LINE#         1166
  -------         ENDPROC       PCT_SHOWMODEICON
  -------         PROC          PCT_OSDACTIONFORHS
  C:A25FH         LINE#         1172
  C:A25FH         LINE#         1173
  C:A25FH         LINE#         1174
  C:A264H         LINE#         1175
  C:A26BH         LINE#         1177
  C:A274H         LINE#         1179
  C:A27DH         LINE#         1182
  C:A27DH         LINE#         1183
  C:A280H         LINE#         1184
  -------         ENDPROC       PCT_OSDACTIONFORHS
  -------         ENDMOD        OSDACTION_

  -------         MODULE        OSDCTRL
  C:0000H         SYMBOL        _ICE_DUMMY_
  D:0080H         PUBLIC        P0
BL51 BANKED LINKER/LOCATER V6.22                                                      11/30/2015  19:14:20  PAGE 68


  D:0090H         PUBLIC        P1
  D:00A0H         PUBLIC        P2
  C:16F8H         PUBLIC        FONT_TABLE
  D:00C0H         PUBLIC        XICON
  D:00B0H         PUBLIC        P3
  D:00E8H         PUBLIC        P4
  C:83F6H         PUBLIC        _PCT_FullColorOnOSD
  C:9D29H         PUBLIC        _PCT_EnShowOSDPage
  D:00A8H         PUBLIC        IE
  D:0059H         PUBLIC        backColor
  D:00B8H         PUBLIC        IP
  D:00D8H         PUBLIC        CCON
  C:A6CFH         PUBLIC        _PCT_PreSetBackgroundColor
  C:8293H         PUBLIC        _PCT_ClearWordsPathX
  D:005AH         PUBLIC        foreColor
  D:00C0H         PUBLIC        WDTC
  D:0098H         PUBLIC        SCON
  D:0088H         PUBLIC        TCON
  C:7487H         PUBLIC        _PCT_WriteOSDFntX
  C:7A25H         PUBLIC        _PCT_WriteOSDFntY
  C:A6CCH         PUBLIC        _PCT_PreSetForegroundColor
  C:7224H         PUBLIC        PCT_InitOSDColor
  B:0022H.0       PUBLIC        DAT_BIT0
  B:0022H.1       PUBLIC        DAT_BIT1
  B:0022H.2       PUBLIC        DAT_BIT2
  B:0022H.3       PUBLIC        DAT_BIT3
  B:0022H.4       PUBLIC        DAT_BIT4
  B:0022H.5       PUBLIC        DAT_BIT5
  C:90DBH         PUBLIC        _PCT_ShowOSDString
  B:0022H.6       PUBLIC        DAT_BIT6
  B:0022H.7       PUBLIC        DAT_BIT7
  D:00F8H         PUBLIC        IPA
  C:9193H         PUBLIC        _PCT_SetOSDColor
  D:00C8H         PUBLIC        T2CON
  C:A356H         PUBLIC        _PCT_SetOSDDrawPage
  C:65C7H         PUBLIC        _PCT_WriteOSDDataBufferX
  C:A3CFH         PUBLIC        _PCT_ClearOSDPageX
  C:75ABH         PUBLIC        _PCT_WriteOSDDataBufferY
  C:9E33H         PUBLIC        _PCT_DisShowOSDPage
  D:00D0H         PUBLIC        PSW
  D:0022H         PUBLIC        bitdat
  C:68BBH         SYMBOL        Com0082
  C:68BBH         SYMBOL        L?0131
  C:68BBH         SYMBOL        L?0132
  C:68C0H         SYMBOL        L?0133
  C:68C3H         SYMBOL        L?0134
  C:68C4H         SYMBOL        L?0135
  C:68CBH         SYMBOL        L?0136
  C:68D7H         SYMBOL        L?0137
  C:68D9H         SYMBOL        L?0138
  C:68E1H         SYMBOL        L?0144
  C:68EEH         SYMBOL        L?0145
  C:68F1H         SYMBOL        L?0146
  C:68F8H         SYMBOL        L?0147
  C:68F9H         SYMBOL        L?0148
  C:68FAH         SYMBOL        L?0149
  C:68FCH         SYMBOL        L?0150
BL51 BANKED LINKER/LOCATER V6.22                                                      11/30/2015  19:14:20  PAGE 69


  C:6903H         SYMBOL        L?0152
  C:690CH         SYMBOL        L?0153
  C:6917H         SYMBOL        L?0154
  C:691FH         SYMBOL        L?0155
  C:692CH         SYMBOL        L?0156
  C:692EH         SYMBOL        L?0157
  C:6931H         SYMBOL        L?0158
  C:6939H         SYMBOL        L?0159
  C:693BH         SYMBOL        L?0160
  C:693EH         SYMBOL        L?0161
  C:6946H         SYMBOL        L?0162
  C:6948H         SYMBOL        L?0163
  C:694BH         SYMBOL        L?0164
  C:6953H         SYMBOL        L?0166
  C:6953H         SYMBOL        L?0167
  C:6960H         SYMBOL        L?0168
  C:6960H         SYMBOL        L?0169
  C:6970H         SYMBOL        L?0170
  C:698BH         SYMBOL        L?0171
  C:69A3H         SYMBOL        L?0172
  C:69BBH         SYMBOL        L?0174
  C:69BBH         SYMBOL        L?0175
  C:69BDH         SYMBOL        L?0176
  C:69C4H         SYMBOL        L?0177
  C:69C4H         SYMBOL        L?0178
  C:69C7H         SYMBOL        L?0179
  C:69CFH         SYMBOL        L?0181
  C:69D3H         SYMBOL        L?0182
  C:69DBH         SYMBOL        L?0184
  C:69DEH         SYMBOL        L?0185
  C:69E6H         SYMBOL        L?0186
  C:69F4H         SYMBOL        L?0187
  C:6A01H         SYMBOL        L?0188
  C:6A0DH         SYMBOL        L?0190
  C:6A0EH         SYMBOL        L?0191
  C:6A15H         SYMBOL        L?0192
  C:6A15H         SYMBOL        L?0193
  C:6A1BH         SYMBOL        L?0194
  -------         PROC          COM0082
  -------         ENDPROC       COM0082
  -------         PROC          _PCT_PRESETFOREGROUNDCOLOR
  D:0007H         SYMBOL        _color
  C:A6CCH         LINE#         82
  C:A6CCH         LINE#         83
  C:A6CCH         LINE#         84
  C:A6CEH         LINE#         86
  -------         ENDPROC       _PCT_PRESETFOREGROUNDCOLOR
  -------         PROC          _PCT_PRESETBACKGROUNDCOLOR
  D:0007H         SYMBOL        _color
  C:A6CFH         LINE#         92
  C:A6CFH         LINE#         93
  C:A6CFH         LINE#         94
  C:A6D1H         LINE#         96
  -------         ENDPROC       _PCT_PRESETBACKGROUNDCOLOR
  C:91E4H         SYMBOL        L?0183
  -------         PROC          _PCT_SETOSDCOLOR
  X:01D5H         SYMBOL        _pth
BL51 BANKED LINKER/LOCATER V6.22                                                      11/30/2015  19:14:20  PAGE 70


  X:01D6H         SYMBOL        _col_num
  D:0003H         SYMBOL        _y
  X:01D8H         SYMBOL        _cb
  X:01D9H         SYMBOL        _cr
  C:9193H         LINE#         102
  C:919BH         LINE#         103
  C:919BH         LINE#         104
  C:91A5H         LINE#         105
  C:91B2H         LINE#         106
  C:91C3H         LINE#         107
  C:91CAH         LINE#         108
  C:91D0H         LINE#         110
  C:91E3H         LINE#         111
  -------         ENDPROC       _PCT_SETOSDCOLOR
  C:7324H         SYMBOL        L?0139
  C:732FH         SYMBOL        L?0141
  C:733AH         SYMBOL        L?0143
  C:7343H         SYMBOL        L?0151
  C:734CH         SYMBOL        L?0165
  C:7355H         SYMBOL        L?0173
  -------         PROC          PCT_INITOSDCOLOR
  C:7224H         LINE#         117
  C:7224H         LINE#         118
  C:7224H         LINE#         119
  C:7233H         LINE#         120
  C:723EH         LINE#         121
  C:7243H         LINE#         122
  C:7251H         LINE#         123
  C:725DH         LINE#         125
  C:7268H         LINE#         126
  C:7270H         LINE#         127
  C:727EH         LINE#         128
  C:728AH         LINE#         129
  C:7296H         LINE#         130
  C:72A2H         LINE#         131
  C:72AEH         LINE#         132
  C:72BAH         LINE#         133
  C:72C8H         LINE#         134
  C:72DAH         LINE#         135
  C:72EDH         LINE#         136
  C:7300H         LINE#         137
  C:7312H         LINE#         138
  C:731EH         LINE#         140
  C:7321H         LINE#         141
  C:7323H         LINE#         142
  -------         ENDPROC       PCT_INITOSDCOLOR
  -------         PROC          _PCT_SETOSDDRAWPAGE
  X:01DDH         SYMBOL        _page
  C:A356H         LINE#         148
  C:A35AH         LINE#         149
  C:A35AH         LINE#         150
  C:A36FH         LINE#         151
  -------         ENDPROC       _PCT_SETOSDDRAWPAGE
  C:9D4AH         SYMBOL        L?0180
  -------         PROC          _PCT_ENSHOWOSDPAGE
  X:01DDH         SYMBOL        _page
  C:9D29H         LINE#         158
BL51 BANKED LINKER/LOCATER V6.22                                                      11/30/2015  19:14:20  PAGE 71


  C:9D2EH         LINE#         159
  C:9D2EH         LINE#         160
  C:9D36H         LINE#         161
  C:9D39H         LINE#         162
  C:9D3BH         LINE#         163
  C:9D3DH         LINE#         164
  C:9D41H         LINE#         165
  C:9D49H         LINE#         166
  C:9D49H         LINE#         167
  -------         ENDPROC       _PCT_ENSHOWOSDPAGE
  -------         PROC          _PCT_DISSHOWOSDPAGE
  X:01DDH         SYMBOL        _bit
  -------         DO            
  X:01DEH         SYMBOL        dat
  -------         ENDDO         
  C:9E33H         LINE#         173
  C:9E37H         LINE#         174
  C:9E37H         LINE#         176
  C:9E49H         LINE#         177
  -------         ENDPROC       _PCT_DISSHOWOSDPAGE
  -------         PROC          _PCT_FULLCOLORONOSD
  X:01DDH         SYMBOL        _posx
  X:01DEH         SYMBOL        _posy
  X:01E0H         SYMBOL        _wide
  X:01E1H         SYMBOL        _high
  C:83F6H         LINE#         186
  C:83F9H         LINE#         187
  C:83F9H         LINE#         188
  C:83FFH         LINE#         189
  C:8405H         LINE#         190
  C:840BH         LINE#         191
  C:8411H         LINE#         193
  C:8418H         LINE#         194
  C:842DH         LINE#         195
  C:843CH         LINE#         196
  C:8457H         LINE#         198
  C:845EH         LINE#         199
  C:8467H         LINE#         200
  C:8470H         LINE#         201
  C:8479H         LINE#         202
  C:8486H         LINE#         204
  C:8495H         LINE#         205
  C:849FH         LINE#         206
  -------         ENDPROC       _PCT_FULLCOLORONOSD
  -------         PROC          _PCT_CLEAROSDPAGEX
  D:0007H         SYMBOL        _page
  C:A3CFH         LINE#         208
  C:A3CFH         LINE#         209
  C:A3CFH         LINE#         210
  C:A3D2H         LINE#         212
  C:A3D7H         LINE#         213
  -------         ENDPROC       _PCT_CLEAROSDPAGEX
  C:66FBH         SYMBOL        L?0129
  C:671DH         SYMBOL        L?0140
  C:672CH         SYMBOL        L?0142
  C:673BH         SYMBOL        L?0189
  -------         PROC          _PCT_WRITEOSDDATABUFFERX
BL51 BANKED LINKER/LOCATER V6.22                                                      11/30/2015  19:14:20  PAGE 72


  X:03B4H         SYMBOL        _index
  X:03B5H         SYMBOL        _dat
  C:65C7H         LINE#         225
  C:65D1H         LINE#         226
  C:65D1H         LINE#         227
  C:65DCH         LINE#         228
  C:65ECH         LINE#         229
  C:65F8H         LINE#         230
  C:6604H         LINE#         231
  C:660DH         LINE#         232
  C:6610H         LINE#         233
  C:6616H         LINE#         235
  C:6629H         LINE#         236
  C:6635H         LINE#         237
  C:6641H         LINE#         238
  C:664AH         LINE#         239
  C:664DH         LINE#         240
  C:6652H         LINE#         242
  C:665AH         LINE#         243
  C:666DH         LINE#         244
  C:667DH         LINE#         245
  C:668DH         LINE#         246
  C:669AH         LINE#         247
  C:66A0H         LINE#         248
  C:66A5H         LINE#         250
  C:66B8H         LINE#         251
  C:66CBH         LINE#         252
  C:66DEH         LINE#         253
  C:66F1H         LINE#         254
  C:66FBH         LINE#         255
  -------         ENDPROC       _PCT_WRITEOSDDATABUFFERX
  -------         PROC          _PCT_WRITEOSDFNTX
  D:0007H         SYMBOL        _posx
  X:0372H         SYMBOL        _posy
  X:0374H         SYMBOL        _len
  X:0375H         SYMBOL        _indx
  -------         DO            
  D:004CH         SYMBOL        i
  D:004DH         SYMBOL        j
  D:004EH         SYMBOL        posx
  X:0378H         SYMBOL        charPtr
  -------         ENDDO         
  C:7487H         LINE#         265
  C:748EH         LINE#         266
  C:748EH         LINE#         270
  C:7491H         LINE#         271
  C:7496H         LINE#         272
  C:74A9H         LINE#         273
  C:74B5H         LINE#         274
  C:74C4H         LINE#         275
  C:74D3H         LINE#         276
  C:74E5H         LINE#         277
  C:74F7H         LINE#         279
  C:7503H         LINE#         280
  C:7510H         LINE#         281
  C:7544H         LINE#         282
  C:754CH         LINE#         283
BL51 BANKED LINKER/LOCATER V6.22                                                      11/30/2015  19:14:20  PAGE 73


  C:7555H         LINE#         285
  C:755EH         LINE#         286
  C:756AH         LINE#         287
  C:7574H         LINE#         289
  C:757FH         LINE#         290
  C:758BH         LINE#         291
  C:7595H         LINE#         293
  C:75A3H         LINE#         294
  C:75AAH         LINE#         295
  -------         ENDPROC       _PCT_WRITEOSDFNTX
  -------         PROC          _PCT_CLEARWORDSPATHX
  X:01E0H         SYMBOL        _posx
  X:01E1H         SYMBOL        _posy
  X:01E3H         SYMBOL        _len
  -------         DO            
  X:01E4H         SYMBOL        wide
  X:01E5H         SYMBOL        high
  -------         ENDDO         
  C:8293H         LINE#         304
  C:8296H         LINE#         305
  C:8296H         LINE#         309
  C:829CH         LINE#         310
  C:82A2H         LINE#         311
  C:82A8H         LINE#         312
  C:82AEH         LINE#         314
  C:82B6H         LINE#         315
  C:82B9H         LINE#         316
  C:82C9H         LINE#         317
  C:82D5H         LINE#         319
  C:82E9H         LINE#         320
  C:82FDH         LINE#         322
  C:8307H         LINE#         323
  C:8310H         LINE#         324
  C:8319H         LINE#         325
  C:8322H         LINE#         326
  C:832FH         LINE#         328
  C:833EH         LINE#         329
  C:8348H         LINE#         330
  -------         ENDPROC       _PCT_CLEARWORDSPATHX
  -------         PROC          _PCT_WRITEOSDDATABUFFERY
  X:03B8H         SYMBOL        _index
  X:03B9H         SYMBOL        _dat
  C:75ABH         LINE#         336
  C:75B5H         LINE#         337
  C:75B5H         LINE#         338
  C:75C0H         LINE#         339
  C:75DFH         LINE#         340
  C:75FEH         LINE#         341
  C:761DH         LINE#         342
  C:763CH         LINE#         343
  C:7642H         LINE#         345
  C:764DH         LINE#         346
  C:766CH         LINE#         347
  C:768BH         LINE#         348
  C:76AAH         LINE#         349
  C:76C9H         LINE#         350
  -------         ENDPROC       _PCT_WRITEOSDDATABUFFERY
BL51 BANKED LINKER/LOCATER V6.22                                                      11/30/2015  19:14:20  PAGE 74


  -------         PROC          _PCT_WRITEOSDFNTY
  X:0338H         SYMBOL        _posx
  X:0339H         SYMBOL        _posy
  X:033BH         SYMBOL        _len
  X:033CH         SYMBOL        _indx
  -------         DO            
  D:005BH         SYMBOL        i
  D:005CH         SYMBOL        j
  X:033FH         SYMBOL        charPtr
  -------         ENDDO         
  C:7A25H         LINE#         362
  C:7A2FH         LINE#         363
  C:7A2FH         LINE#         367
  C:7A37H         LINE#         368
  C:7A3AH         LINE#         369
  C:7A4AH         LINE#         370
  C:7A56H         LINE#         372
  C:7A62H         LINE#         373
  C:7A70H         LINE#         374
  C:7A88H         LINE#         376
  C:7A95H         LINE#         377
  C:7ABDH         LINE#         378
  C:7AC7H         LINE#         379
  C:7AD0H         LINE#         380
  C:7AEBH         LINE#         381
  C:7AF7H         LINE#         382
  C:7B01H         LINE#         383
  C:7B0FH         LINE#         384
  C:7B16H         LINE#         385
  -------         ENDPROC       _PCT_WRITEOSDFNTY
  -------         PROC          _PCT_SHOWOSDSTRING
  X:0384H         SYMBOL        _path
  X:0385H         SYMBOL        _addrx
  X:0386H         SYMBOL        _addry
  X:0387H         SYMBOL        _strptr
  -------         DO            
  X:038AH         SYMBOL        slen
  -------         ENDDO         
  C:90DBH         LINE#         391
  C:90E2H         LINE#         392
  C:90E2H         LINE#         395
  C:90EDH         LINE#         396
  C:90F4H         LINE#         397
  C:90FBH         LINE#         398
  C:90FBH         LINE#         399
  C:9108H         LINE#         400
  C:910FH         LINE#         401
  C:9112H         LINE#         402
  C:9112H         LINE#         403
  C:9117H         LINE#         404
  C:9119H         LINE#         405
  C:9119H         LINE#         406
  C:9126H         LINE#         407
  C:912DH         LINE#         408
  C:9130H         LINE#         409
  C:9130H         LINE#         410
  C:9135H         LINE#         411
BL51 BANKED LINKER/LOCATER V6.22                                                      11/30/2015  19:14:20  PAGE 75


  C:9135H         LINE#         412
  C:9138H         LINE#         413
  -------         ENDPROC       _PCT_SHOWOSDSTRING
  -------         ENDMOD        OSDCTRL

  -------         MODULE        TIMER
  C:0000H         SYMBOL        _ICE_DUMMY_
  D:0080H         PUBLIC        P0
  D:0090H         PUBLIC        P1
  D:00A0H         PUBLIC        P2
  D:00C0H         PUBLIC        XICON
  D:00B0H         PUBLIC        P3
  C:A66BH         PUBLIC        InitialTimer0
  D:00E8H         PUBLIC        P4
  C:A3B2H         PUBLIC        InitialTimer2
  B:00A8H.7       PUBLIC        EA
  C:A5FAH         PUBLIC        Timer0_interrupt
  C:7CEAH         PUBLIC        Timer2_interrupt
  D:00A8H         PUBLIC        IE
  D:00B8H         PUBLIC        IP
  D:00D8H         PUBLIC        CCON
  D:00C0H         PUBLIC        WDTC
  D:0098H         PUBLIC        SCON
  D:0088H         PUBLIC        TCON
  D:0040H         PUBLIC        user_timer
  B:0088H.5       PUBLIC        TF0
  B:00A8H.5       PUBLIC        ET2
  B:00C8H.7       PUBLIC        TF2
  D:008CH         PUBLIC        TH0
  D:00CDH         PUBLIC        TH2
  D:008AH         PUBLIC        TL0
  D:00CCH         PUBLIC        TL2
  B:00B8H.5       PUBLIC        PT2
  B:0088H.4       PUBLIC        TR0
  B:00C8H.2       PUBLIC        TR2
  D:00F8H         PUBLIC        IPA
  D:00C9H         PUBLIC        T2MOD
  D:00C8H         PUBLIC        T2CON
  D:00D0H         PUBLIC        PSW
  -------         PROC          INITIALTIMER0
  C:A66BH         LINE#         70
  C:A66BH         LINE#         82
  C:A66DH         LINE#         89
  C:A670H         LINE#         101
  C:A673H         LINE#         109
  -------         ENDPROC       INITIALTIMER0
  -------         PROC          INITIALTIMER2
  -------         DO            
  D:0007H         SYMBOL        i
  -------         ENDDO         
  C:A3B2H         LINE#         113
  C:A3B2H         LINE#         114
  C:A3B2H         LINE#         117
  C:A3B4H         LINE#         118
  C:A3B6H         LINE#         119
  C:A3B8H         LINE#         120
  C:A3BBH         LINE#         121
BL51 BANKED LINKER/LOCATER V6.22                                                      11/30/2015  19:14:20  PAGE 76


  C:A3BEH         LINE#         123
  C:A3C0H         LINE#         124
  C:A3C3H         LINE#         125
  C:A3C5H         LINE#         127
  C:A3C5H         LINE#         128
  C:A3CEH         LINE#         130
  -------         ENDPROC       INITIALTIMER2
  -------         PROC          TIMER0_INTERRUPT
  C:A5FAH         LINE#         141
  C:A5FAH         LINE#         144
  C:A5FCH         LINE#         145
  C:A5FFH         LINE#         146
  C:A602H         LINE#         147
  C:A604H         LINE#         155
  C:A606H         LINE#         156
  -------         ENDPROC       TIMER0_INTERRUPT
  -------         PROC          TIMER2_INTERRUPT
  C:7CEAH         LINE#         160
  C:7CF2H         LINE#         163
  C:7CF4H         LINE#         164
  C:7CF7H         LINE#         165
  C:7CFAH         LINE#         170
  C:7CFCH         LINE#         174
  C:7D11H         LINE#         175
  C:7D26H         LINE#         176
  C:7D3BH         LINE#         178
  C:7D50H         LINE#         180
  C:7D65H         LINE#         181
  C:7D7AH         LINE#         183
  C:7D95H         LINE#         184
  C:7DB0H         LINE#         190
  C:7DBCH         LINE#         191
  C:7DBEH         LINE#         192
  -------         ENDPROC       TIMER2_INTERRUPT
  -------         ENDMOD        TIMER

  -------         MODULE        TW28XX_AUDIO
  C:0000H         SYMBOL        _ICE_DUMMY_
  D:0080H         PUBLIC        P0
  D:0090H         PUBLIC        P1
  D:00A0H         PUBLIC        P2
  D:00C0H         PUBLIC        XICON
  D:00B0H         PUBLIC        P3
  D:00E8H         PUBLIC        P4
  C:8B3AH         PUBLIC        _PCT_AudioMixCtrl
  C:9D5FH         PUBLIC        _PCT_AudioMixMute
  D:00A8H         PUBLIC        IE
  D:00B8H         PUBLIC        IP
  D:00D8H         PUBLIC        CCON
  D:00C0H         PUBLIC        WDTC
  D:0098H         PUBLIC        SCON
  D:0088H         PUBLIC        TCON
  C:8C1BH         PUBLIC        _PCT_AudioGainCtrl
  D:00F8H         PUBLIC        IPA
  D:00C8H         PUBLIC        T2CON
  C:9EFCH         PUBLIC        _PCT_AudioSelLive
  D:00D0H         PUBLIC        PSW
BL51 BANKED LINKER/LOCATER V6.22                                                      11/30/2015  19:14:20  PAGE 77


  C:5ED2H         PUBLIC        PCT_AudioRegList
  C:9CBBH         SYMBOL        Com0016
  C:9CBBH         SYMBOL        L?0023
  C:9CBEH         SYMBOL        L?0024
  C:9CCAH         SYMBOL        L?0025
  C:9CD6H         SYMBOL        L?0027
  C:9CDAH         SYMBOL        L?0028
  C:9CE6H         SYMBOL        L?0030
  -------         PROC          COM0016
  -------         ENDPROC       COM0016
  C:5FC4H         SYMBOL        L?0013
  C:5FD9H         SYMBOL        L?0014
  C:5FEEH         SYMBOL        L?0015
  C:6003H         SYMBOL        L?0016
  C:6018H         SYMBOL        L?0017
  C:602DH         SYMBOL        L?0018
  C:6042H         SYMBOL        L?0019
  C:6057H         SYMBOL        L?0020
  C:606CH         SYMBOL        L?0021
  C:6081H         SYMBOL        L?0026
  C:6096H         SYMBOL        L?0029
  -------         PROC          PCT_AUDIOREGLIST
  C:5ED2H         LINE#         60
  C:5ED2H         LINE#         61
  C:5ED2H         LINE#         62
  C:5EDDH         LINE#         63
  C:5EE8H         LINE#         64
  C:5EF3H         LINE#         65
  C:5EFEH         LINE#         66
  C:5F09H         LINE#         68
  C:5F14H         LINE#         69
  C:5F1FH         LINE#         70
  C:5F2AH         LINE#         71
  C:5F35H         LINE#         72
  C:5F40H         LINE#         73
  C:5F4BH         LINE#         74
  C:5F56H         LINE#         75
  C:5F61H         LINE#         77
  C:5F6CH         LINE#         78
  C:5F77H         LINE#         79
  C:5F82H         LINE#         80
  C:5F8DH         LINE#         81
  C:5F98H         LINE#         83
  C:5FA3H         LINE#         84
  C:5FAEH         LINE#         85
  C:5FB9H         LINE#         86
  C:5FC4H         LINE#         87
  -------         ENDPROC       PCT_AUDIOREGLIST
  -------         PROC          _PCT_AUDIOGAINCTRL
  D:0007H         SYMBOL        _dvc
  X:03CDH         SYMBOL        _channel
  X:03CEH         SYMBOL        _gain
  -------         DO            
  D:0004H         SYMBOL        dat
  X:03CFH         SYMBOL        result
  C:9A45H         SYMBOL        chanData
  -------         ENDDO         
BL51 BANKED LINKER/LOCATER V6.22                                                      11/30/2015  19:14:20  PAGE 78


  C:8C1BH         LINE#         93
  C:8C25H         LINE#         94
  C:8C25H         LINE#         110
  C:8C27H         LINE#         111
  C:8C34H         LINE#         113
  C:8C44H         LINE#         114
  C:8C63H         LINE#         116
  C:8C73H         LINE#         117
  C:8C83H         LINE#         118
  C:8C85H         LINE#         119
  -------         ENDPROC       _PCT_AUDIOGAINCTRL
  -------         PROC          _PCT_AUDIOMIXCTRL
  X:03BCH         SYMBOL        _dvc
  X:03BDH         SYMBOL        _channel
  X:03BEH         SYMBOL        _gain
  -------         DO            
  D:0004H         SYMBOL        dat
  X:03BFH         SYMBOL        result
  C:9A59H         SYMBOL        chanData
  -------         ENDDO         
  C:8B3AH         LINE#         126
  C:8B45H         LINE#         127
  C:8B45H         LINE#         143
  C:8B4AH         LINE#         144
  C:8B55H         LINE#         146
  C:8B65H         LINE#         147
  C:8B84H         LINE#         149
  C:8B91H         LINE#         150
  C:8B9EH         LINE#         152
  C:8BA8H         LINE#         153
  C:8BAAH         LINE#         154
  -------         ENDPROC       _PCT_AUDIOMIXCTRL
  -------         PROC          _PCT_AUDIOMIXMUTE
  D:0007H         SYMBOL        _dvc
  X:03D6H         SYMBOL        _ch
  X:03D7H         SYMBOL        _ctrl
  -------         DO            
  D:0060H         SYMBOL        dat
  -------         ENDDO         
  C:9D5FH         LINE#         160
  C:9D67H         LINE#         161
  C:9D67H         LINE#         167
  C:9D69H         LINE#         168
  C:9D71H         LINE#         169
  C:9D7BH         LINE#         170
  C:9D7FH         LINE#         171
  C:9D81H         LINE#         172
  C:9D84H         LINE#         173
  C:9D84H         LINE#         174
  C:9D92H         LINE#         176
  C:9D94H         LINE#         177
  -------         ENDPROC       _PCT_AUDIOMIXMUTE
  -------         PROC          _PCT_AUDIOSELLIVE
  D:0007H         SYMBOL        _dvc
  X:03DEH         SYMBOL        _chan
  C:9EFCH         LINE#         183
  C:9F01H         LINE#         184
BL51 BANKED LINKER/LOCATER V6.22                                                      11/30/2015  19:14:20  PAGE 79


  C:9F01H         LINE#         188
  C:9F03H         LINE#         189
  C:9F06H         LINE#         190
  C:9F13H         LINE#         191
  C:9F16H         LINE#         192
  C:9F16H         LINE#         194
  C:9F1DH         LINE#         195
  C:9F29H         LINE#         196
  C:9F2BH         LINE#         197
  -------         ENDPROC       _PCT_AUDIOSELLIVE
  -------         ENDMOD        TW28XX_AUDIO

  -------         MODULE        TW28XX_VIDEO
  C:0000H         SYMBOL        _ICE_DUMMY_
  D:0080H         PUBLIC        P0
  C:9A6DH         PUBLIC        _PCT_WinAttrClear
  D:0090H         PUBLIC        P1
  D:00A0H         PUBLIC        P2
  D:00C0H         PUBLIC        XICON
  D:00B0H         PUBLIC        P3
  D:00E8H         PUBLIC        P4
  C:3F17H         PUBLIC        VidoW2_ModifyACHM
  C:9B63H         PUBLIC        _PCT_WinAttrCtrlY
  C:3F0BH         PUBLIC        VidoW2_ModifyACNM
  C:941DH         PUBLIC        _PCT_DetectVideoFormat
  D:00A8H         PUBLIC        IE
  C:3EFBH         PUBLIC        Video_HDelay
  C:3F2FH         PUBLIC        VidoW2_ModifyRBHM
  C:70E3H         PUBLIC        _PCT_RecompenseYHdelay
  D:00B8H         PUBLIC        IP
  C:3F23H         PUBLIC        VidoW2_ModifyRBNM
  C:3FC8H         PUBLIC        XWinAttr_RegAddr
  D:00D8H         PUBLIC        CCON
  C:3FE8H         PUBLIC        YWinAttr_RegAddr
  C:3EDDH         PUBLIC        Video_HDelayInit
  C:5155H         PUBLIC        _PCT_SetVideoHDelay
  C:9DCAH         PUBLIC        _PCT_WinAttrCtrl
  C:85DEH         PUBLIC        _PCT_SetChanelScale
  D:00C0H         PUBLIC        WDTC
  D:0098H         PUBLIC        SCON
  D:0088H         PUBLIC        TCON
  C:6282H         PUBLIC        _PCT_SetXVideoMixing
  C:A49EH         PUBLIC        _PCT_SetYVideoMixing
  C:3F47H         PUBLIC        Init_Vido_Y
  C:3F3BH         PUBLIC        VidoW2_ModifyACHM_PAL
  C:87A5H         PUBLIC        PCT_VideoLastModify
  D:00F8H         PUBLIC        IPA
  C:9F2CH         PUBLIC        _PCT_SetVideoFormat
  C:A285H         PUBLIC        _PCT_WinPOPupCtrl
  D:00C8H         PUBLIC        T2CON
  C:3BA7H         PUBLIC        Init_Vido_W1
  C:3C19H         PUBLIC        Init_Vido_W2
  C:3CA3H         PUBLIC        Init_Vido_W3
  C:3FD8H         PUBLIC        XWinPOP_RegAddr
  C:3E6BH         PUBLIC        Init_Vido_W4
  D:00D0H         PUBLIC        PSW
  C:790AH         SYMBOL        Com0076
BL51 BANKED LINKER/LOCATER V6.22                                                      11/30/2015  19:14:20  PAGE 80


  C:790AH         SYMBOL        L?0119
  C:790AH         SYMBOL        L?0120
  C:7922H         SYMBOL        L?0121
  C:7923H         SYMBOL        L?0122
  C:7926H         SYMBOL        L?0123
  C:792CH         SYMBOL        L?0124
  C:7930H         SYMBOL        L?0125
  C:7933H         SYMBOL        L?0126
  C:793CH         SYMBOL        L?0134
  C:793CH         SYMBOL        L?0135
  C:793FH         SYMBOL        L?0136
  C:7942H         SYMBOL        L?0137
  C:7949H         SYMBOL        L?0138
  C:794AH         SYMBOL        L?0139
  C:7953H         SYMBOL        L?0140
  C:795FH         SYMBOL        L?0141
  C:795FH         SYMBOL        L?0142
  C:7963H         SYMBOL        L?0143
  C:796CH         SYMBOL        L?0144
  C:796FH         SYMBOL        L?0145
  C:7972H         SYMBOL        L?0146
  C:797EH         SYMBOL        L?0147
  C:797EH         SYMBOL        L?0148
  C:7983H         SYMBOL        L?0149
  C:7986H         SYMBOL        L?0150
  C:798EH         SYMBOL        L?0152
  C:7991H         SYMBOL        L?0153
  C:7995H         SYMBOL        L?0154
  C:7998H         SYMBOL        L?0155
  C:79A0H         SYMBOL        L?0158
  C:79A0H         SYMBOL        L?0159
  C:79A3H         SYMBOL        L?0160
  C:79ABH         SYMBOL        L?0162
  C:79CAH         SYMBOL        L?0165
  C:79CAH         SYMBOL        L?0166
  C:79CDH         SYMBOL        L?0167
  C:79D6H         SYMBOL        L?0171
  C:79D6H         SYMBOL        L?0172
  C:79DEH         SYMBOL        L?0175
  C:79DEH         SYMBOL        L?0176
  C:79E5H         SYMBOL        L?0178
  C:79E5H         SYMBOL        L?0179
  C:79EDH         SYMBOL        L?0181
  C:79F7H         SYMBOL        L?0182
  C:79F7H         SYMBOL        L?0183
  C:79FDH         SYMBOL        L?0184
  C:79FDH         SYMBOL        L?0185
  C:7A04H         SYMBOL        L?0186
  C:7A04H         SYMBOL        L?0187
  C:7A0AH         SYMBOL        L?0188
  C:7A0AH         SYMBOL        L?0189
  C:7A11H         SYMBOL        L?0190
  C:7A1BH         SYMBOL        L?0191
  -------         PROC          COM0076
  -------         ENDPROC       COM0076
  -------         PROC          _PCT_DETECTVIDEOFORMAT
  X:01D5H         SYMBOL        _ch
BL51 BANKED LINKER/LOCATER V6.22                                                      11/30/2015  19:14:20  PAGE 81


  -------         DO            
  X:01D6H         SYMBOL        tmpSta
  -------         ENDDO         
  C:941DH         LINE#         77
  C:9422H         LINE#         78
  C:9422H         LINE#         84
  C:9425H         LINE#         86
  C:9432H         LINE#         87
  C:9445H         LINE#         90
  C:944CH         LINE#         91
  C:944FH         LINE#         92
  C:9456H         LINE#         93
  C:945CH         LINE#         94
  C:9467H         LINE#         105
  -------         ENDPROC       _PCT_DETECTVIDEOFORMAT
  -------         PROC          _PCT_SETVIDEOFORMAT
  D:0007H         SYMBOL        _dvc
  D:0005H         SYMBOL        _ch
  X:03D8H         SYMBOL        _fmat
  -------         DO            
  D:0007H         SYMBOL        tmpSta
  X:03D9H         SYMBOL        addr
  -------         ENDDO         
  C:9F2CH         LINE#         111
  C:9F31H         LINE#         112
  C:9F31H         LINE#         115
  C:9F31H         LINE#         116
  C:9F3CH         LINE#         117
  C:9F42H         LINE#         120
  C:9F46H         LINE#         122
  C:9F4CH         LINE#         123
  -------         ENDPROC       _PCT_SETVIDEOFORMAT
  C:863DH         SYMBOL        L?0133
  -------         PROC          _PCT_SETCHANELSCALE
  D:0007H         SYMBOL        _ch
  X:01E4H         SYMBOL        datptr
  -------         DO            
  C:3FF0H         SYMBOL        ScaleRgeAddr
  X:01E7H         SYMBOL        addrptr
  X:01EAH         SYMBOL        value
  -------         ENDDO         
  C:85DEH         LINE#         132
  C:85E5H         LINE#         133
  C:85E5H         LINE#         145
  C:85F5H         LINE#         146
  C:8609H         LINE#         147
  C:860EH         LINE#         148
  C:860EH         LINE#         149
  C:8617H         LINE#         150
  C:8621H         LINE#         151
  C:8634H         LINE#         152
  C:8634H         LINE#         153
  C:863DH         LINE#         154
  -------         ENDPROC       _PCT_SETCHANELSCALE
  C:536AH         SYMBOL        L?0127
  C:5387H         SYMBOL        L?0128
  C:53A4H         SYMBOL        L?0129
BL51 BANKED LINKER/LOCATER V6.22                                                      11/30/2015  19:14:20  PAGE 82


  C:53C1H         SYMBOL        L?0130
  C:53D9H         SYMBOL        L?0131
  C:53F3H         SYMBOL        L?0132
  C:5408H         SYMBOL        L?0151
  C:5419H         SYMBOL        L?0157
  C:5425H         SYMBOL        L?0163
  C:5431H         SYMBOL        L?0164
  C:5442H         SYMBOL        L?0173
  -------         PROC          _PCT_SETVIDEOHDELAY
  D:0007H         SYMBOL        _typ
  X:01DEH         SYMBOL        _winch
  X:01E1H         SYMBOL        _cattr
  -------         DO            
  X:01E4H         SYMBOL        hdelay
  -------         ENDDO         
  C:5155H         LINE#         157
  C:515CH         LINE#         158
  C:515CH         LINE#         166
  C:5188H         LINE#         167
  C:5188H         LINE#         168
  C:5188H         LINE#         174
  C:518EH         LINE#         175
  C:5197H         LINE#         176
  C:51A4H         LINE#         177
  C:51AAH         LINE#         179
  C:51ACH         LINE#         183
  C:51ADH         LINE#         191
  C:51AFH         LINE#         193
  C:51AFH         LINE#         194
  C:51AFH         LINE#         208
  C:51AFH         LINE#         210
  C:51AFH         LINE#         211
  C:51AFH         LINE#         213
  C:51AFH         LINE#         214
  C:51B8H         LINE#         222
  C:51C6H         LINE#         226
  C:51C6H         LINE#         227
  C:51C6H         LINE#         232
  C:51D4H         LINE#         234
  C:51D7H         LINE#         236
  C:51D7H         LINE#         237
  C:51D7H         LINE#         239
  C:51DDH         LINE#         240
  C:51E6H         LINE#         241
  C:51EEH         LINE#         242
  C:51F4H         LINE#         244
  C:51F4H         LINE#         245
  C:5200H         LINE#         246
  C:5208H         LINE#         247
  C:520EH         LINE#         249
  C:5211H         LINE#         250
  C:521AH         LINE#         251
  C:5225H         LINE#         252
  C:522FH         LINE#         253
  C:5232H         LINE#         255
  C:5232H         LINE#         256
  C:5232H         LINE#         257
BL51 BANKED LINKER/LOCATER V6.22                                                      11/30/2015  19:14:20  PAGE 83


  C:5232H         LINE#         259
  C:5232H         LINE#         260
  C:5232H         LINE#         263
  C:5232H         LINE#         264
  C:523BH         LINE#         265
  C:5243H         LINE#         266
  C:5249H         LINE#         268
  C:5249H         LINE#         269
  C:5249H         LINE#         270
  C:5251H         LINE#         271
  C:5257H         LINE#         273
  C:525AH         LINE#         274
  C:5263H         LINE#         275
  C:526EH         LINE#         276
  C:5278H         LINE#         277
  C:527BH         LINE#         279
  C:527BH         LINE#         280
  C:527BH         LINE#         283
  C:527BH         LINE#         284
  C:5284H         LINE#         285
  C:5292H         LINE#         286
  C:529EH         LINE#         288
  C:529EH         LINE#         289
  C:529EH         LINE#         290
  C:52A6H         LINE#         291
  C:52B2H         LINE#         293
  C:52B2H         LINE#         294
  C:52BEH         LINE#         295
  C:52CCH         LINE#         296
  C:52D6H         LINE#         297
  C:52D9H         LINE#         299
  C:52D9H         LINE#         300
  C:52D9H         LINE#         303
  C:52D9H         LINE#         304
  C:52E2H         LINE#         305
  C:52F0H         LINE#         306
  C:52FCH         LINE#         308
  C:52FCH         LINE#         309
  C:52FCH         LINE#         310
  C:5304H         LINE#         311
  C:5310H         LINE#         313
  C:5310H         LINE#         314
  C:531CH         LINE#         315
  C:5327H         LINE#         316
  C:5331H         LINE#         318
  C:5334H         LINE#         319
  C:533DH         LINE#         320
  C:5355H         LINE#         321
  C:5369H         LINE#         322
  C:5369H         LINE#         324
  C:5369H         LINE#         325
  C:5369H         LINE#         326
  C:5369H         LINE#         327
  -------         ENDPROC       _PCT_SETVIDEOHDELAY
  C:6402H         SYMBOL        L?0169
  C:6409H         SYMBOL        L?0170
  C:6414H         SYMBOL        L?0174
BL51 BANKED LINKER/LOCATER V6.22                                                      11/30/2015  19:14:20  PAGE 84


  C:641EH         SYMBOL        L?0192
  -------         PROC          _PCT_SETXVIDEOMIXING
  X:01DDH         SYMBOL        _typ
  X:01DEH         SYMBOL        _winch
  -------         DO            
  X:01E1H         SYMBOL        wregptr
  -------         ENDDO         
  C:6282H         LINE#         330
  C:628CH         LINE#         331
  C:628CH         LINE#         335
  C:629AH         LINE#         336
  C:62A8H         LINE#         337
  C:62BDH         LINE#         338
  C:62D2H         LINE#         347
  C:6309H         LINE#         348
  C:6309H         LINE#         349
  C:6309H         LINE#         353
  C:6319H         LINE#         354
  C:6322H         LINE#         355
  C:6322H         LINE#         356
  C:6325H         LINE#         358
  C:6325H         LINE#         359
  C:6325H         LINE#         360
  C:6325H         LINE#         361
  C:6325H         LINE#         362
  C:6335H         LINE#         363
  C:6337H         LINE#         365
  C:6343H         LINE#         367
  C:634FH         LINE#         369
  C:6354H         LINE#         370
  C:6357H         LINE#         372
  C:6357H         LINE#         373
  C:6357H         LINE#         374
  C:6357H         LINE#         375
  C:6357H         LINE#         376
  C:6357H         LINE#         377
  C:6357H         LINE#         378
  C:6357H         LINE#         379
  C:6357H         LINE#         380
  C:6367H         LINE#         381
  C:6369H         LINE#         383
  C:6375H         LINE#         384
  C:6381H         LINE#         385
  C:6396H         LINE#         386
  C:639BH         LINE#         387
  C:639EH         LINE#         389
  C:639EH         LINE#         390
  C:639EH         LINE#         391
  C:63AEH         LINE#         392
  C:63BAH         LINE#         393
  C:63CAH         LINE#         394
  C:63DDH         LINE#         395
  C:63F3H         LINE#         396
  C:6401H         LINE#         397
  C:6401H         LINE#         399
  C:6401H         LINE#         400
  C:6401H         LINE#         401
BL51 BANKED LINKER/LOCATER V6.22                                                      11/30/2015  19:14:20  PAGE 85


  C:6401H         LINE#         402
  -------         ENDPROC       _PCT_SETXVIDEOMIXING
  -------         PROC          _PCT_SETYVIDEOMIXING
  D:0007H         SYMBOL        _typ
  C:A49EH         LINE#         408
  C:A49EH         LINE#         409
  C:A49EH         LINE#         410
  -------         ENDPROC       _PCT_SETYVIDEOMIXING
  C:71EDH         SYMBOL        L?0156
  C:71F9H         SYMBOL        L?0161
  C:7205H         SYMBOL        L?0168
  C:7211H         SYMBOL        L?0177
  C:7218H         SYMBOL        L?0180
  -------         PROC          _PCT_RECOMPENSEYHDELAY
  X:01DDH         SYMBOL        _chmiro
  C:70E3H         LINE#         414
  C:70EAH         LINE#         415
  C:70EAH         LINE#         416
  C:7117H         LINE#         417
  C:7117H         LINE#         419
  C:7128H         LINE#         420
  C:7132H         LINE#         421
  C:7143H         LINE#         422
  C:714DH         LINE#         423
  C:715EH         LINE#         424
  C:716BH         LINE#         425
  C:717FH         LINE#         426
  C:717FH         LINE#         427
  C:7182H         LINE#         429
  C:7182H         LINE#         430
  C:7193H         LINE#         431
  C:719AH         LINE#         432
  C:719DH         LINE#         434
  C:719DH         LINE#         435
  C:71ABH         LINE#         436
  C:71B2H         LINE#         437
  C:71B4H         LINE#         439
  C:71B4H         LINE#         440
  C:71C5H         LINE#         441
  C:71CCH         LINE#         442
  C:71CEH         LINE#         444
  C:71CEH         LINE#         445
  C:71DFH         LINE#         446
  C:71ECH         LINE#         447
  C:71ECH         LINE#         448
  C:71ECH         LINE#         449
  -------         ENDPROC       _PCT_RECOMPENSEYHDELAY
  -------         PROC          PCT_VIDEOLASTMODIFY
  -------         DO            
  D:0061H         SYMBOL        state
  -------         ENDDO         
  C:87A5H         LINE#         457
  C:87A5H         LINE#         458
  C:87A5H         LINE#         459
  C:87A8H         LINE#         461
  C:87B2H         LINE#         462
  C:87BDH         LINE#         463
BL51 BANKED LINKER/LOCATER V6.22                                                      11/30/2015  19:14:20  PAGE 86


  C:87CBH         LINE#         464
  C:87D8H         LINE#         466
  C:87F8H         LINE#         467
  C:87F8H         LINE#         468
  C:87F8H         LINE#         469
  C:87FEH         LINE#         470
  C:8800H         LINE#         472
  C:8800H         LINE#         473
  C:8800H         LINE#         475
  C:8809H         LINE#         476
  C:880FH         LINE#         478
  C:8813H         LINE#         479
  C:8815H         LINE#         481
  C:8815H         LINE#         482
  C:8815H         LINE#         483
  C:881AH         LINE#         484
  C:8820H         LINE#         485
  C:8822H         LINE#         486
  C:8822H         LINE#         487
  C:8822H         LINE#         488
  C:8827H         LINE#         489
  C:8832H         LINE#         490
  C:8832H         LINE#         491
  C:8832H         LINE#         492
  -------         ENDPROC       PCT_VIDEOLASTMODIFY
  -------         PROC          _PCT_WINATTRCTRL
  X:01DDH         SYMBOL        _wid
  X:01DEH         SYMBOL        _attrsel
  X:01DFH         SYMBOL        _setval
  -------         DO            
  D:0004H         SYMBOL        dat
  -------         ENDDO         
  C:9DCAH         LINE#         500
  C:9DD7H         LINE#         501
  C:9DD7H         LINE#         507
  C:9DE1H         LINE#         508
  C:9DF3H         LINE#         509
  -------         ENDPROC       _PCT_WINATTRCTRL
  -------         PROC          _PCT_WINATTRCTRLY
  X:01DDH         SYMBOL        _wid
  X:01DEH         SYMBOL        _attrsel
  X:01DFH         SYMBOL        _setval
  -------         DO            
  D:0004H         SYMBOL        dat
  -------         ENDDO         
  C:9B63H         LINE#         518
  C:9B70H         LINE#         519
  C:9B70H         LINE#         524
  C:9B7DH         LINE#         525
  C:9B8FH         LINE#         526
  -------         ENDPROC       _PCT_WINATTRCTRLY
  -------         PROC          _PCT_WINATTRCLEAR
  X:03D0H         SYMBOL        _attrsel
  -------         DO            
  X:03D1H         SYMBOL        _wid
  X:03D2H         SYMBOL        dat
  -------         ENDDO         
BL51 BANKED LINKER/LOCATER V6.22                                                      11/30/2015  19:14:20  PAGE 87


  C:9A6DH         LINE#         535
  C:9A72H         LINE#         536
  C:9A72H         LINE#         543
  C:9A7FH         LINE#         544
  C:9A8DH         LINE#         545
  C:9A98H         LINE#         546
  C:9AA4H         LINE#         547
  C:9AACH         LINE#         548
  -------         ENDPROC       _PCT_WINATTRCLEAR
  -------         PROC          _PCT_WINPOPUPCTRL
  X:03DFH         SYMBOL        _wid
  -------         DO            
  D:0004H         SYMBOL        dat
  -------         ENDDO         
  C:A285H         LINE#         555
  C:A28AH         LINE#         556
  C:A28AH         LINE#         562
  C:A297H         LINE#         563
  C:A29BH         LINE#         564
  -------         ENDPROC       _PCT_WINPOPUPCTRL
  -------         ENDMOD        TW28XX_VIDEO

  -------         MODULE        TW2835_INIT
  C:0000H         SYMBOL        _ICE_DUMMY_
  D:0080H         PUBLIC        P0
  D:0090H         PUBLIC        P1
  D:00A0H         PUBLIC        P2
  D:00C0H         PUBLIC        XICON
  D:00B0H         PUBLIC        P3
  D:00E8H         PUBLIC        P4
  D:00A8H         PUBLIC        IE
  C:4000H         PUBLIC        TW2835_Page0
  C:4200H         PUBLIC        TW2835_Page1
  C:9968H         PUBLIC        PCT_InitialTW2835
  D:00B8H         PUBLIC        IP
  C:A515H         PUBLIC        PCT_TW2835ResetN
  D:00D8H         PUBLIC        CCON
  D:00C0H         PUBLIC        WDTC
  D:0098H         PUBLIC        SCON
  D:0088H         PUBLIC        TCON
  C:8E8DH         PUBLIC        _PCT_ChangeSystemType
  D:00F8H         PUBLIC        IPA
  D:00C8H         PUBLIC        T2CON
  B:00E8H.0       PUBLIC        RSTn
  C:8DC2H         PUBLIC        PCT_TW2835_Initial
  D:00D0H         PUBLIC        PSW
  C:A402H         SYMBOL        Com000C
  C:A402H         SYMBOL        L?0013
  C:A40BH         SYMBOL        L?0014
  -------         PROC          COM000C
  -------         ENDPROC       COM000C
  -------         PROC          PCT_INITIALTW2835
  C:9968H         LINE#         77
  C:9968H         LINE#         78
  C:9968H         LINE#         79
  C:996BH         LINE#         80
  C:9970H         LINE#         83
BL51 BANKED LINKER/LOCATER V6.22                                                      11/30/2015  19:14:20  PAGE 88


  C:9975H         LINE#         84
  C:997DH         LINE#         86
  C:998BH         LINE#         87
  C:998BH         LINE#         88
  C:9995H         LINE#         92
  C:9997H         LINE#         93
  C:9997H         LINE#         95
  C:999EH         LINE#         100
  C:99A0H         LINE#         101
  C:99A5H         LINE#         103
  C:99A8H         LINE#         105
  -------         ENDPROC       PCT_INITIALTW2835
  -------         PROC          PCT_TW2835RESETN
  -------         DO            
  D:0006H         SYMBOL        _delay
  -------         ENDDO         
  C:A515H         LINE#         113
  C:A515H         LINE#         114
  C:A515H         LINE#         129
  C:A517H         LINE#         132
  C:A525H         LINE#         134
  C:A527H         LINE#         138
  -------         ENDPROC       PCT_TW2835RESETN
  C:8E1DH         SYMBOL        L?0015
  -------         PROC          PCT_TW2835_INITIAL
  -------         DO            
  X:01D5H         SYMBOL        offset
  -------         ENDDO         
  C:8DC2H         LINE#         144
  C:8DC2H         LINE#         145
  C:8DC2H         LINE#         148
  C:8DCDH         LINE#         149
  C:8DD9H         LINE#         150
  C:8DEBH         LINE#         152
  C:8E02H         LINE#         154
  C:8E1DH         LINE#         155
  -------         ENDPROC       PCT_TW2835_INITIAL
  C:8EE5H         SYMBOL        L?0016
  -------         PROC          _PCT_CHANGESYSTEMTYPE
  D:0007H         SYMBOL        _sys
  -------         DO            
  X:0006H         SYMBOL        offset
  -------         ENDDO         
  C:8E8DH         LINE#         161
  C:8E8DH         LINE#         162
  C:8E8DH         LINE#         165
  C:8E95H         LINE#         166
  C:8EA1H         LINE#         168
  C:8EB4H         LINE#         170
  C:8ECAH         LINE#         171
  C:8EE5H         LINE#         172
  -------         ENDPROC       _PCT_CHANGESYSTEMTYPE
  -------         ENDMOD        TW2835_INIT

  -------         MODULE        NED
  C:0000H         SYMBOL        _ICE_DUMMY_
  X:020BH         PUBLIC        SC16_Com
BL51 BANKED LINKER/LOCATER V6.22                                                      11/30/2015  19:14:20  PAGE 89


  C:A6BAH         PUBLIC        _GPIOGetPortState
  C:A528H         PUBLIC        _WriteI2C2
  D:0080H         PUBLIC        P0
  D:0090H         PUBLIC        P1
  C:99ECH         PUBLIC        _SC16_data_reset
  D:00A0H         PUBLIC        P2
  C:A55FH         PUBLIC        I2CStart2
  C:9BD9H         PUBLIC        Sent_DVR_temp
  D:00C0H         PUBLIC        XICON
  D:00B0H         PUBLIC        P3
  X:0214H         PUBLIC        Camera_move_loop
  C:A5BFH         PUBLIC        I2Cdelay2
  D:00E8H         PUBLIC        P4
  C:A6B4H         PUBLIC        _Command_Check
  X:0215H         PUBLIC        DVR_temp
  X:0217H         PUBLIC        Cam_startup_flag
  C:A064H         PUBLIC        Get_DVR_temp
  C:8AC7H         PUBLIC        _Bound_Set
  C:A5CEH         PUBLIC        _Sent_Camera_IRD
  C:A67DH         PUBLIC        _GPIOSetPortState
  C:A591H         PUBLIC        _Power_onoff
  C:A394H         PUBLIC        _WriteI2CWORD
  X:0218H         PUBLIC        Camera_press0
  D:00A8H         PUBLIC        IE
  X:0219H         PUBLIC        Camera_press1
  C:A674H         PUBLIC        _GPIOSetPortMode
  C:98DFH         PUBLIC        _Get_Camera_IRD
  X:021AH         PUBLIC        Camera_press2
  X:021BH         PUBLIC        Camera_press3
  C:8F55H         PUBLIC        GPIO_check
  B:00A0H.0       PUBLIC        P2_0
  X:021CH         PUBLIC        Cam_Com
  B:00A0H.1       PUBLIC        P2_1
  C:9780H         PUBLIC        Sent_Camera_RAng
  B:00A0H.2       PUBLIC        P2_2
  C:A621H         PUBLIC        _ReadByte
  C:89CCH         PUBLIC        SC16_init
  B:00E8H.1       PUBLIC        P4_1
  B:00A0H.3       PUBLIC        P2_3
  X:0221H         PUBLIC        Camera_temp0
  B:00E8H.2       PUBLIC        P4_2
  X:0222H         PUBLIC        Camera_RAng
  X:0226H         PUBLIC        Camera_temp1
  B:00B0H.4       PUBLIC        P3_4
  B:00A0H.5       PUBLIC        P2_5
  B:00B0H.5       PUBLIC        P3_5
  B:00A0H.6       PUBLIC        P2_6
  X:0227H         PUBLIC        data_flag
  X:0228H         PUBLIC        GPIO_current
  C:97C7H         PUBLIC        Sent_DVR_ver
  C:A038H         PUBLIC        Get_Camera_RAng
  D:00B8H         PUBLIC        IP
  C:A614H         PUBLIC        I2CStop2
  X:0229H         PUBLIC        DVR_ver
  X:022CH         PUBLIC        Com_flag
  C:A45FH         PUBLIC        _parity
  C:A6C6H         PUBLIC        _FIFOAvailableSpace
BL51 BANKED LINKER/LOCATER V6.22                                                      11/30/2015  19:14:20  PAGE 90


  X:022DH         PUBLIC        Com_addr
  C:A090H         PUBLIC        Get_DVR_ver
  D:00C6H         PUBLIC        ADCV
  X:022EH         PUBLIC        SC16_busy_flag
  C:84A0H         PUBLIC        _TW2835_get
  C:94B2H         PUBLIC        I2C_ACK2
  C:A2F5H         PUBLIC        _EnableTransmit
  X:0230H         PUBLIC        peek_flag
  D:00D8H         PUBLIC        CCON
  X:0231H         PUBLIC        SC16_com_buff
  C:A686H         PUBLIC        _WriteByte
  C:A5ECH         PUBLIC        _flush
  X:023AH         PUBLIC        Cam_boot_flag
  X:023BH         PUBLIC        DVR_Y
  C:A645H         PUBLIC        _peek
  C:A6C0H         PUBLIC        _FIFOAvailableData
  C:99ABH         PUBLIC        I2CReadDataWithACK
  C:980EH         PUBLIC        Send_Camera_Press
  X:023FH         PUBLIC        Camera_ver0
  X:0240H         PUBLIC        Camera_ver1
  X:0241H         PUBLIC        Camera_ver2
  C:A16BH         PUBLIC        _ping
  D:0087H         PUBLIC        PCON
  X:0242H         PUBLIC        Com_start
  C:A68FH         PUBLIC        MCTRL_set
  C:9C13H         PUBLIC        Send_Camera_Temp
  D:00C0H         PUBLIC        WDTC
  D:0098H         PUBLIC        SCON
  D:0088H         PUBLIC        TCON
  C:8EF1H         PUBLIC        _SetLine
  X:0243H         PUBLIC        Com_temp
  X:0244H         PUBLIC        Shrink_f
  X:0245H         PUBLIC        Back_f
  X:0246H         PUBLIC        Com_end
  C:A196H         PUBLIC        _BCC_Cal
  C:9CF2H         PUBLIC        I2CReadData
  C:9E67H         PUBLIC        Repeat_PWM_Com
  X:0247H         PUBLIC        get_data_addr
  C:9E99H         PUBLIC        SC16_DataCheck
  C:A375H         PUBLIC        _ReadI2C
  X:0248H         PUBLIC        DVR_Com_p
  B:0088H.1       PUBLIC        IE0
  B:0088H.3       PUBLIC        IE1
  B:00C0H.1       PUBLIC        IE2
  C:9739H         PUBLIC        Sent_Camera_Ang
  C:9B18H         SYMBOL        _?ix1000
  C:9B1BH         SYMBOL        _?ix1001
  X:0249H         PUBLIC        Camera_Ang
  C:9B1FH         SYMBOL        _?ix1002
  C:9B23H         SYMBOL        _?ix1003
  X:024DH         PUBLIC        peek_buf
  C:A00CH         PUBLIC        Get_Camera_Ang
  C:A336H         PUBLIC        _ADC_read
  C:96F2H         PUBLIC        Send_Camera_Ver
  X:024EH         PUBLIC        Camera_flag
  C:8543H         PUBLIC        _I2CWriteData
  C:5B01H         PUBLIC        _SC16_SendDataSelect
BL51 BANKED LINKER/LOCATER V6.22                                                      11/30/2015  19:14:20  PAGE 91


  C:A4C6H         PUBLIC        _WriteI2C
  B:00A8H.0       PUBLIC        EX0
  B:0088H.0       PUBLIC        IT0
  D:008DH         PUBLIC        TH1
  X:024FH         PUBLIC        Camera_IRDA
  C:A6D5H         PUBLIC        Sent_DVR_MDr
  B:00A8H.2       PUBLIC        EX1
  B:0088H.2       PUBLIC        IT1
  C:94FCH         PUBLIC        _Set_Camera_speed
  B:00C0H.0       PUBLIC        IT2
  B:00C0H.2       PUBLIC        EX2
  C:A54DH         PUBLIC        I2CStart
  C:A6D4H         PUBLIC        I2Cdelay
  X:026BH         PUBLIC        DRP_ID
  X:0274H         PUBLIC        Com_pos
  X:0275H         PUBLIC        Monitor_current
  X:0276H         PUBLIC        Com_run
  C:000EH         PUBLIC        _ResetDevice
  D:00F8H         PUBLIC        IPA
  C:8118H         PUBLIC        _SetBaudrate
  X:0277H         PUBLIC        Crop_f
  C:A140H         PUBLIC        I2CReadDataWithACK2
  C:A1EAH         PUBLIC        ADT75_init
  C:9854H         PUBLIC        Sent_DVR_Year
  C:9FE0H         PUBLIC        Get_Camera_Ver
  X:0278H         PUBLIC        DVR_MD
  C:A4B2H         PUBLIC        I2C_100Khz
  C:8349H         PUBLIC        _SC16_ComCheck
  C:A0E8H         PUBLIC        Get_DVR_MD
  X:027CH         PUBLIC        DVR_MH
  X:0280H         PUBLIC        DVR_startup_flag
  C:A0BCH         PUBLIC        Get_DVR_Year
  X:0281H         PUBLIC        get_data_val
  X:0282H         PUBLIC        Cam_Com_p
  C:A6D6H         PUBLIC        Sent_DVR_HS
  C:7C06H         PUBLIC        Camera_move
  C:9ECBH         PUBLIC        _SC16_SendData
  C:870FH         PUBLIC        Check_other_Com
  C:A607H         PUBLIC        I2CStop
  D:00C8H         PUBLIC        T2CON
  X:0283H         PUBLIC        INT_flag
  C:60ABH         PUBLIC        _SC16_BCC_Check
  D:00C5H         PUBLIC        ADCTL
  C:A114H         PUBLIC        Get_DVR_HS
  C:8A4CH         PUBLIC        _Set_channel
  D:00BEH         PUBLIC        ADCVL
  C:A2ABH         PUBLIC        I2CReadData2
  X:0284H         PUBLIC        DVR_Com
  C:A581H         PUBLIC        I2C_ACK
  C:A2D0H         PUBLIC        _ReadI2C2
  X:0289H         PUBLIC        Monitor_state
  X:028AH         PUBLIC        OUTPUT
  X:028BH         PUBLIC        Monitor_mode
  C:A41BH         PUBLIC        _Set_INT
  C:8677H         PUBLIC        _check_startup
  D:00D0H         PUBLIC        PSW
  C:96ABH         PUBLIC        _ReadI2CWORD
BL51 BANKED LINKER/LOCATER V6.22                                                      11/30/2015  19:14:20  PAGE 92


  X:028CH         PUBLIC        SC16_ComAddr
  C:8C86H         PUBLIC        _I2CWriteData2
  C:8D59H         PUBLIC        _Get_Data
  C:735EH         SYMBOL        Com01B8
  C:735EH         SYMBOL        L?0441
  C:735FH         SYMBOL        L?0442
  C:7360H         SYMBOL        L?0443
  C:7361H         SYMBOL        L?0444
  C:7364H         SYMBOL        L?0445
  C:7365H         SYMBOL        L?0446
  C:7367H         SYMBOL        L?0447
  C:736FH         SYMBOL        L?0450
  C:7370H         SYMBOL        L?0451
  C:7373H         SYMBOL        L?0452
  C:7376H         SYMBOL        L?0453
  C:7380H         SYMBOL        L?0454
  C:7380H         SYMBOL        L?0455
  C:7384H         SYMBOL        L?0456
  C:7392H         SYMBOL        L?0458
  C:7392H         SYMBOL        L?0459
  C:7395H         SYMBOL        L?0460
  C:739FH         SYMBOL        L?0463
  C:739FH         SYMBOL        L?0464
  C:73A4H         SYMBOL        L?0465
  C:73ACH         SYMBOL        L?0467
  C:73ACH         SYMBOL        L?0468
  C:73B8H         SYMBOL        L?0470
  C:73B8H         SYMBOL        L?0471
  C:73BBH         SYMBOL        L?0472
  C:73C3H         SYMBOL        L?0483
  C:73C7H         SYMBOL        L?0484
  C:73CEH         SYMBOL        L?0485
  C:73CEH         SYMBOL        L?0486
  C:73D5H         SYMBOL        L?0488
  C:73D5H         SYMBOL        L?0489
  C:73E1H         SYMBOL        L?0493
  C:73EEH         SYMBOL        L?0494
  C:73F8H         SYMBOL        L?0495
  C:73F8H         SYMBOL        L?0496
  C:7400H         SYMBOL        L?0501
  C:740BH         SYMBOL        L?0502
  C:7416H         SYMBOL        L?0503
  C:7421H         SYMBOL        L?0505
  C:742BH         SYMBOL        L?0506
  C:7435H         SYMBOL        L?0507
  C:743FH         SYMBOL        L?0508
  C:743FH         SYMBOL        L?0509
  C:7446H         SYMBOL        L?0510
  C:7446H         SYMBOL        L?0511
  C:744DH         SYMBOL        L?0512
  C:744DH         SYMBOL        L?0513
  C:7454H         SYMBOL        L?0514
  C:7454H         SYMBOL        L?0515
  C:745BH         SYMBOL        L?0516
  C:745BH         SYMBOL        L?0517
  C:7462H         SYMBOL        L?0518
  C:7462H         SYMBOL        L?0519
BL51 BANKED LINKER/LOCATER V6.22                                                      11/30/2015  19:14:20  PAGE 93


  C:7469H         SYMBOL        L?0520
  C:7473H         SYMBOL        L?0521
  C:747DH         SYMBOL        L?0522
  -------         PROC          COM01B8
  -------         ENDPROC       COM01B8
  -------         PROC          I2CDELAY
  -------         DO            
  X:01DDH         SYMBOL        i
  -------         ENDDO         
  C:A6D4H         LINE#         121
  C:A6D4H         LINE#         122
  C:A6D4H         LINE#         136
  -------         ENDPROC       I2CDELAY
  -------         PROC          I2CDELAY2
  -------         DO            
  D:0006H         SYMBOL        i
  -------         ENDDO         
  C:A5BFH         LINE#         137
  C:A5BFH         LINE#         138
  C:A5BFH         LINE#         140
  C:A5C2H         LINE#         142
  C:A5CDH         LINE#         143
  -------         ENDPROC       I2CDELAY2
  -------         PROC          I2C_100KHZ
  C:A4B2H         LINE#         145
  C:A4B2H         LINE#         146
  C:A4B2H         LINE#         148
  C:A4BFH         LINE#         149
  C:A4C5H         LINE#         150
  -------         ENDPROC       I2C_100KHZ
  -------         PROC          I2CSTART
  C:A54DH         LINE#         152
  C:A54DH         LINE#         153
  C:A54DH         LINE#         155
  C:A552H         LINE#         156
  C:A557H         LINE#         157
  C:A55CH         LINE#         158
  C:A55EH         LINE#         174
  -------         ENDPROC       I2CSTART
  -------         PROC          I2CSTART2
  C:A55FH         LINE#         176
  C:A55FH         LINE#         177
  C:A55FH         LINE#         179
  C:A564H         LINE#         180
  C:A569H         LINE#         181
  C:A56EH         LINE#         182
  C:A570H         LINE#         183
  -------         ENDPROC       I2CSTART2
  -------         PROC          I2CSTOP
  C:A607H         LINE#         184
  C:A607H         LINE#         185
  C:A607H         LINE#         187
  C:A60CH         LINE#         188
  C:A611H         LINE#         189
  C:A613H         LINE#         204
  -------         ENDPROC       I2CSTOP
  -------         PROC          I2CSTOP2
BL51 BANKED LINKER/LOCATER V6.22                                                      11/30/2015  19:14:20  PAGE 94


  C:A614H         LINE#         206
  C:A614H         LINE#         207
  C:A614H         LINE#         209
  C:A619H         LINE#         210
  C:A61EH         LINE#         211
  C:A620H         LINE#         212
  -------         ENDPROC       I2CSTOP2
  C:85AAH         SYMBOL        L?0462
  C:85B7H         SYMBOL        L?0466
  C:85C4H         SYMBOL        L?0469
  C:85D1H         SYMBOL        L?0491
  -------         PROC          _I2CWRITEDATA
  D:0007H         SYMBOL        value
  C:8543H         LINE#         214
  C:8543H         LINE#         215
  C:8543H         LINE#         217
  C:854DH         LINE#         218
  C:8558H         LINE#         219
  C:8563H         LINE#         220
  C:856EH         LINE#         222
  C:8579H         LINE#         223
  C:8584H         LINE#         224
  C:858FH         LINE#         225
  C:859AH         LINE#         228
  C:859DH         LINE#         229
  C:859DH         LINE#         230
  C:859DH         LINE#         231
  C:859DH         LINE#         233
  C:859DH         LINE#         234
  C:85A0H         LINE#         235
  C:85A2H         LINE#         236
  C:85A5H         LINE#         237
  C:85A7H         LINE#         238
  C:85AAH         LINE#         280
  -------         ENDPROC       _I2CWRITEDATA
  -------         PROC          _I2CWRITEDATA2
  D:0005H         SYMBOL        value
  C:8C86H         LINE#         283
  C:8C88H         LINE#         284
  C:8C88H         LINE#         286
  C:8C92H         LINE#         287
  C:8C9DH         LINE#         288
  C:8CA8H         LINE#         289
  C:8CB8H         LINE#         291
  C:8CC3H         LINE#         292
  C:8CCEH         LINE#         293
  C:8CD9H         LINE#         294
  C:8CE4H         LINE#         297
  C:8CE7H         LINE#         298
  C:8CE7H         LINE#         299
  C:8CE7H         LINE#         300
  C:8CE7H         LINE#         302
  C:8CE7H         LINE#         303
  C:8CEAH         LINE#         304
  C:8CEAH         LINE#         305
  C:8CEAH         LINE#         306
  C:8CEDH         LINE#         307
BL51 BANKED LINKER/LOCATER V6.22                                                      11/30/2015  19:14:20  PAGE 95


  -------         ENDPROC       _I2CWRITEDATA2
  -------         PROC          I2CREADDATA
  -------         DO            
  D:0004H         SYMBOL        i
  D:0007H         SYMBOL        value
  -------         ENDDO         
  C:9CF2H         LINE#         312
  C:9CF2H         LINE#         313
  C:9CF2H         LINE#         316
  C:9CF4H         LINE#         318
  C:9CF9H         LINE#         319
  C:9CFBH         LINE#         321
  C:9CFDH         LINE#         322
  C:9D00H         LINE#         323
  C:9D02H         LINE#         324
  C:9D06H         LINE#         325
  C:9D0CH         LINE#         326
  C:9D0FH         LINE#         327
  C:9D11H         LINE#         328
  C:9D14H         LINE#         329
  C:9D1FH         LINE#         331
  C:9D22H         LINE#         335
  C:9D25H         LINE#         337
  C:9D28H         LINE#         338
  C:9D28H         LINE#         398
  -------         ENDPROC       I2CREADDATA
  -------         PROC          I2CREADDATA2
  -------         DO            
  D:0002H         SYMBOL        i
  D:0005H         SYMBOL        value
  -------         ENDDO         
  C:A2ABH         LINE#         400
  C:A2ABH         LINE#         401
  C:A2ABH         LINE#         404
  C:A2ABH         LINE#         406
  C:A2ABH         LINE#         407
  C:A2ABH         LINE#         409
  C:A2AEH         LINE#         410
  C:A2AEH         LINE#         411
  C:A2AEH         LINE#         412
  C:A2B1H         LINE#         413
  C:A2B7H         LINE#         414
  C:A2B7H         LINE#         415
  C:A2B7H         LINE#         416
  C:A2B7H         LINE#         417
  C:A2C4H         LINE#         419
  C:A2C7H         LINE#         423
  C:A2CAH         LINE#         425
  C:A2CDH         LINE#         426
  C:A2CFH         LINE#         427
  -------         ENDPROC       I2CREADDATA2
  -------         PROC          I2CREADDATAWITHACK
  -------         DO            
  D:0004H         SYMBOL        i
  D:0007H         SYMBOL        value
  -------         ENDDO         
  C:99ABH         LINE#         429
BL51 BANKED LINKER/LOCATER V6.22                                                      11/30/2015  19:14:20  PAGE 96


  C:99ABH         LINE#         430
  C:99ABH         LINE#         433
  C:99ADH         LINE#         435
  C:99B2H         LINE#         436
  C:99B4H         LINE#         438
  C:99B6H         LINE#         439
  C:99B9H         LINE#         440
  C:99BBH         LINE#         441
  C:99BFH         LINE#         442
  C:99C5H         LINE#         443
  C:99C8H         LINE#         444
  C:99CAH         LINE#         445
  C:99CDH         LINE#         446
  C:99D8H         LINE#         448
  C:99DAH         LINE#         452
  C:99DDH         LINE#         453
  C:99DFH         LINE#         454
  C:99E1H         LINE#         455
  C:99E3H         LINE#         456
  C:99E6H         LINE#         457
  C:99E8H         LINE#         458
  C:99EBH         LINE#         460
  C:99EBH         LINE#         496
  -------         ENDPROC       I2CREADDATAWITHACK
  -------         PROC          I2CREADDATAWITHACK2
  -------         DO            
  D:0002H         SYMBOL        i
  D:0005H         SYMBOL        value
  -------         ENDDO         
  C:A140H         LINE#         498
  C:A140H         LINE#         499
  C:A140H         LINE#         502
  C:A140H         LINE#         504
  C:A140H         LINE#         505
  C:A140H         LINE#         507
  C:A143H         LINE#         508
  C:A143H         LINE#         509
  C:A143H         LINE#         510
  C:A146H         LINE#         511
  C:A14CH         LINE#         512
  C:A14CH         LINE#         513
  C:A14CH         LINE#         514
  C:A14CH         LINE#         515
  C:A159H         LINE#         517
  C:A15BH         LINE#         521
  C:A15EH         LINE#         522
  C:A160H         LINE#         523
  C:A162H         LINE#         524
  C:A162H         LINE#         525
  C:A162H         LINE#         526
  C:A165H         LINE#         527
  C:A168H         LINE#         529
  C:A16AH         LINE#         530
  -------         ENDPROC       I2CREADDATAWITHACK2
  -------         PROC          _WRITEI2C
  D:0007H         SYMBOL        addr
  D:0005H         SYMBOL        index
BL51 BANKED LINKER/LOCATER V6.22                                                      11/30/2015  19:14:20  PAGE 97


  D:0003H         SYMBOL        val
  C:A4C6H         LINE#         532
  C:A4C6H         LINE#         533
  C:A4C6H         LINE#         536
  C:A4C9H         LINE#         537
  C:A4CCH         LINE#         538
  C:A4D2H         LINE#         539
  C:A4D7H         LINE#         540
  -------         ENDPROC       _WRITEI2C
  -------         PROC          _READI2C
  D:0006H         SYMBOL        addr
  D:0005H         SYMBOL        index
  -------         DO            
  D:0007H         SYMBOL        val
  -------         ENDDO         
  C:A375H         LINE#         554
  C:A377H         LINE#         555
  C:A377H         LINE#         559
  C:A37AH         LINE#         560
  C:A37DH         LINE#         561
  C:A383H         LINE#         562
  C:A386H         LINE#         563
  C:A38DH         LINE#         564
  C:A390H         LINE#         567
  C:A393H         LINE#         612
  C:A393H         LINE#         613
  -------         ENDPROC       _READI2C
  -------         PROC          _WRITEI2C2
  D:0007H         SYMBOL        addr
  D:0005H         SYMBOL        index
  D:0003H         SYMBOL        val
  C:A528H         LINE#         615
  C:A528H         LINE#         616
  C:A528H         LINE#         617
  C:A52BH         LINE#         618
  C:A52EH         LINE#         619
  C:A533H         LINE#         620
  C:A538H         LINE#         621
  -------         ENDPROC       _WRITEI2C2
  -------         PROC          _READI2C2
  D:0006H         SYMBOL        addr
  D:0005H         SYMBOL        index
  -------         DO            
  X:03E0H         SYMBOL        val
  -------         ENDDO         
  C:A2D0H         LINE#         625
  C:A2D2H         LINE#         626
  C:A2D2H         LINE#         629
  C:A2D5H         LINE#         630
  C:A2D8H         LINE#         631
  C:A2DDH         LINE#         632
  C:A2E0H         LINE#         633
  C:A2E7H         LINE#         634
  C:A2EFH         LINE#         636
  C:A2F2H         LINE#         637
  C:A2F4H         LINE#         638
  -------         ENDPROC       _READI2C2
BL51 BANKED LINKER/LOCATER V6.22                                                      11/30/2015  19:14:20  PAGE 98


  -------         PROC          I2C_ACK
  C:A581H         LINE#         641
  C:A581H         LINE#         642
  C:A581H         LINE#         646
  C:A584H         LINE#         647
  C:A586H         LINE#         648
  C:A589H         LINE#         649
  C:A58BH         LINE#         650
  C:A58EH         LINE#         651
  C:A590H         LINE#         652
  -------         ENDPROC       I2C_ACK
  -------         PROC          I2C_ACK2
  C:94B2H         LINE#         654
  C:94B2H         LINE#         655
  C:94B2H         LINE#         661
  C:94C9H         LINE#         662
  C:94CBH         LINE#         663
  C:94E2H         LINE#         665
  C:94E4H         LINE#         666
  C:94FBH         LINE#         671
  -------         ENDPROC       I2C_ACK2
  -------         PROC          _READI2CWORD
  D:0006H         SYMBOL        addr
  D:0005H         SYMBOL        index
  -------         DO            
  X:0006H         SYMBOL        val
  -------         ENDDO         
  C:96ABH         LINE#         674
  C:96ADH         LINE#         675
  C:96ADH         LINE#         676
  C:96B4H         LINE#         678
  C:96B7H         LINE#         679
  C:96BAH         LINE#         681
  C:96BFH         LINE#         684
  C:96C2H         LINE#         685
  C:96C9H         LINE#         687
  C:96D4H         LINE#         688
  C:96DDH         LINE#         689
  C:96E6H         LINE#         690
  C:96E9H         LINE#         692
  C:96F1H         LINE#         693
  -------         ENDPROC       _READI2CWORD
  -------         PROC          _WRITEI2CWORD
  D:0004H         SYMBOL        addr
  D:0005H         SYMBOL        index
  D:0002H         SYMBOL        Data
  -------         DO            
  D:0006H         SYMBOL        tempL
  D:0001H         SYMBOL        tempH
  -------         ENDDO         
  C:A394H         LINE#         696
  C:A396H         LINE#         697
  C:A396H         LINE#         700
  C:A398H         LINE#         701
  C:A39AH         LINE#         702
  C:A39DH         LINE#         703
  C:A3A0H         LINE#         704
BL51 BANKED LINKER/LOCATER V6.22                                                      11/30/2015  19:14:20  PAGE 99


  C:A3A5H         LINE#         705
  C:A3AAH         LINE#         706
  C:A3AFH         LINE#         707
  -------         ENDPROC       _WRITEI2CWORD
  C:8B2EH         SYMBOL        L?0497
  -------         PROC          _BOUND_SET
  X:01D5H         SYMBOL        val
  -------         DO            
  X:01D6H         SYMBOL        Mask
  -------         ENDDO         
  C:8AC7H         LINE#         712
  C:8ACCH         LINE#         713
  C:8ACCH         LINE#         717
  C:8ADFH         LINE#         740
  C:8AEFH         LINE#         741
  C:8AEFH         LINE#         742
  C:8AF4H         LINE#         743
  C:8AF4H         LINE#         744
  C:8AF6H         LINE#         745
  C:8AFBH         LINE#         746
  C:8AFBH         LINE#         747
  C:8AFDH         LINE#         748
  C:8B09H         LINE#         749
  C:8B14H         LINE#         750
  C:8B16H         LINE#         751
  C:8B16H         LINE#         754
  C:8B1DH         LINE#         755
  C:8B22H         LINE#         756
  C:8B2DH         LINE#         757
  C:8B2DH         LINE#         758
  C:8B2DH         LINE#         777
  -------         ENDPROC       _BOUND_SET
  C:8ABBH         SYMBOL        L?0498
  -------         PROC          _SET_CHANNEL
  X:03E1H         SYMBOL        addr
  C:8A4CH         LINE#         781
  C:8A51H         LINE#         782
  C:8A51H         LINE#         783
  C:8A58H         LINE#         784
  C:8A5DH         LINE#         785
  C:8A68H         LINE#         788
  C:8A8EH         LINE#         789
  C:8A8EH         LINE#         790
  C:8A98H         LINE#         791
  C:8AA2H         LINE#         792
  C:8AB1H         LINE#         793
  C:8AB1H         LINE#         794
  C:8AB1H         LINE#         795
  C:8AB1H         LINE#         796
  C:8AB5H         LINE#         797
  C:8AB7H         LINE#         798
  C:8ABAH         LINE#         799
  C:8ABAH         LINE#         800
  C:8ABAH         LINE#         802
  C:8ABAH         LINE#         804
  -------         ENDPROC       _SET_CHANNEL
  -------         PROC          _ADC_READ
BL51 BANKED LINKER/LOCATER V6.22                                                      11/30/2015  19:14:20  PAGE 100


  D:0007H         SYMBOL        sel
  C:A336H         LINE#         810
  C:A336H         LINE#         811
  C:A336H         LINE#         813
  C:A33BH         LINE#         815
  C:A340H         LINE#         817
  C:A355H         LINE#         819
  -------         ENDPROC       _ADC_READ
  -------         PROC          SEND_CAMERA_VER
  -------         DO            
  X:03E2H         SYMBOL        loop
  -------         ENDDO         
  C:96F2H         LINE#         823
  C:96F2H         LINE#         824
  C:96F2H         LINE#         827
  C:96F2H         LINE#         828
  C:96F2H         LINE#         829
  C:96F8H         LINE#         830
  C:9700H         LINE#         831
  C:9708H         LINE#         832
  C:9710H         LINE#         833
  C:9713H         LINE#         834
  C:9713H         LINE#         835
  C:9719H         LINE#         837
  C:972AH         LINE#         838
  C:972AH         LINE#         839
  C:9730H         LINE#         840
  C:9738H         LINE#         841
  -------         ENDPROC       SEND_CAMERA_VER
  C:9FFEH         SYMBOL        L?0474
  -------         PROC          GET_CAMERA_VER
  C:9FE0H         LINE#         843
  C:9FE0H         LINE#         844
  C:9FE0H         LINE#         845
  C:9FE2H         LINE#         846
  C:9FEAH         LINE#         847
  C:9FECH         LINE#         848
  C:9FF4H         LINE#         849
  C:9FFEH         LINE#         850
  -------         ENDPROC       GET_CAMERA_VER
  -------         PROC          SEND_CAMERA_TEMP
  -------         DO            
  X:000CH         SYMBOL        loop
  -------         ENDDO         
  C:9C13H         LINE#         853
  C:9C13H         LINE#         854
  C:9C13H         LINE#         858
  C:9C13H         LINE#         859
  C:9C13H         LINE#         860
  C:9C18H         LINE#         861
  C:9C20H         LINE#         862
  C:9C23H         LINE#         863
  C:9C23H         LINE#         864
  C:9C26H         LINE#         865
  C:9C26H         LINE#         866
  C:9C2CH         LINE#         868
  C:9C3DH         LINE#         869
BL51 BANKED LINKER/LOCATER V6.22                                                      11/30/2015  19:14:20  PAGE 101


  C:9C3DH         LINE#         870
  C:9C43H         LINE#         871
  C:9C4BH         LINE#         874
  -------         ENDPROC       SEND_CAMERA_TEMP
  -------         PROC          SEND_CAMERA_PRESS
  -------         DO            
  X:000CH         SYMBOL        loop
  -------         ENDDO         
  C:980EH         LINE#         878
  C:980EH         LINE#         879
  C:980EH         LINE#         882
  C:980EH         LINE#         883
  C:980EH         LINE#         884
  C:9813H         LINE#         891
  C:981BH         LINE#         892
  C:9823H         LINE#         893
  C:982BH         LINE#         894
  C:982EH         LINE#         896
  C:982EH         LINE#         897
  C:9834H         LINE#         899
  C:9845H         LINE#         900
  C:9845H         LINE#         901
  C:984BH         LINE#         902
  C:9853H         LINE#         906
  -------         ENDPROC       SEND_CAMERA_PRESS
  C:A02AH         SYMBOL        L?0475
  -------         PROC          GET_CAMERA_ANG
  C:A00CH         LINE#         909
  C:A00CH         LINE#         910
  C:A00CH         LINE#         911
  C:A00EH         LINE#         912
  C:A016H         LINE#         913
  C:A018H         LINE#         914
  C:A020H         LINE#         915
  C:A02AH         LINE#         917
  -------         ENDPROC       GET_CAMERA_ANG
  -------         PROC          SENT_CAMERA_ANG
  -------         DO            
  X:000CH         SYMBOL        loop
  -------         ENDDO         
  C:9739H         LINE#         919
  C:9739H         LINE#         920
  C:9739H         LINE#         924
  C:9739H         LINE#         925
  C:9739H         LINE#         926
  C:973FH         LINE#         927
  C:9747H         LINE#         928
  C:974FH         LINE#         929
  C:9757H         LINE#         930
  C:975AH         LINE#         931
  C:975AH         LINE#         932
  C:9760H         LINE#         934
  C:9771H         LINE#         935
  C:9771H         LINE#         936
  C:9777H         LINE#         937
  C:977FH         LINE#         939
  -------         ENDPROC       SENT_CAMERA_ANG
BL51 BANKED LINKER/LOCATER V6.22                                                      11/30/2015  19:14:20  PAGE 102


  C:A056H         SYMBOL        L?0476
  -------         PROC          GET_CAMERA_RANG
  C:A038H         LINE#         941
  C:A038H         LINE#         942
  C:A038H         LINE#         943
  C:A03AH         LINE#         944
  C:A042H         LINE#         945
  C:A044H         LINE#         946
  C:A04CH         LINE#         947
  C:A056H         LINE#         948
  -------         ENDPROC       GET_CAMERA_RANG
  -------         PROC          SENT_CAMERA_RANG
  -------         DO            
  X:000CH         SYMBOL        loop
  -------         ENDDO         
  C:9780H         LINE#         950
  C:9780H         LINE#         951
  C:9780H         LINE#         955
  C:9780H         LINE#         956
  C:9780H         LINE#         957
  C:9786H         LINE#         958
  C:978EH         LINE#         959
  C:9796H         LINE#         960
  C:979EH         LINE#         961
  C:97A1H         LINE#         962
  C:97A1H         LINE#         963
  C:97A7H         LINE#         965
  C:97B8H         LINE#         966
  C:97B8H         LINE#         967
  C:97BEH         LINE#         968
  C:97C6H         LINE#         970
  -------         ENDPROC       SENT_CAMERA_RANG
  C:9916H         SYMBOL        L?0477
  -------         PROC          _GET_CAMERA_IRD
  X:03DAH         SYMBOL        sel
  -------         DO            
  X:03DBH         SYMBOL        bcc_val
  -------         ENDDO         
  C:98DFH         LINE#         973
  C:98E4H         LINE#         974
  C:98E4H         LINE#         976
  C:98E7H         LINE#         978
  C:98EAH         LINE#         979
  C:98EDH         LINE#         980
  C:98EFH         LINE#         981
  C:98F2H         LINE#         985
  C:98F4H         LINE#         986
  C:98FCH         LINE#         987
  C:9909H         LINE#         988
  C:990BH         LINE#         989
  C:9916H         LINE#         991
  -------         ENDPROC       _GET_CAMERA_IRD
  -------         PROC          _SENT_CAMERA_IRD
  X:000CH         SYMBOL        sel
  -------         DO            
  X:000DH         SYMBOL        loop
  X:000EH         SYMBOL        temp
BL51 BANKED LINKER/LOCATER V6.22                                                      11/30/2015  19:14:20  PAGE 103


  -------         ENDDO         
  C:A5CEH         LINE#         992
  C:A5D3H         LINE#         993
  C:A5D3H         LINE#         996
  C:A5D8H         LINE#         998
  -------         ENDPROC       _SENT_CAMERA_IRD
  C:A082H         SYMBOL        L?0478
  -------         PROC          GET_DVR_TEMP
  C:A064H         LINE#         1021
  C:A064H         LINE#         1022
  C:A064H         LINE#         1023
  C:A066H         LINE#         1024
  C:A06EH         LINE#         1025
  C:A070H         LINE#         1026
  C:A078H         LINE#         1027
  C:A082H         LINE#         1028
  -------         ENDPROC       GET_DVR_TEMP
  -------         PROC          SENT_DVR_TEMP
  -------         DO            
  X:000CH         SYMBOL        loop
  -------         ENDDO         
  C:9BD9H         LINE#         1031
  C:9BD9H         LINE#         1032
  C:9BD9H         LINE#         1035
  C:9BD9H         LINE#         1036
  C:9BD9H         LINE#         1037
  C:9BDFH         LINE#         1038
  C:9BE7H         LINE#         1039
  C:9BEAH         LINE#         1040
  C:9BEAH         LINE#         1041
  C:9BEDH         LINE#         1042
  C:9BEDH         LINE#         1043
  C:9BF3H         LINE#         1045
  C:9C04H         LINE#         1046
  C:9C04H         LINE#         1047
  C:9C0AH         LINE#         1048
  C:9C12H         LINE#         1051
  -------         ENDPROC       SENT_DVR_TEMP
  C:A0AEH         SYMBOL        L?0479
  -------         PROC          GET_DVR_VER
  C:A090H         LINE#         1052
  C:A090H         LINE#         1053
  C:A090H         LINE#         1054
  C:A092H         LINE#         1055
  C:A09AH         LINE#         1056
  C:A09CH         LINE#         1057
  C:A0A4H         LINE#         1058
  C:A0AEH         LINE#         1059
  -------         ENDPROC       GET_DVR_VER
  -------         PROC          SENT_DVR_VER
  -------         DO            
  X:03E3H         SYMBOL        loop
  -------         ENDDO         
  C:97C7H         LINE#         1060
  C:97C7H         LINE#         1061
  C:97C7H         LINE#         1064
  C:97C7H         LINE#         1065
BL51 BANKED LINKER/LOCATER V6.22                                                      11/30/2015  19:14:20  PAGE 104


  C:97C7H         LINE#         1066
  C:97CDH         LINE#         1067
  C:97D5H         LINE#         1068
  C:97DDH         LINE#         1069
  C:97E5H         LINE#         1070
  C:97E8H         LINE#         1071
  C:97E8H         LINE#         1072
  C:97EEH         LINE#         1074
  C:97FFH         LINE#         1075
  C:97FFH         LINE#         1076
  C:9805H         LINE#         1077
  C:980DH         LINE#         1079
  -------         ENDPROC       SENT_DVR_VER
  C:A0DAH         SYMBOL        L?0480
  -------         PROC          GET_DVR_YEAR
  C:A0BCH         LINE#         1080
  C:A0BCH         LINE#         1081
  C:A0BCH         LINE#         1082
  C:A0BEH         LINE#         1083
  C:A0C6H         LINE#         1084
  C:A0C8H         LINE#         1085
  C:A0D0H         LINE#         1086
  C:A0DAH         LINE#         1087
  -------         ENDPROC       GET_DVR_YEAR
  -------         PROC          SENT_DVR_YEAR
  -------         DO            
  X:03E4H         SYMBOL        loop
  -------         ENDDO         
  C:9854H         LINE#         1089
  C:9854H         LINE#         1090
  C:9854H         LINE#         1093
  C:9854H         LINE#         1094
  C:9854H         LINE#         1095
  C:9859H         LINE#         1096
  C:9861H         LINE#         1097
  C:9869H         LINE#         1098
  C:9871H         LINE#         1099
  C:9874H         LINE#         1100
  C:9874H         LINE#         1101
  C:987AH         LINE#         1103
  C:988BH         LINE#         1104
  C:988BH         LINE#         1105
  C:9891H         LINE#         1106
  C:9899H         LINE#         1109
  -------         ENDPROC       SENT_DVR_YEAR
  C:A106H         SYMBOL        L?0481
  -------         PROC          GET_DVR_MD
  C:A0E8H         LINE#         1110
  C:A0E8H         LINE#         1111
  C:A0E8H         LINE#         1112
  C:A0EAH         LINE#         1113
  C:A0F2H         LINE#         1114
  C:A0F4H         LINE#         1115
  C:A0FCH         LINE#         1116
  C:A106H         LINE#         1117
  -------         ENDPROC       GET_DVR_MD
  -------         PROC          SENT_DVR_MDR
BL51 BANKED LINKER/LOCATER V6.22                                                      11/30/2015  19:14:20  PAGE 105


  C:A6D5H         LINE#         1118
  C:A6D5H         LINE#         1119
  -------         ENDPROC       SENT_DVR_MDR
  C:A132H         SYMBOL        L?0482
  -------         PROC          GET_DVR_HS
  C:A114H         LINE#         1120
  C:A114H         LINE#         1121
  C:A114H         LINE#         1122
  C:A116H         LINE#         1123
  C:A11EH         LINE#         1124
  C:A120H         LINE#         1125
  C:A128H         LINE#         1126
  C:A132H         LINE#         1127
  -------         ENDPROC       GET_DVR_HS
  -------         PROC          SENT_DVR_HS
  C:A6D6H         LINE#         1128
  -------         ENDPROC       SENT_DVR_HS
  C:951CH         SYMBOL        L?0461
  C:9534H         SYMBOL        L?0490
  -------         PROC          _SET_CAMERA_SPEED
  D:0007H         SYMBOL        val
  C:94FCH         LINE#         1131
  C:94FCH         LINE#         1132
  C:94FCH         LINE#         1133
  C:9502H         LINE#         1134
  C:9502H         LINE#         1135
  C:9502H         LINE#         1136
  C:9505H         LINE#         1137
  C:9507H         LINE#         1138
  C:9507H         LINE#         1139
  C:950CH         LINE#         1140
  C:950EH         LINE#         1142
  C:950EH         LINE#         1143
  C:950EH         LINE#         1144
  C:9511H         LINE#         1145
  C:9513H         LINE#         1146
  C:9513H         LINE#         1147
  C:951BH         LINE#         1148
  C:951BH         LINE#         1154
  -------         ENDPROC       _SET_CAMERA_SPEED
  -------         PROC          GPIO_CHECK
  -------         DO            
  D:0007H         SYMBOL        GPIO_state
  X:0006H         SYMBOL        IO_flag
  X:0007H         SYMBOL        count
  -------         ENDDO         
  C:8F55H         LINE#         1158
  C:8F55H         LINE#         1159
  C:8F55H         LINE#         1160
  C:8F5EH         LINE#         1162
  C:8F67H         LINE#         1164
  C:8F6FH         LINE#         1167
  C:8F6FH         LINE#         1168
  C:8F74H         LINE#         1169
  C:8F7BH         LINE#         1170
  C:8F7BH         LINE#         1171
  C:8F7EH         LINE#         1172
BL51 BANKED LINKER/LOCATER V6.22                                                      11/30/2015  19:14:20  PAGE 106


  C:8F82H         LINE#         1173
  C:8F84H         LINE#         1174
  C:8F84H         LINE#         1175
  C:8F95H         LINE#         1176
  C:8F95H         LINE#         1178
  C:8F95H         LINE#         1179
  C:8F95H         LINE#         1180
  C:8F95H         LINE#         1181
  C:8F97H         LINE#         1182
  C:8F9AH         LINE#         1183
  C:8F9AH         LINE#         1184
  C:8F9CH         LINE#         1185
  C:8F9CH         LINE#         1186
  C:8F9FH         LINE#         1187
  C:8FA2H         LINE#         1188
  C:8FA4H         LINE#         1189
  C:8FA4H         LINE#         1190
  C:8FA7H         LINE#         1191
  C:8FAAH         LINE#         1192
  C:8FACH         LINE#         1193
  C:8FAFH         LINE#         1194
  C:8FB2H         LINE#         1195
  C:8FB2H         LINE#         1196
  C:8FB2H         LINE#         1199
  C:8FB7H         LINE#         1205
  -------         ENDPROC       GPIO_CHECK
  -------         PROC          _POWER_ONOFF
  D:0007H         SYMBOL        sel
  C:A591H         LINE#         1208
  C:A591H         LINE#         1209
  C:A591H         LINE#         1211
  C:A596H         LINE#         1212
  C:A598H         LINE#         1213
  C:A59AH         LINE#         1214
  -------         ENDPROC       _POWER_ONOFF
  -------         PROC          SC16_INIT
  -------         DO            
  X:0006H         SYMBOL        Dev_ID
  -------         ENDDO         
  C:89CCH         LINE#         1221
  C:89CCH         LINE#         1222
  C:89CCH         LINE#         1226
  C:89CEH         LINE#         1227
  C:89D5H         LINE#         1228
  C:89D7H         LINE#         1229
  C:89DEH         LINE#         1232
  C:89EDH         LINE#         1233
  C:89EDH         LINE#         1234
  C:89F6H         LINE#         1235
  C:8A0DH         LINE#         1236
  C:8A20H         LINE#         1237
  C:8A2DH         LINE#         1238
  C:8A35H         LINE#         1245
  C:8A3FH         LINE#         1246
  C:8A49H         LINE#         1247
  C:8A4BH         LINE#         1248
  -------         ENDPROC       SC16_INIT
BL51 BANKED LINKER/LOCATER V6.22                                                      11/30/2015  19:14:20  PAGE 107


  -------         PROC          _SC16_SENDDATA
  X:000CH         SYMBOL        val
  -------         DO            
  X:000DH         SYMBOL        error
  -------         ENDDO         
  C:9ECBH         LINE#         1250
  C:9ED0H         LINE#         1251
  C:9ED0H         LINE#         1252
  C:9ED3H         LINE#         1264
  C:9EDAH         LINE#         1265
  C:9EDFH         LINE#         1266
  C:9EE6H         LINE#         1267
  C:9EF3H         LINE#         1269
  C:9EF9H         LINE#         1275
  C:9EFBH         LINE#         1277
  -------         ENDPROC       _SC16_SENDDATA
  C:5CECH         SYMBOL        L?0487
  -------         PROC          _SC16_SENDDATASELECT
  X:0009H         SYMBOL        addr
  -------         DO            
  X:000AH         SYMBOL        loop
  X:000BH         SYMBOL        Error
  X:000CH         SYMBOL        count
  X:000DH         SYMBOL        data_temp
  X:000EH         SYMBOL        buff_flag
  X:000FH         SYMBOL        loop_temp
  X:0010H         SYMBOL        error_flag
  X:0011H         SYMBOL        etx_flag
  -------         ENDDO         
  C:5B01H         LINE#         1280
  C:5B04H         LINE#         1281
  C:5B04H         LINE#         1283
  C:5B09H         LINE#         1285
  C:5B0FH         LINE#         1286
  C:5B12H         LINE#         1287
  C:5B14H         LINE#         1322
  C:5B23H         LINE#         1323
  C:5B23H         LINE#         1324
  C:5B30H         LINE#         1327
  C:5B35H         LINE#         1339
  C:5B40H         LINE#         1341
  C:5B48H         LINE#         1342
  C:5B48H         LINE#         1343
  C:5B50H         LINE#         1349
  C:5B5BH         LINE#         1350
  C:5B6EH         LINE#         1355
  C:5B71H         LINE#         1356
  C:5B7CH         LINE#         1358
  C:5B90H         LINE#         1359
  C:5B90H         LINE#         1361
  C:5B96H         LINE#         1363
  C:5B9CH         LINE#         1364
  C:5BADH         LINE#         1365
  C:5BADH         LINE#         1367
  C:5BB9H         LINE#         1368
  C:5BB9H         LINE#         1369
  C:5BBFH         LINE#         1371
BL51 BANKED LINKER/LOCATER V6.22                                                      11/30/2015  19:14:20  PAGE 108


  C:5BBFH         LINE#         1373
  C:5BD1H         LINE#         1377
  C:5BF1H         LINE#         1378
  C:5BF1H         LINE#         1379
  C:5BF4H         LINE#         1384
  C:5BF6H         LINE#         1385
  C:5BFAH         LINE#         1386
  C:5BFAH         LINE#         1387
  C:5BFFH         LINE#         1388
  C:5C10H         LINE#         1389
  C:5C15H         LINE#         1391
  C:5C15H         LINE#         1404
  C:5C18H         LINE#         1406
  C:5C1BH         LINE#         1409
  C:5C24H         LINE#         1411
  C:5C2DH         LINE#         1412
  C:5C2DH         LINE#         1415
  C:5C38H         LINE#         1416
  C:5C38H         LINE#         1419
  C:5C3BH         LINE#         1424
  C:5C40H         LINE#         1426
  C:5C43H         LINE#         1427
  C:5C43H         LINE#         1428
  C:5C50H         LINE#         1429
  C:5C50H         LINE#         1433
  C:5C5BH         LINE#         1434
  C:5C5BH         LINE#         1437
  C:5C5EH         LINE#         1442
  C:5C63H         LINE#         1443
  C:5C66H         LINE#         1444
  C:5C66H         LINE#         1448
  C:5C78H         LINE#         1449
  C:5C78H         LINE#         1450
  C:5C7BH         LINE#         1451
  C:5C7BH         LINE#         1453
  C:5C81H         LINE#         1454
  C:5C81H         LINE#         1456
  C:5C89H         LINE#         1458
  C:5C96H         LINE#         1459
  C:5CABH         LINE#         1461
  C:5CB7H         LINE#         1462
  C:5CB7H         LINE#         1465
  C:5CCAH         LINE#         1466
  C:5CCAH         LINE#         1469
  C:5CD5H         LINE#         1477
  C:5CDBH         LINE#         1478
  C:5CE0H         LINE#         1479
  C:5CE0H         LINE#         1483
  C:5CE3H         LINE#         1484
  C:5CE3H         LINE#         1486
  C:5CE6H         LINE#         1487
  C:5CE6H         LINE#         1489
  C:5CE6H         LINE#         1515
  C:5CE6H         LINE#         1540
  C:5CE6H         LINE#         1581
  C:5CEBH         LINE#         1583
  -------         ENDPROC       _SC16_SENDDATASELECT
BL51 BANKED LINKER/LOCATER V6.22                                                      11/30/2015  19:14:20  PAGE 109


  -------         PROC          _COMMAND_CHECK
  X:03E5H         SYMBOL        val
  C:A6B4H         LINE#         1585
  C:A6B9H         LINE#         1586
  C:A6B9H         LINE#         1589
  -------         ENDPROC       _COMMAND_CHECK
  C:9E91H         SYMBOL        L?0492
  -------         PROC          REPEAT_PWM_COM
  C:9E67H         LINE#         1591
  C:9E67H         LINE#         1592
  C:9E67H         LINE#         1593
  C:9E6DH         LINE#         1594
  C:9E73H         LINE#         1595
  C:9E7DH         LINE#         1596
  C:9E87H         LINE#         1597
  C:9E91H         LINE#         1600
  -------         ENDPROC       REPEAT_PWM_COM
  -------         PROC          SC16_DATACHECK
  -------         DO            
  X:0006H         SYMBOL        Dev_ID
  X:0007H         SYMBOL        Error
  X:0008H         SYMBOL        count
  -------         ENDDO         
  C:9E99H         LINE#         1604
  C:9E99H         LINE#         1605
  C:9E99H         LINE#         1607
  C:9EA2H         LINE#         1664
  C:9EA8H         LINE#         1665
  C:9EA8H         LINE#         1666
  C:9EACH         LINE#         1668
  C:9EB2H         LINE#         1669
  C:9EB4H         LINE#         1670
  C:9EBBH         LINE#         1671
  C:9EBBH         LINE#         1672
  C:9EC0H         LINE#         1674
  C:9EC5H         LINE#         1675
  C:9EC5H         LINE#         1683
  C:9ECAH         LINE#         1684
  -------         ENDPROC       SC16_DATACHECK
  -------         PROC          _SC16_DATA_RESET
  D:0006H         SYMBOL        sel
  C:99ECH         LINE#         1687
  C:99ECH         LINE#         1688
  C:99ECH         LINE#         1702
  C:99F8H         LINE#         1704
  C:9A1AH         LINE#         1705
  C:9A1AH         LINE#         1706
  C:9A1DH         LINE#         1707
  C:9A20H         LINE#         1708
  C:9A23H         LINE#         1709
  C:9A26H         LINE#         1710
  C:9A26H         LINE#         1711
  C:9A26H         LINE#         1712
  C:9A26H         LINE#         1713
  C:9A26H         LINE#         1714
  C:9A26H         LINE#         1715
  C:9A26H         LINE#         1716
BL51 BANKED LINKER/LOCATER V6.22                                                      11/30/2015  19:14:20  PAGE 110


  C:9A26H         LINE#         1717
  C:9A29H         LINE#         1718
  C:9A2CH         LINE#         1724
  C:9A2CH         LINE#         1725
  C:9A2CH         LINE#         1728
  -------         ENDPROC       _SC16_DATA_RESET
  C:7C90H         SYMBOL        L?0448
  C:7CAAH         SYMBOL        L?0449
  C:7CBDH         SYMBOL        L?0457
  C:7CD5H         SYMBOL        L?0473
  -------         PROC          CAMERA_MOVE
  -------         DO            
  X:0006H         SYMBOL        mask
  X:000AH         SYMBOL        cam
  X:000EH         SYMBOL        BCC
  X:0012H         SYMBOL        loop
  -------         ENDDO         
  C:7C06H         LINE#         1731
  C:7C06H         LINE#         1732
  C:7C06H         LINE#         1734
  C:7C11H         LINE#         1735
  C:7C1CH         LINE#         1736
  C:7C2BH         LINE#         1740
  C:7C33H         LINE#         1741
  C:7C33H         LINE#         1742
  C:7C3AH         LINE#         1743
  C:7C3AH         LINE#         1744
  C:7C3AH         LINE#         1745
  C:7C3AH         LINE#         1746
  C:7C3FH         LINE#         1747
  C:7C3FH         LINE#         1748
  C:7C47H         LINE#         1749
  C:7C47H         LINE#         1751
  C:7C4EH         LINE#         1752
  C:7C4EH         LINE#         1753
  C:7C4EH         LINE#         1754
  C:7C4EH         LINE#         1755
  C:7C53H         LINE#         1756
  C:7C53H         LINE#         1757
  C:7C5BH         LINE#         1758
  C:7C5BH         LINE#         1759
  C:7C60H         LINE#         1760
  C:7C61H         LINE#         1762
  C:7C61H         LINE#         1763
  C:7C68H         LINE#         1764
  C:7C68H         LINE#         1765
  C:7C68H         LINE#         1766
  C:7C6BH         LINE#         1767
  C:7C6DH         LINE#         1768
  C:7C6DH         LINE#         1769
  C:7C75H         LINE#         1770
  C:7C75H         LINE#         1772
  C:7C7CH         LINE#         1773
  C:7C7CH         LINE#         1774
  C:7C7CH         LINE#         1775
  C:7C7FH         LINE#         1776
  C:7C81H         LINE#         1777
BL51 BANKED LINKER/LOCATER V6.22                                                      11/30/2015  19:14:20  PAGE 111


  C:7C81H         LINE#         1778
  C:7C89H         LINE#         1779
  C:7C89H         LINE#         1781
  C:7C8FH         LINE#         1782
  C:7C8FH         LINE#         1797
  -------         ENDPROC       CAMERA_MOVE
  -------         PROC          _CHECK_STARTUP
  X:03C0H         SYMBOL        addr
  -------         DO            
  X:03C1H         SYMBOL        loop
  X:03C2H         SYMBOL        Error
  X:03C3H         SYMBOL        count
  D:0003H         SYMBOL        data_temp
  -------         ENDDO         
  C:8677H         LINE#         1800
  C:867AH         LINE#         1801
  C:867AH         LINE#         1803
  C:867EH         LINE#         1806
  C:8690H         LINE#         1807
  C:8690H         LINE#         1808
  C:86A0H         LINE#         1810
  C:86A8H         LINE#         1819
  C:86BBH         LINE#         1820
  C:86BBH         LINE#         1821
  C:86C6H         LINE#         1823
  C:86CDH         LINE#         1824
  C:86CDH         LINE#         1825
  C:86DCH         LINE#         1826
  C:86DCH         LINE#         1827
  C:86E4H         LINE#         1831
  C:86E6H         LINE#         1832
  C:86EAH         LINE#         1833
  C:86EAH         LINE#         1834
  C:86FBH         LINE#         1835
  C:86FBH         LINE#         1836
  C:8706H         LINE#         1840
  C:8706H         LINE#         1843
  C:870EH         LINE#         1845
  C:870EH         LINE#         1848
  -------         ENDPROC       _CHECK_STARTUP
  -------         PROC          _SC16_COMCHECK
  D:0001H         SYMBOL        addr
  -------         DO            
  X:0012H         SYMBOL        pos
  X:0013H         SYMBOL        temp
  -------         ENDDO         
  C:8349H         LINE#         1853
  C:8349H         LINE#         1854
  C:8349H         LINE#         1857
  C:8350H         LINE#         1858
  C:8351H         LINE#         1859
  C:835FH         LINE#         1860
  C:835FH         LINE#         1861
  C:835FH         LINE#         1862
  C:835FH         LINE#         1863
  C:8367H         LINE#         1864
  C:8367H         LINE#         1865
BL51 BANKED LINKER/LOCATER V6.22                                                      11/30/2015  19:14:20  PAGE 112


  C:8368H         LINE#         1866
  C:836EH         LINE#         1867
  C:836EH         LINE#         1868
  C:8374H         LINE#         1869
  C:8374H         LINE#         1870
  C:837AH         LINE#         1871
  C:837AH         LINE#         1872
  C:8381H         LINE#         1873
  C:8387H         LINE#         1874
  C:838AH         LINE#         1875
  C:838AH         LINE#         1876
  C:838FH         LINE#         1877
  C:838FH         LINE#         1878
  C:8390H         LINE#         1879
  C:8396H         LINE#         1880
  C:8396H         LINE#         1881
  C:839CH         LINE#         1882
  C:839CH         LINE#         1883
  C:83A2H         LINE#         1884
  C:83A2H         LINE#         1885
  C:83A9H         LINE#         1886
  C:83AFH         LINE#         1887
  C:83B1H         LINE#         1888
  C:83B1H         LINE#         1907
  C:83B8H         LINE#         1908
  C:83B8H         LINE#         1909
  C:83B9H         LINE#         1910
  C:83BFH         LINE#         1911
  C:83BFH         LINE#         1912
  C:83C5H         LINE#         1913
  C:83C5H         LINE#         1914
  C:83CCH         LINE#         1915
  C:83D2H         LINE#         1916
  C:83D4H         LINE#         1917
  C:83D4H         LINE#         1920
  C:83D4H         LINE#         1921
  C:83D4H         LINE#         1922
  C:83D4H         LINE#         1923
  C:83DBH         LINE#         1924
  C:83DBH         LINE#         1925
  C:83DCH         LINE#         1926
  C:83E2H         LINE#         1927
  C:83E2H         LINE#         1928
  C:83E9H         LINE#         1929
  C:83F0H         LINE#         1930
  C:83F3H         LINE#         1931
  C:83F3H         LINE#         1932
  C:83F3H         LINE#         1952
  C:83F3H         LINE#         1953
  C:83F5H         LINE#         1954
  C:83F5H         LINE#         1955
  C:83F5H         LINE#         1983
  -------         ENDPROC       _SC16_COMCHECK
  -------         PROC          _BCC_CAL
  D:0001H         SYMBOL        addr
  X:000DH         SYMBOL        count
  -------         DO            
BL51 BANKED LINKER/LOCATER V6.22                                                      11/30/2015  19:14:20  PAGE 113


  D:0007H         SYMBOL        f_val
  X:000EH         SYMBOL        s_val
  D:0006H         SYMBOL        loop
  -------         ENDDO         
  C:A196H         LINE#         1987
  C:A19BH         LINE#         1988
  C:A19BH         LINE#         1989
  C:A19DH         LINE#         1990
  C:A19FH         LINE#         1991
  C:A1A0H         LINE#         1992
  C:A1A6H         LINE#         1994
  C:A1B0H         LINE#         1995
  C:A1B0H         LINE#         1998
  C:A1B5H         LINE#         1999
  C:A1BCH         LINE#         2000
  C:A1BFH         LINE#         2001
  C:A1BFH         LINE#         2033
  -------         ENDPROC       _BCC_CAL
  -------         PROC          _GET_DATA
  D:0007H         SYMBOL        addr
  X:03E6H         SYMBOL        val
  C:8D59H         LINE#         2036
  C:8D5EH         LINE#         2037
  C:8D5EH         LINE#         2039
  C:8D8BH         LINE#         2040
  C:8D8BH         LINE#         2041
  C:8D90H         LINE#         2042
  C:8D95H         LINE#         2043
  C:8D9AH         LINE#         2044
  C:8D9FH         LINE#         2045
  C:8DACH         LINE#         2046
  C:8DB1H         LINE#         2047
  C:8DB6H         LINE#         2048
  C:8DBEH         LINE#         2049
  C:8DBEH         LINE#         2050
  C:8DBEH         LINE#         2051
  C:8DC1H         LINE#         2052
  -------         ENDPROC       _GET_DATA
  C:627AH         SYMBOL        L?0499
  -------         PROC          _SC16_BCC_CHECK
  D:0001H         SYMBOL        addr
  X:0006H         SYMBOL        sum
  -------         DO            
  X:0007H         SYMBOL        loop
  X:0008H         SYMBOL        f_val
  X:0009H         SYMBOL        s_val
  X:000AH         SYMBOL        com
  -------         ENDDO         
  C:60ABH         LINE#         2059
  C:60B0H         LINE#         2060
  C:60B0H         LINE#         2062
  C:60B5H         LINE#         2063
  C:60B7H         LINE#         2076
  C:60BAH         LINE#         2077
  C:60BAH         LINE#         2078
  C:60C0H         LINE#         2079
  C:60C0H         LINE#         2080
BL51 BANKED LINKER/LOCATER V6.22                                                      11/30/2015  19:14:20  PAGE 114


  C:60C0H         LINE#         2081
  C:60C6H         LINE#         2082
  C:60C6H         LINE#         2083
  C:60C6H         LINE#         2084
  C:60CEH         LINE#         2087
  C:60D6H         LINE#         2088
  C:60D6H         LINE#         2089
  C:60D8H         LINE#         2090
  C:60E3H         LINE#         2091
  C:60E3H         LINE#         2092
  C:60E7H         LINE#         2093
  C:60EEH         LINE#         2094
  C:60EEH         LINE#         2095
  C:60EFH         LINE#         2096
  C:60F9H         LINE#         2097
  C:60F9H         LINE#         2098
  C:60FCH         LINE#         2099
  C:60FCH         LINE#         2100
  C:60FFH         LINE#         2101
  C:60FFH         LINE#         2102
  C:6107H         LINE#         2104
  C:6107H         LINE#         2106
  C:6107H         LINE#         2111
  C:6115H         LINE#         2112
  C:6115H         LINE#         2113
  C:6135H         LINE#         2114
  C:6135H         LINE#         2115
  C:613AH         LINE#         2116
  C:6142H         LINE#         2117
  C:614AH         LINE#         2118
  C:614FH         LINE#         2119
  C:6157H         LINE#         2123
  C:6162H         LINE#         2124
  C:6162H         LINE#         2125
  C:6169H         LINE#         2126
  C:616FH         LINE#         2127
  C:6175H         LINE#         2128
  C:617CH         LINE#         2129
  C:6186H         LINE#         2130
  C:6186H         LINE#         2133
  C:6189H         LINE#         2134
  C:619EH         LINE#         2135
  C:619EH         LINE#         2136
  C:61A3H         LINE#         2137
  C:61A6H         LINE#         2139
  C:61B2H         LINE#         2140
  C:61B2H         LINE#         2141
  C:61B5H         LINE#         2145
  C:61B8H         LINE#         2146
  C:61C4H         LINE#         2147
  C:61C4H         LINE#         2148
  C:61C7H         LINE#         2152
  C:61CAH         LINE#         2153
  C:61D6H         LINE#         2154
  C:61D6H         LINE#         2155
  C:61D9H         LINE#         2159
  C:61DCH         LINE#         2160
BL51 BANKED LINKER/LOCATER V6.22                                                      11/30/2015  19:14:20  PAGE 115


  C:61E8H         LINE#         2161
  C:61E8H         LINE#         2162
  C:61EBH         LINE#         2166
  C:61EEH         LINE#         2168
  C:6203H         LINE#         2169
  C:6203H         LINE#         2170
  C:6208H         LINE#         2175
  C:620AH         LINE#         2177
  C:6216H         LINE#         2178
  C:6216H         LINE#         2179
  C:6219H         LINE#         2183
  C:621BH         LINE#         2184
  C:6227H         LINE#         2185
  C:6227H         LINE#         2186
  C:622AH         LINE#         2190
  C:622CH         LINE#         2191
  C:6238H         LINE#         2192
  C:6238H         LINE#         2193
  C:623BH         LINE#         2197
  C:623DH         LINE#         2211
  C:623DH         LINE#         2217
  C:6243H         LINE#         2218
  C:6243H         LINE#         2220
  C:6256H         LINE#         2221
  C:6267H         LINE#         2231
  C:6267H         LINE#         2233
  C:6267H         LINE#         2234
  C:626CH         LINE#         2239
  C:626CH         LINE#         2242
  C:626FH         LINE#         2243
  C:626FH         LINE#         2248
  C:6272H         LINE#         2250
  C:6272H         LINE#         2252
  C:6272H         LINE#         2253
  C:6277H         LINE#         2257
  C:6279H         LINE#         2258
  C:6279H         LINE#         2262
  -------         ENDPROC       _SC16_BCC_CHECK
  -------         PROC          CHECK_OTHER_COM
  C:870FH         LINE#         2266
  C:870FH         LINE#         2267
  C:870FH         LINE#         2269
  C:8717H         LINE#         2270
  C:8717H         LINE#         2271
  C:871AH         LINE#         2272
  C:871AH         LINE#         2276
  C:8732H         LINE#         2278
  C:8736H         LINE#         2279
  C:8736H         LINE#         2280
  C:873EH         LINE#         2281
  C:873EH         LINE#         2282
  C:8740H         LINE#         2283
  C:8747H         LINE#         2284
  C:8747H         LINE#         2285
  C:8750H         LINE#         2286
  C:8755H         LINE#         2287
  C:8757H         LINE#         2289
BL51 BANKED LINKER/LOCATER V6.22                                                      11/30/2015  19:14:20  PAGE 116


  C:875CH         LINE#         2292
  C:875CH         LINE#         2293
  C:875EH         LINE#         2294
  C:875EH         LINE#         2296
  C:8774H         LINE#         2298
  C:8778H         LINE#         2299
  C:8778H         LINE#         2300
  C:8780H         LINE#         2301
  C:8780H         LINE#         2302
  C:8782H         LINE#         2303
  C:8789H         LINE#         2304
  C:8789H         LINE#         2305
  C:8792H         LINE#         2306
  C:8797H         LINE#         2307
  C:8797H         LINE#         2309
  C:8797H         LINE#         2310
  C:8799H         LINE#         2311
  C:8799H         LINE#         2314
  C:879CH         LINE#         2316
  C:879CH         LINE#         2317
  C:879CH         LINE#         2318
  C:879CH         LINE#         2319
  C:879CH         LINE#         2322
  C:879CH         LINE#         2324
  C:879CH         LINE#         2329
  C:879CH         LINE#         2332
  C:879CH         LINE#         2334
  C:879CH         LINE#         2336
  C:879CH         LINE#         2338
  C:879CH         LINE#         2344
  C:879CH         LINE#         2347
  C:879CH         LINE#         2349
  C:879CH         LINE#         2352
  C:879CH         LINE#         2354
  C:87A2H         LINE#         2358
  -------         ENDPROC       CHECK_OTHER_COM
  -------         PROC          _PARITY
  D:0007H         SYMBOL        ino
  -------         DO            
  D:0006H         SYMBOL        noofones
  D:0005H         SYMBOL        mask
  -------         ENDDO         
  C:A45FH         LINE#         2380
  C:A45FH         LINE#         2381
  C:A45FH         LINE#         2382
  C:A461H         LINE#         2385
  C:A463H         LINE#         2387
  C:A466H         LINE#         2388
  C:A466H         LINE#         2389
  C:A469H         LINE#         2390
  C:A469H         LINE#         2391
  C:A46AH         LINE#         2392
  C:A46AH         LINE#         2393
  C:A46EH         LINE#         2394
  C:A470H         LINE#         2397
  C:A474H         LINE#         2400
  -------         ENDPROC       _PARITY
BL51 BANKED LINKER/LOCATER V6.22                                                      11/30/2015  19:14:20  PAGE 117


  -------         PROC          ADT75_INIT
  -------         DO            
  X:03D3H         SYMBOL        Ctemp
  X:03D4H         SYMBOL        Dtemp
  -------         ENDDO         
  C:A1EAH         LINE#         2411
  C:A1EAH         LINE#         2412
  C:A1EAH         LINE#         2414
  C:A1EFH         LINE#         2415
  C:A1F3H         LINE#         2420
  C:A1FEH         LINE#         2421
  C:A206H         LINE#         2422
  C:A20FH         LINE#         2434
  C:A211H         LINE#         2436
  -------         ENDPROC       ADT75_INIT
  -------         PROC          _RESETDEVICE
  D:0003H         SYMBOL        addr
  -------         DO            
  D:0006H         SYMBOL        temp
  -------         ENDDO         
  C:000EH         LINE#         2439
  C:0010H         LINE#         2440
  C:0010H         LINE#         2442
  C:0017H         LINE#         2443
  C:001BH         LINE#         2444
  -------         ENDPROC       _RESETDEVICE
  C:81D0H         SYMBOL        L?0504
  -------         PROC          _SETBAUDRATE
  X:0007H         SYMBOL        addr
  X:0008H         SYMBOL        baudrate
  -------         DO            
  X:000CH         SYMBOL        divisor
  X:0010H         SYMBOL        prescaler
  D:0002H         SYMBOL        temp_lcr
  -------         ENDDO         
  C:8118H         LINE#         2454
  C:811DH         LINE#         2455
  C:811DH         LINE#         2471
  C:8129H         LINE#         2472
  C:812CH         LINE#         2473
  C:812EH         LINE#         2474
  C:8131H         LINE#         2475
  C:8131H         LINE#         2479
  C:817BH         LINE#         2491
  C:8187H         LINE#         2493
  C:818EH         LINE#         2495
  C:8191H         LINE#         2497
  C:8194H         LINE#         2499
  C:81A6H         LINE#         2501
  C:81C5H         LINE#         2508
  C:81C8H         LINE#         2509
  C:81CBH         LINE#         2511
  C:81CFH         LINE#         2528
  -------         ENDPROC       _SETBAUDRATE
  -------         PROC          _SETLINE
  D:0002H         SYMBOL        addr
  X:0008H         SYMBOL        data_length
BL51 BANKED LINKER/LOCATER V6.22                                                      11/30/2015  19:14:20  PAGE 118


  D:0001H         SYMBOL        parity_select
  X:000AH         SYMBOL        stop_length
  -------         DO            
  D:0006H         SYMBOL        temp_lcr
  -------         ENDDO         
  C:8EF1H         LINE#         2530
  C:8EFAH         LINE#         2531
  C:8EFAH         LINE#         2533
  C:8F01H         LINE#         2534
  C:8F05H         LINE#         2539
  C:8F15H         LINE#         2540
  C:8F15H         LINE#         2541
  C:8F15H         LINE#         2542
  C:8F15H         LINE#         2543
  C:8F19H         LINE#         2544
  C:8F1BH         LINE#         2545
  C:8F1BH         LINE#         2546
  C:8F1FH         LINE#         2547
  C:8F21H         LINE#         2548
  C:8F21H         LINE#         2551
  C:8F21H         LINE#         2552
  C:8F25H         LINE#         2553
  C:8F25H         LINE#         2554
  C:8F25H         LINE#         2556
  C:8F2CH         LINE#         2557
  C:8F30H         LINE#         2558
  C:8F30H         LINE#         2560
  C:8F3CH         LINE#         2561
  C:8F3CH         LINE#         2562
  C:8F3CH         LINE#         2563
  C:8F3CH         LINE#         2564
  C:8F40H         LINE#         2565
  C:8F42H         LINE#         2566
  C:8F42H         LINE#         2567
  C:8F46H         LINE#         2568
  C:8F48H         LINE#         2569
  C:8F48H         LINE#         2570
  C:8F4CH         LINE#         2571
  C:8F4CH         LINE#         2572
  C:8F4CH         LINE#         2573
  C:8F4CH         LINE#         2574
  C:8F4CH         LINE#         2575
  C:8F4CH         LINE#         2576
  C:8F4CH         LINE#         2578
  -------         ENDPROC       _SETLINE
  -------         PROC          _GPIOSETPORTMODE
  D:0007H         SYMBOL        addr
  D:0005H         SYMBOL        port_io
  C:A674H         LINE#         2626
  C:A674H         LINE#         2627
  C:A674H         LINE#         2629
  -------         ENDPROC       _GPIOSETPORTMODE
  -------         PROC          _GPIOSETPORTSTATE
  D:0007H         SYMBOL        addr
  D:0005H         SYMBOL        port_state
  C:A67DH         LINE#         2634
  C:A67DH         LINE#         2635
BL51 BANKED LINKER/LOCATER V6.22                                                      11/30/2015  19:14:20  PAGE 119


  C:A67DH         LINE#         2636
  -------         ENDPROC       _GPIOSETPORTSTATE
  -------         PROC          _GPIOGETPORTSTATE
  D:0007H         SYMBOL        addr
  C:A6BAH         LINE#         2639
  C:A6BAH         LINE#         2640
  C:A6BAH         LINE#         2645
  C:A6BFH         LINE#         2647
  -------         ENDPROC       _GPIOGETPORTSTATE
  -------         PROC          _FIFOAVAILABLEDATA
  D:0007H         SYMBOL        addr
  C:A6C0H         LINE#         2649
  C:A6C0H         LINE#         2650
  C:A6C0H         LINE#         2655
  C:A6C5H         LINE#         2656
  -------         ENDPROC       _FIFOAVAILABLEDATA
  -------         PROC          _FIFOAVAILABLESPACE
  D:0007H         SYMBOL        addr
  C:A6C6H         LINE#         2658
  C:A6C6H         LINE#         2659
  C:A6C6H         LINE#         2665
  C:A6CBH         LINE#         2667
  -------         ENDPROC       _FIFOAVAILABLESPACE
  -------         PROC          _ENABLETRANSMIT
  D:0003H         SYMBOL        addr
  D:0002H         SYMBOL        OnOff
  -------         DO            
  D:0006H         SYMBOL        temp_efcr
  -------         ENDDO         
  C:A2F5H         LINE#         2669
  C:A2F9H         LINE#         2670
  C:A2F9H         LINE#         2672
  C:A300H         LINE#         2673
  C:A303H         LINE#         2674
  C:A307H         LINE#         2675
  C:A309H         LINE#         2676
  C:A30DH         LINE#         2677
  C:A30DH         LINE#         2678
  -------         ENDPROC       _ENABLETRANSMIT
  -------         PROC          _FLUSH
  D:0003H         SYMBOL        addr
  -------         DO            
  D:0007H         SYMBOL        tmp_lsr
  -------         ENDDO         
  C:A5ECH         LINE#         2684
  C:A5EEH         LINE#         2685
  C:A5EEH         LINE#         2688
  C:A5EEH         LINE#         2693
  C:A5F5H         LINE#         2695
  C:A5F9H         LINE#         2698
  -------         ENDPROC       _FLUSH
  C:A18AH         SYMBOL        L?0500
  -------         PROC          _PING
  D:0002H         SYMBOL        addr
  C:A16BH         LINE#         2701
  C:A16DH         LINE#         2702
  C:A16DH         LINE#         2704
BL51 BANKED LINKER/LOCATER V6.22                                                      11/30/2015  19:14:20  PAGE 120


  C:A16FH         LINE#         2706
  C:A176H         LINE#         2710
  C:A179H         LINE#         2711
  C:A179H         LINE#         2713
  C:A17DH         LINE#         2715
  C:A184H         LINE#         2719
  C:A187H         LINE#         2720
  C:A187H         LINE#         2726
  C:A189H         LINE#         2728
  -------         ENDPROC       _PING
  -------         PROC          _WRITEBYTE
  D:0007H         SYMBOL        addr
  D:0005H         SYMBOL        val
  C:A686H         LINE#         2733
  C:A686H         LINE#         2734
  C:A686H         LINE#         2756
  -------         ENDPROC       _WRITEBYTE
  -------         PROC          _READBYTE
  D:0007H         SYMBOL        addr
  -------         DO            
  X:0012H         SYMBOL        val
  -------         ENDDO         
  C:A621H         LINE#         2762
  C:A621H         LINE#         2763
  C:A621H         LINE#         2766
  C:A62BH         LINE#         2767
  C:A62DH         LINE#         2793
  -------         ENDPROC       _READBYTE
  -------         PROC          _TW2835_GET
  X:03A9H         SYMBOL        page
  X:03AAH         SYMBOL        start
  X:03ABH         SYMBOL        count
  -------         DO            
  X:03ACH         SYMBOL        x
  X:03ADH         SYMBOL        loop
  X:03AEH         SYMBOL        step
  D:0006H         SYMBOL        val
  -------         ENDDO         
  C:84A0H         LINE#         2795
  C:84ABH         LINE#         2796
  C:84ABH         LINE#         2797
  C:84B2H         LINE#         2798
  C:84B3H         LINE#         2801
  C:84B4H         LINE#         2802
  C:84B4H         LINE#         2827
  C:84B5H         LINE#         2828
  C:84B5H         LINE#         2829
  C:84B9H         LINE#         2830
  C:84B9H         LINE#         2832
  C:84EEH         LINE#         2833
  C:8507H         LINE#         2834
  C:850EH         LINE#         2835
  C:8511H         LINE#         2836
  C:851DH         LINE#         2837
  C:852CH         LINE#         2838
  -------         ENDPROC       _TW2835_GET
  -------         PROC          _PEEK
BL51 BANKED LINKER/LOCATER V6.22                                                      11/30/2015  19:14:20  PAGE 121


  X:03E7H         SYMBOL        addr
  C:A645H         LINE#         2867
  C:A64AH         LINE#         2868
  C:A64AH         LINE#         2877
  C:A64EH         LINE#         2879
  -------         ENDPROC       _PEEK
  -------         PROC          _SET_INT
  X:03E8H         SYMBOL        addr
  C:A41BH         LINE#         2882
  C:A420H         LINE#         2883
  C:A420H         LINE#         2886
  C:A422H         LINE#         2887
  C:A424H         LINE#         2888
  C:A426H         LINE#         2890
  C:A428H         LINE#         2891
  C:A42AH         LINE#         2892
  C:A42CH         LINE#         2894
  C:A42EH         LINE#         2895
  C:A430H         LINE#         2896
  C:A432H         LINE#         2897
  -------         ENDPROC       _SET_INT
  -------         PROC          MCTRL_SET
  C:A68FH         LINE#         2900
  C:A68FH         LINE#         2901
  C:A68FH         LINE#         2904
  C:A691H         LINE#         2905
  C:A693H         LINE#         2906
  C:A695H         LINE#         2907
  C:A697H         LINE#         2908
  -------         ENDPROC       MCTRL_SET
  -------         ENDMOD        NED

  -------         MODULE        ?C?COPY
  C:2668H         PUBLIC        ?C?COPY
  -------         ENDMOD        ?C?COPY

  -------         MODULE        ?C?CLDPTR
  C:268EH         PUBLIC        ?C?CLDPTR
  -------         ENDMOD        ?C?CLDPTR

  -------         MODULE        ?C?CLDOPTR
  C:26A7H         PUBLIC        ?C?CLDOPTR
  -------         ENDMOD        ?C?CLDOPTR

  -------         MODULE        ?C?CSTPTR
  C:26D4H         PUBLIC        ?C?CSTPTR
  -------         ENDMOD        ?C?CSTPTR

  -------         MODULE        ?C?IMUL
  C:26E6H         PUBLIC        ?C?IMUL
  -------         ENDMOD        ?C?IMUL

  -------         MODULE        ?C?UIDIV
  C:26F8H         PUBLIC        ?C?UIDIV
  -------         ENDMOD        ?C?UIDIV

  -------         MODULE        ?C?IILDX
BL51 BANKED LINKER/LOCATER V6.22                                                      11/30/2015  19:14:20  PAGE 122


  C:274DH         PUBLIC        ?C?IILDX
  -------         ENDMOD        ?C?IILDX

  -------         MODULE        ?C?ILDIX
  C:2763H         PUBLIC        ?C?ILDIX
  -------         ENDMOD        ?C?ILDIX

  -------         MODULE        ?C?ILDPTR
  C:2779H         PUBLIC        ?C?ILDPTR
  -------         ENDMOD        ?C?ILDPTR

  -------         MODULE        ?C?IILDOPTR
  C:27A4H         PUBLIC        ?C?IILDOPTR
  -------         ENDMOD        ?C?IILDOPTR

  -------         MODULE        ?C?LMUL
  C:27F1H         PUBLIC        ?C?LMUL
  -------         ENDMOD        ?C?LMUL

  -------         MODULE        ?C?ULDIV
  C:287CH         PUBLIC        ?C?ULDIV
  -------         ENDMOD        ?C?ULDIV

  -------         MODULE        ?C?SLDIV
  C:9924H         PUBLIC        ?C?SLDIV
  -------         ENDMOD        ?C?SLDIV

  -------         MODULE        ?C?ULCMP
  C:290EH         PUBLIC        ?C?ULCMP
  -------         ENDMOD        ?C?ULCMP

  -------         MODULE        ?C?ULSHR
  C:291FH         PUBLIC        ?C?ULSHR
  -------         ENDMOD        ?C?ULSHR

  -------         MODULE        ?C?LSTXDATA
  C:2932H         PUBLIC        ?C?LSTXDATA
  -------         ENDMOD        ?C?LSTXDATA

  -------         MODULE        ?C?LSTKXDATA
  C:293EH         PUBLIC        ?C?LSTKXDATA
  -------         ENDMOD        ?C?LSTKXDATA

  -------         MODULE        ?C?PLDPTR
  C:296FH         PUBLIC        ?C?PLDPTR
  -------         ENDMOD        ?C?PLDPTR

  -------         MODULE        ?C?PSTPTR
  C:298FH         PUBLIC        ?C?PSTPTR
  -------         ENDMOD        ?C?PSTPTR

  -------         MODULE        ?C?CCASE
  C:29DEH         PUBLIC        ?C?CCASE
  -------         ENDMOD        ?C?CCASE

  -------         MODULE        ?C?ICASE
  C:2A04H         PUBLIC        ?C?ICASE
BL51 BANKED LINKER/LOCATER V6.22                                                      11/30/2015  19:14:20  PAGE 123


  -------         ENDMOD        ?C?ICASE

  -------         MODULE        PRINTF
  X:0012H         PUBLIC        ?_PRINTF517?BYTE
  X:0012H         PUBLIC        ?_PRINTF?BYTE
  X:0012H         PUBLIC        ?_SPRINTF517?BYTE
  X:0012H         PUBLIC        ?_SPRINTF?BYTE
  C:4819H         PUBLIC        _PRINTF
  C:4819H         PUBLIC        _PRINTF517
  C:4813H         PUBLIC        _SPRINTF
  C:4813H         PUBLIC        _SPRINTF517
  -------         ENDMOD        PRINTF

  -------         MODULE        PUTS
  C:A1C0H         PUBLIC        _PUTS
  -------         ENDMOD        PUTS

  -------         MODULE        SCANF
  X:01DDH         PUBLIC        ?_SCANF517?BYTE
  X:01DDH         PUBLIC        ?_SCANF?BYTE
  X:01DDH         PUBLIC        ?_SSCANF517?BYTE
  X:01DDH         PUBLIC        ?_SSCANF?BYTE
  C:4BA0H         PUBLIC        _SCANF
  C:4BA0H         PUBLIC        _SCANF517
  C:4B9CH         PUBLIC        _SSCANF
  C:4B9CH         PUBLIC        _SSCANF517
  -------         ENDMOD        SCANF

  -------         MODULE        ?C?STRCMP
  C:2BAFH         PUBLIC        ?C?STRCMP
  -------         ENDMOD        ?C?STRCMP

  -------         MODULE        STRLEN
  C:A475H         PUBLIC        _STRLEN
  -------         ENDMOD        STRLEN

  -------         MODULE        ATOI
  C:7DC7H         PUBLIC        _atoi
  -------         ENDMOD        ATOI

  -------         MODULE        ?C?ISTPTR
  C:2BCCH         PUBLIC        ?C?ISTPTR
  -------         ENDMOD        ?C?ISTPTR

  -------         MODULE        ?C?LNEG
  C:2BEBH         PUBLIC        ?C?LNEG
  -------         ENDMOD        ?C?LNEG

  -------         MODULE        ?C?LSTPTR
  C:2BF9H         PUBLIC        ?C?LSTPTR
  -------         ENDMOD        ?C?LSTPTR

  -------         MODULE        ?C?PLDIDATA
  C:2C13H         PUBLIC        ?C?PLDIDATA
  -------         ENDMOD        ?C?PLDIDATA

  -------         MODULE        ?C?PSTIDATA
BL51 BANKED LINKER/LOCATER V6.22                                                      11/30/2015  19:14:20  PAGE 124


  C:2C1CH         PUBLIC        ?C?PSTIDATA
  -------         ENDMOD        ?C?PSTIDATA

  -------         MODULE        ?C?PLDXDATA
  C:2C25H         PUBLIC        ?C?PLDXDATA
  -------         ENDMOD        ?C?PLDXDATA

  -------         MODULE        ?C?PLDIXDATA
  C:2C2EH         PUBLIC        ?C?PLDIXDATA
  -------         ENDMOD        ?C?PLDIXDATA

  -------         MODULE        ?C?PILDXDATA
  C:2C45H         PUBLIC        ?C?PILDXDATA
  -------         ENDMOD        ?C?PILDXDATA

  -------         MODULE        ?C?PSTXDATA
  C:2C5CH         PUBLIC        ?C?PSTXDATA
  -------         ENDMOD        ?C?PSTXDATA

  -------         MODULE        ?C?PLDPDATA
  C:2C65H         PUBLIC        ?C?PLDPDATA
  -------         ENDMOD        ?C?PLDPDATA

  -------         MODULE        ?C?PSTPDATA
  C:2C6EH         PUBLIC        ?C?PSTPDATA
  -------         ENDMOD        ?C?PSTPDATA

  -------         MODULE        ?C?PLDCODE
  C:2C77H         PUBLIC        ?C?PLDCODE
  -------         ENDMOD        ?C?PLDCODE

  -------         MODULE        PUTCHAR
  C:A212H         PUBLIC        _PUTCHAR
  -------         ENDMOD        PUTCHAR

  -------         MODULE        GETCHAR
  B:0024H.4       PUBLIC        ?C?CHARLOADED
  X:03E9H         PUBLIC        ?_UNGETCHAR?BYTE
  C:A4DAH         PUBLIC        GETCHAR
  -------         ENDMOD        GETCHAR

  -------         MODULE        UNGETC
  C:A6A0H         PUBLIC        _UNGETCHAR
  -------         ENDMOD        UNGETC

  -------         MODULE        ISDIGIT
  C:A5DDH         PUBLIC        _isdigit
  -------         ENDMOD        ISDIGIT

  -------         MODULE        ISSPACE
  C:A4EEH         PUBLIC        _isspace
  -------         ENDMOD        ISSPACE

  -------         MODULE        ?C?LSTIDATA
  C:2C83H         PUBLIC        ?C?LSTIDATA
  -------         ENDMOD        ?C?LSTIDATA

BL51 BANKED LINKER/LOCATER V6.22                                                      11/30/2015  19:14:20  PAGE 125


  -------         MODULE        ?C?LSTPDATA
  C:2C8FH         PUBLIC        ?C?LSTPDATA
  -------         ENDMOD        ?C?LSTPDATA

  -------         MODULE        _GETKEY
  C:A64FH         PUBLIC        _GETKEY
  -------         ENDMOD        _GETKEY

*** WARNING L16: UNCALLED SEGMENT, IGNORED FOR OVERLAY PROCESS
    SEGMENT: ?PR?_MONIREADPAGEBUFFER?COMMANDSHELL

*** WARNING L16: UNCALLED SEGMENT, IGNORED FOR OVERLAY PROCESS
    SEGMENT: ?PR?_MONIREADONEBUFFER?COMMANDSHELL

*** WARNING L16: UNCALLED SEGMENT, IGNORED FOR OVERLAY PROCESS
    SEGMENT: ?PR?_MONIWRITEONEBUFFER?COMMANDSHELL

*** WARNING L16: UNCALLED SEGMENT, IGNORED FOR OVERLAY PROCESS
    SEGMENT: ?PR?_MONIREADASICBYTE?COMMANDSHELL

*** WARNING L16: UNCALLED SEGMENT, IGNORED FOR OVERLAY PROCESS
    SEGMENT: ?PR?_MONIAUDIOMIXING?COMMANDSHELL

*** WARNING L16: UNCALLED SEGMENT, IGNORED FOR OVERLAY PROCESS
    SEGMENT: ?PR?MONIAUDIOMUTE?COMMANDSHELL

*** WARNING L16: UNCALLED SEGMENT, IGNORED FOR OVERLAY PROCESS
    SEGMENT: ?PR?_MONIAUDIOGAIN?COMMANDSHELL

*** WARNING L16: UNCALLED SEGMENT, IGNORED FOR OVERLAY PROCESS
    SEGMENT: ?PR?_MONIAUDIOLIVE?COMMANDSHELL

*** WARNING L16: UNCALLED SEGMENT, IGNORED FOR OVERLAY PROCESS
    SEGMENT: ?PR?MONIREGISTERDUMP?COMMANDSHELL

*** WARNING L16: UNCALLED SEGMENT, IGNORED FOR OVERLAY PROCESS
    SEGMENT: ?PR?_MONIVIDEOMIXWIN?COMMANDSHELL

*** WARNING L16: UNCALLED SEGMENT, IGNORED FOR OVERLAY PROCESS
    SEGMENT: ?PR?_MONIVIDEOMIXATTR?COMMANDSHELL

*** WARNING L16: UNCALLED SEGMENT, IGNORED FOR OVERLAY PROCESS
    SEGMENT: ?PR?MONIVIDEOAUTODETECT?COMMANDSHELL

*** WARNING L16: UNCALLED SEGMENT, IGNORED FOR OVERLAY PROCESS
    SEGMENT: ?PR?_MONISETVIDEOFORMAT?COMMANDSHELL

*** WARNING L16: UNCALLED SEGMENT, IGNORED FOR OVERLAY PROCESS
    SEGMENT: ?PR?_MONISHOWSODSTR?COMMANDSHELL

*** WARNING L16: UNCALLED SEGMENT, IGNORED FOR OVERLAY PROCESS
    SEGMENT: ?PR?PCT_AUDIOACTIONFORHS?COMMANDSHELL

*** WARNING L16: UNCALLED SEGMENT, IGNORED FOR OVERLAY PROCESS
    SEGMENT: ?PR?MONIHSCOMMDISSCROLL?COMMANDSHELL

*** WARNING L16: UNCALLED SEGMENT, IGNORED FOR OVERLAY PROCESS
BL51 BANKED LINKER/LOCATER V6.22                                                      11/30/2015  19:14:20  PAGE 126


    SEGMENT: ?PR?MONIHSCOMMVERSION?COMMANDSHELL

*** WARNING L16: UNCALLED SEGMENT, IGNORED FOR OVERLAY PROCESS
    SEGMENT: ?PR?NEWLINE?MAIN

*** WARNING L16: UNCALLED SEGMENT, IGNORED FOR OVERLAY PROCESS
    SEGMENT: ?PR?_PUTSP?MAIN

*** WARNING L16: UNCALLED SEGMENT, IGNORED FOR OVERLAY PROCESS
    SEGMENT: ?PR?_CHKSTARTCOMMSHELL?MAIN

*** WARNING L16: UNCALLED SEGMENT, IGNORED FOR OVERLAY PROCESS
    SEGMENT: ?PR?_PCT_SHOWSPEAKICON?OSDACTION_

*** WARNING L16: UNCALLED SEGMENT, IGNORED FOR OVERLAY PROCESS
    SEGMENT: ?PR?PCT_SHOWVLOSS?OSDACTION_

*** WARNING L16: UNCALLED SEGMENT, IGNORED FOR OVERLAY PROCESS
    SEGMENT: ?PR?PCT_AUDIOREGLIST?TW28XX_AUDIO

*** WARNING L16: UNCALLED SEGMENT, IGNORED FOR OVERLAY PROCESS
    SEGMENT: ?PR?PCT_VIDEOLASTMODIFY?TW28XX_VIDEO

*** WARNING L16: UNCALLED SEGMENT, IGNORED FOR OVERLAY PROCESS
    SEGMENT: ?PR?_PCT_WINATTRCLEAR?TW28XX_VIDEO

*** WARNING L16: UNCALLED SEGMENT, IGNORED FOR OVERLAY PROCESS
    SEGMENT: ?PR?I2C_100KHZ?NED

*** WARNING L16: UNCALLED SEGMENT, IGNORED FOR OVERLAY PROCESS
    SEGMENT: ?PR?I2CSTART2?NED

*** WARNING L16: UNCALLED SEGMENT, IGNORED FOR OVERLAY PROCESS
    SEGMENT: ?PR?I2CSTOP2?NED

*** WARNING L16: UNCALLED SEGMENT, IGNORED FOR OVERLAY PROCESS
    SEGMENT: ?PR?_I2CWRITEDATA2?NED

*** WARNING L16: UNCALLED SEGMENT, IGNORED FOR OVERLAY PROCESS
    SEGMENT: ?PR?I2CREADDATA2?NED

*** WARNING L16: UNCALLED SEGMENT, IGNORED FOR OVERLAY PROCESS
    SEGMENT: ?PR?I2CREADDATAWITHACK2?NED

*** WARNING L16: UNCALLED SEGMENT, IGNORED FOR OVERLAY PROCESS
    SEGMENT: ?PR?_READI2C2?NED

*** WARNING L16: UNCALLED SEGMENT, IGNORED FOR OVERLAY PROCESS
    SEGMENT: ?PR?I2C_ACK?NED

*** WARNING L16: UNCALLED SEGMENT, IGNORED FOR OVERLAY PROCESS
    SEGMENT: ?PR?I2C_ACK2?NED

*** WARNING L16: UNCALLED SEGMENT, IGNORED FOR OVERLAY PROCESS
    SEGMENT: ?PR?_SET_CHANNEL?NED

*** WARNING L16: UNCALLED SEGMENT, IGNORED FOR OVERLAY PROCESS
BL51 BANKED LINKER/LOCATER V6.22                                                      11/30/2015  19:14:20  PAGE 127


    SEGMENT: ?PR?SEND_CAMERA_VER?NED

*** WARNING L16: UNCALLED SEGMENT, IGNORED FOR OVERLAY PROCESS
    SEGMENT: ?PR?_GET_CAMERA_IRD?NED

*** WARNING L16: UNCALLED SEGMENT, IGNORED FOR OVERLAY PROCESS
    SEGMENT: ?PR?GET_DVR_VER?NED

*** WARNING L16: UNCALLED SEGMENT, IGNORED FOR OVERLAY PROCESS
    SEGMENT: ?PR?SENT_DVR_VER?NED

*** WARNING L16: UNCALLED SEGMENT, IGNORED FOR OVERLAY PROCESS
    SEGMENT: ?PR?GET_DVR_YEAR?NED

*** WARNING L16: UNCALLED SEGMENT, IGNORED FOR OVERLAY PROCESS
    SEGMENT: ?PR?SENT_DVR_YEAR?NED

*** WARNING L16: UNCALLED SEGMENT, IGNORED FOR OVERLAY PROCESS
    SEGMENT: ?PR?GET_DVR_MD?NED

*** WARNING L16: UNCALLED SEGMENT, IGNORED FOR OVERLAY PROCESS
    SEGMENT: ?PR?SENT_DVR_MDR?NED

*** WARNING L16: UNCALLED SEGMENT, IGNORED FOR OVERLAY PROCESS
    SEGMENT: ?PR?GET_DVR_HS?NED

*** WARNING L16: UNCALLED SEGMENT, IGNORED FOR OVERLAY PROCESS
    SEGMENT: ?PR?SENT_DVR_HS?NED

*** WARNING L16: UNCALLED SEGMENT, IGNORED FOR OVERLAY PROCESS
    SEGMENT: ?PR?_COMMAND_CHECK?NED

*** WARNING L16: UNCALLED SEGMENT, IGNORED FOR OVERLAY PROCESS
    SEGMENT: ?PR?_CHECK_STARTUP?NED

*** WARNING L16: UNCALLED SEGMENT, IGNORED FOR OVERLAY PROCESS
    SEGMENT: ?PR?_GET_DATA?NED

*** WARNING L16: UNCALLED SEGMENT, IGNORED FOR OVERLAY PROCESS
    SEGMENT: ?PR?_PARITY?NED

*** WARNING L16: UNCALLED SEGMENT, IGNORED FOR OVERLAY PROCESS
    SEGMENT: ?PR?ADT75_INIT?NED

*** WARNING L16: UNCALLED SEGMENT, IGNORED FOR OVERLAY PROCESS
    SEGMENT: ?PR?_FIFOAVAILABLEDATA?NED

*** WARNING L16: UNCALLED SEGMENT, IGNORED FOR OVERLAY PROCESS
    SEGMENT: ?PR?_FIFOAVAILABLESPACE?NED

*** WARNING L16: UNCALLED SEGMENT, IGNORED FOR OVERLAY PROCESS
    SEGMENT: ?PR?_ENABLETRANSMIT?NED

*** WARNING L16: UNCALLED SEGMENT, IGNORED FOR OVERLAY PROCESS
    SEGMENT: ?PR?_FLUSH?NED

*** WARNING L16: UNCALLED SEGMENT, IGNORED FOR OVERLAY PROCESS
BL51 BANKED LINKER/LOCATER V6.22                                                      11/30/2015  19:14:20  PAGE 128


    SEGMENT: ?PR?_PING?NED

*** WARNING L16: UNCALLED SEGMENT, IGNORED FOR OVERLAY PROCESS
    SEGMENT: ?PR?_TW2835_GET?NED

*** WARNING L16: UNCALLED SEGMENT, IGNORED FOR OVERLAY PROCESS
    SEGMENT: ?PR?_PEEK?NED

*** WARNING L16: UNCALLED SEGMENT, IGNORED FOR OVERLAY PROCESS
    SEGMENT: ?PR?_SET_INT?NED

Program Size: data=98.5 xdata=1002 code=42711
LINK/LOCATE RUN COMPLETE.  58 WARNING(S),  0 ERROR(S)
