BL51 BANKED LINKER/LOCATER V6.22                                                        12/04/2018  11:32:30  PAGE 1


BL51 BANKED LINKER/LOCATER V6.22, INVOKED BY:
C:\KEIL\C51\BIN\BL51.EXE .\OBJ\STARTUP.obj, .\OBJ\UART.obj, .\OBJ\BusCtrl.obj, .\OBJ\CommandShell.obj, .\OBJ\Main.obj, .
>> \OBJ\OSD_Graph.obj, .\OBJ\OSDAction .obj, .\OBJ\OSDCtrl.obj, .\OBJ\Timer.obj, .\OBJ\TW28xx_Audio.obj, .\OBJ\TW28xx_Vi
>> deo.obj, .\OBJ\TW2835_Init.obj, .\OBJ\NED.obj TO .\OBJ\NED_5MCMOS_v0_a_8_XXXX_20180921 PRINT (.\OBJ\NED_5MCMOS_v0_a_8
>> _XXXX_20180921.m51) RAMSIZE (256)


MEMORY MODEL: LARGE WITH FLOATING POINT ARITHMETIC


INPUT MODULES INCLUDED:
  .\OBJ\STARTUP.obj (?C_STARTUP)
  .\OBJ\UART.obj (UART)
  .\OBJ\BusCtrl.obj (BUSCTRL)
  .\OBJ\CommandShell.obj (COMMANDSHELL)
  .\OBJ\Main.obj (MAIN)
  .\OBJ\OSD_Graph.obj (OSD_GRAPH)
  .\OBJ\OSDAction .obj (OSDACTION_)
  .\OBJ\OSDCtrl.obj (OSDCTRL)
  .\OBJ\Timer.obj (TIMER)
  .\OBJ\TW28xx_Audio.obj (TW28XX_AUDIO)
  .\OBJ\TW28xx_Video.obj (TW28XX_VIDEO)
  .\OBJ\TW2835_Init.obj (TW2835_INIT)
  .\OBJ\NED.obj (NED)
  C:\KEIL\C51\LIB\C51FPL.LIB (?C?FPADD)
  C:\KEIL\C51\LIB\C51FPL.LIB (?C?FPMUL)
  C:\KEIL\C51\LIB\C51FPL.LIB (?C?FPDIV)
  C:\KEIL\C51\LIB\C51FPL.LIB (?C?FCAST)
  C:\KEIL\C51\LIB\C51FPL.LIB (?C?CASTF)
  C:\KEIL\C51\LIB\C51FPL.LIB (SCANF)
  C:\KEIL\C51\LIB\C51FPL.LIB (?C?FPGETOPN)
  C:\KEIL\C51\LIB\C51FPL.LIB (?C?ATOF)
  C:\KEIL\C51\LIB\C51FPL.LIB (?C?FPNEG)
  C:\KEIL\C51\LIB\C51FPL.LIB (?C?FTNPWR)
  C:\KEIL\C51\LIB\C51L.LIB (?C_INIT)
  C:\KEIL\C51\LIB\C51L.LIB (?C?COPY)
  C:\KEIL\C51\LIB\C51L.LIB (?C?CLDPTR)
  C:\KEIL\C51\LIB\C51L.LIB (?C?CLDOPTR)
  C:\KEIL\C51\LIB\C51L.LIB (?C?CSTPTR)
  C:\KEIL\C51\LIB\C51L.LIB (?C?IMUL)
  C:\KEIL\C51\LIB\C51L.LIB (?C?UIDIV)
  C:\KEIL\C51\LIB\C51L.LIB (?C?IILDX)
  C:\KEIL\C51\LIB\C51L.LIB (?C?ILDIX)
  C:\KEIL\C51\LIB\C51L.LIB (?C?ILDPTR)
  C:\KEIL\C51\LIB\C51L.LIB (?C?IILDOPTR)
  C:\KEIL\C51\LIB\C51L.LIB (?C?ISTPTR)
  C:\KEIL\C51\LIB\C51L.LIB (?C?LMUL)
  C:\KEIL\C51\LIB\C51L.LIB (?C?ULDIV)
  C:\KEIL\C51\LIB\C51L.LIB (?C?SLDIV)
  C:\KEIL\C51\LIB\C51L.LIB (?C?LNEG)
  C:\KEIL\C51\LIB\C51L.LIB (?C?ULCMP)
  C:\KEIL\C51\LIB\C51L.LIB (?C?ULSHR)
  C:\KEIL\C51\LIB\C51L.LIB (?C?LSTPTR)
  C:\KEIL\C51\LIB\C51L.LIB (?C?LSTXDATA)
  C:\KEIL\C51\LIB\C51L.LIB (?C?LSTKXDATA)
  C:\KEIL\C51\LIB\C51L.LIB (?C?PLDXDATA)
  C:\KEIL\C51\LIB\C51L.LIB (?C?PLDIXDATA)
  C:\KEIL\C51\LIB\C51L.LIB (?C?PILDXDATA)
BL51 BANKED LINKER/LOCATER V6.22                                                      12/04/2018  11:32:30  PAGE 2


  C:\KEIL\C51\LIB\C51L.LIB (?C?PSTXDATA)
  C:\KEIL\C51\LIB\C51L.LIB (?C?PLDPTR)
  C:\KEIL\C51\LIB\C51L.LIB (?C?PSTPTR)
  C:\KEIL\C51\LIB\C51L.LIB (?C?CCASE)
  C:\KEIL\C51\LIB\C51L.LIB (GETCHAR)
  C:\KEIL\C51\LIB\C51L.LIB (UNGETC)
  C:\KEIL\C51\LIB\C51L.LIB (ISSPACE)
  C:\KEIL\C51\LIB\C51L.LIB (STRLEN)
  C:\KEIL\C51\LIB\C51L.LIB (?C?LSTIDATA)
  C:\KEIL\C51\LIB\C51L.LIB (?C?LSTPDATA)
  C:\KEIL\C51\LIB\C51L.LIB (?C?PLDIDATA)
  C:\KEIL\C51\LIB\C51L.LIB (?C?PSTIDATA)
  C:\KEIL\C51\LIB\C51L.LIB (?C?PLDPDATA)
  C:\KEIL\C51\LIB\C51L.LIB (?C?PSTPDATA)
  C:\KEIL\C51\LIB\C51L.LIB (?C?PLDCODE)
  C:\KEIL\C51\LIB\C51L.LIB (PUTCHAR)
  C:\KEIL\C51\LIB\C51L.LIB (_GETKEY)


LINK MAP OF MODULE:  .\OBJ\NED_5MCMOS_v0_a_8_XXXX_20180921 (?C_STARTUP)


            TYPE    BASE      LENGTH    RELOCATION   SEGMENT NAME
            -----------------------------------------------------

            * * * * * * *   D A T A   M E M O R Y   * * * * * * *
            REG     0000H     0008H     ABSOLUTE     "REG BANK 0"
            DATA    0008H     000FH     UNIT         _DATA_GROUP_
            DATA    0017H     0002H     UNIT         ?DT?OSDCTRL
                    0019H     0007H                  *** GAP ***
            DATA    0020H     0001H     BIT_ADDR     ?BA?MAIN
            DATA    0021H     0001H     BIT_ADDR     ?BA?OSDACTION_
            DATA    0022H     0001H     BIT_ADDR     ?BA?OSDCTRL
            BIT     0023H.0   0001H.3   UNIT         _BIT_GROUP_
            BIT     0024H.3   0000H.2   UNIT         ?BI?MAIN
            BIT     0024H.5   0000H.1   UNIT         ?BI?GETCHAR
                    0024H.6   0000H.2                *** GAP ***
            DATA    0025H     000CH     UNIT         ?DT?TIMER
            IDATA   0031H     0001H     UNIT         ?STACK

            * * * * * * *  X D A T A   M E M O R Y  * * * * * * *
            XDATA   0000H     020BH     UNIT         _XDATA_GROUP_
            XDATA   020BH     0082H     UNIT         ?XD?NED
            XDATA   028DH     0066H     UNIT         ?XD?UART
            XDATA   02F3H     0045H     UNIT         ?XD?MAIN
            XDATA   0338H     001DH     UNIT         ?XD?COMMANDSHELL
            XDATA   0355H     0001H     UNIT         ?XD?OSD_GRAPH
            XDATA   0356H     0001H     UNIT         ?XD?OSDACTION_
            XDATA   0357H     0001H     UNIT         ?XD?GETCHAR

            * * * * * * *   C O D E   M E M O R Y   * * * * * * *
            CODE    0000H     0003H     ABSOLUTE     
            CODE    0003H     0008H     UNIT         ?PR?_RS_TX?UART
            CODE    000BH     0003H     ABSOLUTE     
            CODE    000EH     0015H     UNIT         ?PR?_RESETDEVICE?NED
            CODE    0023H     0003H     ABSOLUTE     
            CODE    0026H     0003H     UNIT         ?PR?_PCT_PRESETFOREGROUNDCOLOR?OSDCTRL
BL51 BANKED LINKER/LOCATER V6.22                                                      12/04/2018  11:32:30  PAGE 3


            CODE    0029H     0001H     UNIT         ?PR?PTC_SWITCHTOI2CMODE?BUSCTRL
            CODE    002AH     0001H     UNIT         ?PR?PCT_SENDACK?COMMANDSHELL
            CODE    002BH     0003H     ABSOLUTE     
            CODE    002EH     16CAH     UNIT         ?CO?OSD_GRAPH
            CODE    16F8H     0EA0H     UNIT         ?CO?OSDCTRL
            CODE    2598H     0919H     UNIT         ?C?LIB_CODE
            CODE    2EB1H     0485H     UNIT         ?PR?_PCT_SHOWMIRRORICON?OSDACTION_
            CODE    3336H     0459H     UNIT         ?CO?TW28XX_VIDEO
            CODE    378FH     0400H     UNIT         ?CO?TW2835_INIT
            CODE    3B8FH     036EH     UNIT         ?PR?_PCT_OSD_ACTIONPTHX?OSDACTION_
            CODE    3EFDH     035AH     UNIT         ?PR?SCANF?SCANF
            CODE    4257H     033DH     UNIT         ?PR?_MONITOR_SET?MAIN
            CODE    4594H     02F8H     UNIT         ?PR?_PCT_SETVIDEOHDELAY?TW28XX_VIDEO
            CODE    488CH     01EDH     UNIT         ?PR?_SC16_SENDDATASELECT?NED
            CODE    4A79H     01E4H     UNIT         ?PR?_SC16_BCC_CHECK?NED
            CODE    4C5DH     01D3H     UNIT         ?CO?MAIN
            CODE    4E30H     01A3H     UNIT         ?PR?_PCT_SETXVIDEOMIXING?TW28XX_VIDEO
            CODE    4FD3H     01A2H     UNIT         ?PR?_PCT_OSD16X16GRAPHX?OSD_GRAPH
            CODE    5175H     018BH     UNIT         ?PR?MAIN?MAIN
            CODE    5300H     0163H     UNIT         ?C_INITSEG
            CODE    5463H     0160H     UNIT         ?PR?_PCT_SHOWINDICATEICON?OSDACTION_
            CODE    55C3H     0156H     UNIT         ?PR?_MONIHSCOMM?COMMANDSHELL
            CODE    5719H     0141H     UNIT         ?PR?_PCT_RECOMPENSEYHDELAY?TW28XX_VIDEO
            CODE    585AH     013AH     UNIT         ?PR?PCT_INITOSDCOLOR?OSDCTRL
            CODE    5994H     0108H     UNIT         ?PR?TW28XX_VIDEO
            CODE    5A9CH     00FBH     UNIT         ?PR?CAMERA_MOVE?NED
            CODE    5B97H     00F6H     UNIT         ?PR?_PCT_RUNCOMMSHELL?COMMANDSHELL
            CODE    5C8DH     00ECH     UNIT         ?PR?PRESS_CHECK?MAIN
            CODE    5D79H     00E6H     UNIT         ?PR??C?ATOF??C?ATOF
            CODE    5E5FH     00DDH     UNIT         ?PR?TIMER2_INTERRUPT?TIMER
            CODE    5F3CH     00DAH     UNIT         ?PR?_PCT_CLEARWORDSPATHX?OSDCTRL
            CODE    6016H     00D7H     UNIT         ?PR?COMMANDSHELL?MAIN
            CODE    60EDH     00D1H     UNIT         ?PR?_PCT_FULLCOLORONOSD?OSDCTRL
            CODE    61BEH     00CFH     UNIT         ?PR?NED
            CODE    628DH     00CEH     UNIT         ?PR?_SET_PWM_OUTPUT?MAIN
            CODE    635BH     00C3H     UNIT         ?PR?MAIN
            CODE    641EH     00C1H     UNIT         ?PR?CHECK_OTHER_COM?NED
            CODE    64DFH     00B8H     UNIT         ?PR?_SETBAUDRATE?NED
            CODE    6597H     00B0H     UNIT         ?PR?_SC16_COMCHECK?NED
            CODE    6647H     0099H     UNIT         ?PR?_PCT_SETCHANELSCALE?TW28XX_VIDEO
            CODE    66E0H     008CH     UNIT         ?C_C51STARTUP
            CODE    676CH     008CH     UNIT         ?PR?_PCT_READASICBYTE?BUSCTRL
            CODE    67F8H     0086H     UNIT         ?PR?COMMANDSHELL
            CODE    687EH     0081H     UNIT         ?PR?_PCT_WRITEASICTABLE?BUSCTRL
            CODE    68FFH     0080H     UNIT         ?PR?SC16_INIT?NED
            CODE    697FH     0079H     UNIT         ?PR?_I2CWRITEDATA?NED
            CODE    69F8H     0073H     UNIT         ?PR?_BOUND_SET?NED
            CODE    6A6BH     006DH     UNIT         ?PR?OSDACTION_
            CODE    6AD8H     0069H     UNIT         ?PR?PCT_CHECKSYSTEM?COMMANDSHELL
            CODE    6B41H     0067H     UNIT         ?PR?OSDCTRL
            CODE    6BA8H     0067H     UNIT         ?PR?PCT_TW2835_INITIAL?TW2835_INIT
            CODE    6C0FH     0064H     UNIT         ?PR?_PCT_WRITEASICBYTE?BUSCTRL
            CODE    6C73H     0064H     UNIT         ?PR?_PCT_CHANGESYSTEMTYPE?TW2835_INIT
            CODE    6CD7H     0064H     UNIT         ?PR?_SETLINE?NED
            CODE    6D3BH     0063H     UNIT         ?PR?GPIO_CHECK?NED
            CODE    6D9EH     0061H     UNIT         ?CO?COMMANDSHELL
            CODE    6DFFH     0061H     UNIT         ?PR?CAMERA_VERSION_CHECK?MAIN
BL51 BANKED LINKER/LOCATER V6.22                                                      12/04/2018  11:32:30  PAGE 4


            CODE    6E60H     0061H     UNIT         ?PR?_PCT_SHOWGRAPHSTRING?OSD_GRAPH
            CODE    6EC1H     005EH     UNIT         ?PR?_PCT_GETFIRSTSTR?COMMANDSHELL
            CODE    6F1FH     005AH     UNIT         ?PR?TEMP_CHECK?MAIN
            CODE    6F79H     0059H     UNIT         ?PR?_PCT_SETOSDCOLOR?OSDCTRL
            CODE    6FD2H     0055H     UNIT         ?PR?VERSION_CHECK?MAIN
            CODE    7027H     0052H     UNIT         ?PR?_PCT_WRITESTABLE?BUSCTRL
            CODE    7079H     0050H     UNIT         ?PR?_WAIT_MS?MAIN
            CODE    70C9H     004DH     UNIT         ?PR?_MONIWRITEASICBYTE?COMMANDSHELL
            CODE    7116H     004CH     UNIT         ?PR?PCT_INITIALOSD?OSDACTION_
            CODE    7162H     004BH     UNIT         ?PR?_PCT_DETECTVIDEOFORMAT?TW28XX_VIDEO
            CODE    71ADH     004BH     UNIT         ?PR?SENT_CAMERA_ANG?NED
            CODE    71F8H     004BH     UNIT         ?PR?SENT_CAMERA_RANG?NED
            CODE    7243H     004AH     UNIT         ?PR?INITIALMPU?MAIN
            CODE    728DH     004AH     UNIT         ?PR?SEND_CAMERA_PRESS?NED
            CODE    72D7H     004AH     UNIT         ?PR?_SET_CAMERA_SPEED?NED
            CODE    7321H     0048H     UNIT         ?PR?_PCT_CHECKVMIXTYPE?COMMANDSHELL
            CODE    7369H     0048H     UNIT         ?PR?_SET_VIDEO?NED
            CODE    73B1H     0047H     UNIT         ?PR?PCT_GETVIDEOSIGNALSTATUS?OSDACTION_
            CODE    73F8H     0046H     UNIT         ?PR?PCT_SHOWMODEICON?OSDACTION_
            CODE    743EH     0044H     UNIT         ?C?LDIV
            CODE    7482H     0043H     UNIT         ?PR?PCT_INITIALTW2835?TW2835_INIT
            CODE    74C5H     0040H     UNIT         ?PR?_PCT_WINATTRCTRLY?TW28XX_VIDEO
            CODE    7505H     0040H     UNIT         ?PR?_READI2CWORD?NED
            CODE    7545H     003FH     UNIT         ?PR?SENT_DVR_TEMP?NED
            CODE    7584H     003DH     UNIT         ?PR?_PCT_STRTOCOMMCODE?COMMANDSHELL
            CODE    75C1H     003CH     UNIT         ?PR?BUSCTRL
            CODE    75FDH     003BH     UNIT         ?PR?_SC16_DATA_RESET?NED
            CODE    7638H     003AH     UNIT         ?PR?_PCT_WINATTRCTRL?TW28XX_VIDEO
            CODE    7672H     0038H     UNIT         ?PR?OSD_GRAPH
            CODE    76AAH     0036H     UNIT         ?PR?_PCT_ENSHOWOSDPAGE?OSDCTRL
            CODE    76E0H     0036H     UNIT         ?PR?SEND_CAMERA_TEMP?NED
            CODE    7716H     0034H     UNIT         ?PR?_PCT_DISSHOWOSDPAGE?OSDCTRL
            CODE    774AH     0032H     UNIT         ?PR?REPEAT_PWM_COM?NED
            CODE    777CH     0032H     UNIT         ?PR?SC16_DATACHECK?NED
            CODE    77AEH     002DH     UNIT         ?PR?RS_INTERRUPT?UART
            CODE    77DBH     002DH     UNIT         ?PR?_PWM_SET?MAIN
            CODE    7808H     002CH     UNIT         ?PR?GET_CAMERA_VER?NED
            CODE    7834H     002CH     UNIT         ?PR?GET_CAMERA_ANG?NED
            CODE    7860H     002CH     UNIT         ?PR?GET_CAMERA_RANG?NED
            CODE    788CH     002CH     UNIT         ?PR?GET_DVR_TEMP?NED
            CODE    78B8H     002AH     UNIT         ?PR?_BCC_CAL?NED
            CODE    78E2H     0029H     UNIT         ?PR?I2CREADDATAWITHACK?NED
            CODE    790BH     0027H     UNIT         ?PR?PUTCHAR?PUTCHAR
            CODE    7932H     0026H     UNIT         ?PR?RESETCOMMSELL?MAIN
            CODE    7958H     0026H     UNIT         ?PR?PCT_OSDACTIONFORHS?OSDACTION_
            CODE    797EH     0023H     UNIT         ?PR?I2CREADDATA?NED
            CODE    79A1H     0021H     UNIT         ?PR?_SC16_SENDDATA?NED
            CODE    79C2H     0020H     UNIT         ?CO?OSDACTION_
            CODE    79E2H     0020H     UNIT         ?PR?_ADC_READ?NED
            CODE    7A02H     001FH     UNIT         ?PR?_PCT_SETOSDDRAWPAGE?OSDCTRL
            CODE    7A21H     001DH     UNIT         ?PR?INITIALTIMER2?TIMER
            CODE    7A3EH     001AH     UNIT         ?PR?_MONIYVIDEOMIX?COMMANDSHELL
            CODE    7A58H     001AH     UNIT         ?PR?_PCT_CLEAROSDPAGEX?OSDCTRL
            CODE    7A72H     0019H     UNIT         ?PR?RS_RX?UART
            CODE    7A8BH     0019H     UNIT         ?PR?TW2835_INIT
            CODE    7AA4H     0016H     UNIT         ?PR?INITIALUART?UART
            CODE    7ABAH     0016H     UNIT         ?PR?_MONIHSCOMMSJMODE?COMMANDSHELL
BL51 BANKED LINKER/LOCATER V6.22                                                      12/04/2018  11:32:30  PAGE 5


            CODE    7AD0H     0015H     UNIT         ?PR?_STRLEN?STRLEN
            CODE    7AE5H     0014H     UNIT         ?PR?_PCT_SETYVIDEOMIXING?TW28XX_VIDEO
            CODE    7AF9H     0014H     UNIT         ?PR?GETCHAR?GETCHAR
            CODE    7B0DH     0014H     UNIT         ?PR?_ISSPACE?ISSPACE
            CODE    7B21H     0013H     UNIT         ?PR?PCT_TW2835RESETN?TW2835_INIT
            CODE    7B34H     0012H     UNIT         ?PR?I2CSTART?NED
            CODE    7B46H     0012H     UNIT         ?PR?_WRITEI2C?NED
            CODE    7B58H     0010H     UNIT         ?PR?RS_RXREADY?UART
            CODE    7B68H     0010H     UNIT         ?PR?_POWER_ONOFF?NED
            CODE    7B78H     000FH     UNIT         ?PR?PWM_INIT?MAIN
            CODE    7B87H     000FH     UNIT         ?PR?_READI2C?NED
            CODE    7B96H     000FH     UNIT         ?PR?_SENT_CAMERA_IRD?NED
            CODE    7BA5H     000FH     UNIT         ?CO?NED
            CODE    7BB4H     000DH     UNIT         ?PR?TIMER0_INTERRUPT?TIMER
            CODE    7BC1H     000DH     UNIT         ?PR?I2CSTOP?NED
            CODE    7BCEH     000CH     UNIT         ?PR?INITIALCOMMSHELL?MAIN
            CODE    7BDAH     000BH     UNIT         ?PR?UART
            CODE    7BE5H     000AH     UNIT         ?PR?_GETKEY?_GETKEY
            CODE    7BEFH     0009H     UNIT         ?PR?_PCT_FLASHOSDCTRL?MAIN
            CODE    7BF8H     0009H     UNIT         ?PR?INITIALTIMER0?TIMER
            CODE    7C01H     0009H     UNIT         ?PR?_GPIOSETPORTMODE?NED
            CODE    7C0AH     0009H     UNIT         ?PR?_GPIOSETPORTSTATE?NED
            CODE    7C13H     0009H     UNIT         ?PR?_WRITEBYTE?NED
            CODE    7C1CH     0009H     UNIT         ?PR?MCTRL_SET?NED
            CODE    7C25H     0008H     UNIT         ?PR?PCT_ENFALSHVLOSS?OSDACTION_
            CODE    7C2DH     0008H     UNIT         ?PR?GETCHAR?UNGETCHAR
            CODE    7C35H     0006H     UNIT         ?PR?PCT_CLEARGRAPHATTR?OSD_GRAPH
            CODE    7C3BH     0006H     UNIT         ?PR?_PCT_PRESETGRAPHATTR?OSD_GRAPH
            CODE    7C41H     0006H     UNIT         ?PR?_GPIOGETPORTSTATE?NED
            CODE    7C47H     0006H     UNIT         ?PR?_READBYTE?NED
            CODE    7C4DH     0003H     UNIT         ?PR?_PCT_PRESETBACKGROUNDCOLOR?OSDCTRL
            CODE    7C50H     0001H     UNIT         ?PR?I2CDELAY?NED



OVERLAY MAP OF MODULE:   .\OBJ\NED_5MCMOS_v0_a_8_XXXX_20180921 (?C_STARTUP)


SEGMENT                                            BIT_GROUP          DATA_GROUP          XDATA_GROUP
  +--> CALLED SEGMENT                           START    LENGTH     START    LENGTH     START    LENGTH
-------------------------------------------------------------------------------------------------------
?C_C51STARTUP                                   -----    -----      -----    -----      -----    -----
  +--> ?PR?MAIN?MAIN
  +--> ?C_INITSEG

?PR?MAIN?MAIN                                   -----    -----      -----    -----      0000H    0006H
  +--> ?PR?MAIN
  +--> ?PR?INITIALMPU?MAIN
  +--> ?PR?PWM_INIT?MAIN
  +--> ?PR?INITIALCOMMSHELL?MAIN
  +--> ?PR?RESETCOMMSELL?MAIN
  +--> ?PR?_POWER_ONOFF?NED
  +--> ?PR?SC16_INIT?NED
  +--> ?PR?_MONITOR_SET?MAIN
  +--> ?PR?GPIO_CHECK?NED
  +--> ?PR?_GPIOGETPORTSTATE?NED
  +--> ?PR?COMMANDSHELL?MAIN
BL51 BANKED LINKER/LOCATER V6.22                                                      12/04/2018  11:32:30  PAGE 6


  +--> ?PR?_PCT_RUNCOMMSHELL?COMMANDSHELL
  +--> ?PR?PCT_CHECKSYSTEM?COMMANDSHELL
  +--> ?PR?RS_RXREADY?UART
  +--> ?PR?PCT_GETVIDEOSIGNALSTATUS?OSDACTION_
  +--> ?PR?CAMERA_MOVE?NED
  +--> ?PR?_SC16_DATA_RESET?NED
  +--> ?PR?SC16_DATACHECK?NED
  +--> ?PR?_SET_CAMERA_SPEED?NED

?PR?INITIALMPU?MAIN                             -----    -----      -----    -----      -----    -----
  +--> ?PR?INITIALUART?UART
  +--> ?PR?INITIALTIMER0?TIMER
  +--> ?PR?INITIALTIMER2?TIMER

?PR?RESETCOMMSELL?MAIN                          -----    -----      -----    -----      -----    -----
  +--> ?PR?MAIN

?PR?_POWER_ONOFF?NED                            -----    -----      -----    -----      -----    -----
  +--> ?PR?_WAIT_MS?MAIN

?PR?_WAIT_MS?MAIN                               -----    -----      -----    -----      01D5H    0004H

?PR?SC16_INIT?NED                               -----    -----      -----    -----      0006H    0001H
  +--> ?PR?_WAIT_MS?MAIN
  +--> ?PR?NED
  +--> ?PR?_RESETDEVICE?NED
  +--> ?PR?_SETBAUDRATE?NED
  +--> ?PR?_SETLINE?NED
  +--> ?PR?_WRITEI2C?NED
  +--> ?PR?_GPIOSETPORTMODE?NED
  +--> ?PR?_GPIOSETPORTSTATE?NED

?PR?NED                                         -----    -----      -----    -----      -----    -----
  +--> ?PR?I2CDELAY?NED
  +--> ?PR?I2CSTART?NED
  +--> ?PR?_I2CWRITEDATA?NED

?PR?I2CSTART?NED                                -----    -----      -----    -----      -----    -----
  +--> ?PR?I2CDELAY?NED

?PR?_I2CWRITEDATA?NED                           -----    -----      -----    -----      -----    -----
  +--> ?PR?I2CSTART?NED
  +--> ?PR?I2CDELAY?NED

?PR?_RESETDEVICE?NED                            -----    -----      -----    -----      -----    -----
  +--> ?PR?_READI2C?NED
  +--> ?PR?_WRITEI2C?NED

?PR?_READI2C?NED                                -----    -----      -----    -----      -----    -----
  +--> ?PR?_I2CWRITEDATA?NED
  +--> ?PR?NED
  +--> ?PR?I2CREADDATA?NED
  +--> ?PR?I2CSTOP?NED

?PR?I2CREADDATA?NED                             -----    -----      -----    -----      -----    -----
  +--> ?PR?NED
  +--> ?PR?I2CDELAY?NED
BL51 BANKED LINKER/LOCATER V6.22                                                      12/04/2018  11:32:30  PAGE 7



?PR?I2CSTOP?NED                                 -----    -----      -----    -----      -----    -----
  +--> ?PR?I2CDELAY?NED

?PR?_WRITEI2C?NED                               -----    -----      -----    -----      -----    -----
  +--> ?PR?_I2CWRITEDATA?NED
  +--> ?PR?I2CSTOP?NED

?PR?_SETBAUDRATE?NED                            -----    -----      -----    -----      0007H    000AH
  +--> ?PR?_READI2C?NED
  +--> ?PR?_WRITEI2C?NED

?PR?_SETLINE?NED                                -----    -----      -----    -----      0007H    0004H
  +--> ?PR?_READI2C?NED
  +--> ?PR?_WRITEI2C?NED

?PR?_GPIOSETPORTMODE?NED                        -----    -----      -----    -----      -----    -----
  +--> ?PR?_WRITEI2C?NED

?PR?_GPIOSETPORTSTATE?NED                       -----    -----      -----    -----      -----    -----
  +--> ?PR?_WRITEI2C?NED

?PR?_MONITOR_SET?MAIN                           -----    -----      -----    -----      0006H    01CFH
  +--> ?CO?MAIN
  +--> ?PR?MAIN
  +--> ?PR?PCT_INITIALTW2835?TW2835_INIT
  +--> ?PR?_PCT_WRITEASICBYTE?BUSCTRL
  +--> ?PR?_PCT_RUNCOMMSHELL?COMMANDSHELL
  +--> ?PR?_BOUND_SET?NED

?PR?PCT_INITIALTW2835?TW2835_INIT               -----    -----      -----    -----      -----    -----
  +--> ?PR?PCT_TW2835RESETN?TW2835_INIT
  +--> ?PR?_PCT_READASICBYTE?BUSCTRL
  +--> ?PR?_PCT_DETECTVIDEOFORMAT?TW28XX_VIDEO
  +--> ?PR?_WAIT_MS?MAIN
  +--> ?PR?PCT_TW2835_INITIAL?TW2835_INIT
  +--> ?PR?PCT_INITIALOSD?OSDACTION_

?PR?_PCT_READASICBYTE?BUSCTRL                   -----    -----      -----    -----      01F2H    0004H
  +--> ?PR?MCTRL_SET?NED
  +--> ?PR?BUSCTRL

?PR?_PCT_DETECTVIDEOFORMAT?TW28XX_VIDEO         -----    -----      -----    -----      01D5H    0002H
  +--> ?PR?_PCT_READASICBYTE?BUSCTRL

?PR?PCT_TW2835_INITIAL?TW2835_INIT              -----    -----      -----    -----      01D5H    0002H
  +--> ?PR?TW2835_INIT
  +--> ?CO?TW2835_INIT
  +--> ?PR?_PCT_WRITEASICTABLE?BUSCTRL

?PR?TW2835_INIT                                 -----    -----      -----    -----      -----    -----
  +--> ?CO?TW2835_INIT

?PR?_PCT_WRITEASICTABLE?BUSCTRL                 -----    -----      -----    -----      01D7H    0007H
  +--> ?PR?BUSCTRL
  +--> ?PR?MCTRL_SET?NED

BL51 BANKED LINKER/LOCATER V6.22                                                      12/04/2018  11:32:30  PAGE 8


?PR?PCT_INITIALOSD?OSDACTION_                   -----    -----      0008H    0001H      -----    -----
  +--> ?PR?PCT_INITOSDCOLOR?OSDCTRL
  +--> ?PR?PCT_CLEARGRAPHATTR?OSD_GRAPH
  +--> ?PR?_PCT_PRESETFOREGROUNDCOLOR?OSDCTRL
  +--> ?PR?_PCT_PRESETBACKGROUNDCOLOR?OSDCTRL
  +--> ?PR?_PCT_ENSHOWOSDPAGE?OSDCTRL
  +--> ?PR?_PCT_SETOSDDRAWPAGE?OSDCTRL
  +--> ?PR?_PCT_FULLCOLORONOSD?OSDCTRL

?PR?PCT_INITOSDCOLOR?OSDCTRL                    -----    -----      -----    -----      -----    -----
  +--> ?PR?_PCT_WRITEASICBYTE?BUSCTRL
  +--> ?PR?OSDCTRL
  +--> ?PR?_PCT_SETOSDCOLOR?OSDCTRL

?PR?_PCT_WRITEASICBYTE?BUSCTRL                  -----    -----      -----    -----      01F2H    0004H
  +--> ?PR?BUSCTRL
  +--> ?PR?MCTRL_SET?NED

?PR?_PCT_SETOSDCOLOR?OSDCTRL                    -----    -----      -----    -----      01D5H    0005H
  +--> ?PR?_PCT_WRITEASICBYTE?BUSCTRL

?PR?_PCT_ENSHOWOSDPAGE?OSDCTRL                  -----    -----      -----    -----      01DDH    0001H
  +--> ?PR?OSDCTRL
  +--> ?PR?_PCT_WRITEASICBYTE?BUSCTRL
  +--> ?PR?_PCT_READASICBYTE?BUSCTRL

?PR?_PCT_SETOSDDRAWPAGE?OSDCTRL                 -----    -----      -----    -----      01DDH    0001H
  +--> ?PR?OSDCTRL
  +--> ?PR?_PCT_READASICBYTE?BUSCTRL
  +--> ?PR?_PCT_WRITEASICBYTE?BUSCTRL

?PR?_PCT_FULLCOLORONOSD?OSDCTRL                 -----    -----      -----    -----      01DDH    0006H
  +--> ?PR?OSDCTRL
  +--> ?PR?_PCT_WRITEASICBYTE?BUSCTRL
  +--> ?PR?_PCT_READASICBYTE?BUSCTRL

?PR?_PCT_RUNCOMMSHELL?COMMANDSHELL              -----    -----      -----    -----      01D5H    0008H
  +--> ?PR?COMMANDSHELL
  +--> ?PR?_PCT_GETFIRSTSTR?COMMANDSHELL
  +--> ?PR?_PCT_STRTOCOMMCODE?COMMANDSHELL
  +--> ?CO?COMMANDSHELL
  +--> ?PR?_MONIWRITEASICBYTE?COMMANDSHELL
  +--> ?PR?_MONIYVIDEOMIX?COMMANDSHELL
  +--> ?PR?_MONIHSCOMM?COMMANDSHELL
  +--> ?PR?PCT_OSDACTIONFORHS?OSDACTION_
  +--> ?PR?_PCT_FLASHOSDCTRL?MAIN
  +--> ?PR?_MONIHSCOMMSJMODE?COMMANDSHELL
  +--> ?PR?REPEAT_PWM_COM?NED
  +--> ?PR?_PWM_SET?MAIN

?PR?COMMANDSHELL                                -----    -----      -----    -----      -----    -----
  +--> ?PR?PCT_SENDACK?COMMANDSHELL

?PR?_PCT_GETFIRSTSTR?COMMANDSHELL               -----    -----      -----    -----      01DDH    0006H
  +--> ?PR?COMMANDSHELL

?PR?_PCT_STRTOCOMMCODE?COMMANDSHELL             -----    -----      0008H    0002H      01DDH    0003H
BL51 BANKED LINKER/LOCATER V6.22                                                      12/04/2018  11:32:30  PAGE 9


  +--> ?PR?COMMANDSHELL

?PR?_MONIWRITEASICBYTE?COMMANDSHELL             -----    -----      0008H    0004H      -----    -----
  +--> ?PR?COMMANDSHELL
  +--> ?CO?COMMANDSHELL
  +--> ?PR?SCANF?SCANF
  +--> ?PR?_PCT_WRITEASICBYTE?BUSCTRL

?PR?SCANF?SCANF                                 0023H.0  0000H.6    000CH    0009H      01DDH    002EH
  +--> ?PR?GETCHAR?UNGETCHAR
  +--> ?PR?_ISSPACE?ISSPACE
  +--> ?PR?GETCHAR?GETCHAR
  +--> ?PR??C?ATOF??C?ATOF

?PR?GETCHAR?GETCHAR                             -----    -----      -----    -----      -----    -----
  +--> ?PR?_GETKEY?_GETKEY
  +--> ?PR?PUTCHAR?PUTCHAR

?PR??C?ATOF??C?ATOF                             0023H.6  0000H.5    0015H    0002H      -----    -----

?PR?_MONIYVIDEOMIX?COMMANDSHELL                 -----    -----      0008H    0001H      -----    -----
  +--> ?PR?COMMANDSHELL
  +--> ?CO?COMMANDSHELL
  +--> ?PR?SCANF?SCANF
  +--> ?PR?_PCT_SETYVIDEOMIXING?TW28XX_VIDEO

?PR?_PCT_SETYVIDEOMIXING?TW28XX_VIDEO           -----    -----      -----    -----      -----    -----
  +--> ?CO?TW28XX_VIDEO
  +--> ?PR?_PCT_WRITESTABLE?BUSCTRL

?PR?_PCT_WRITESTABLE?BUSCTRL                    -----    -----      -----    -----      01E4H    0003H
  +--> ?PR?BUSCTRL
  +--> ?PR?_PCT_READASICBYTE?BUSCTRL
  +--> ?PR?_PCT_WRITEASICBYTE?BUSCTRL

?PR?_MONIHSCOMM?COMMANDSHELL                    -----    -----      0008H    0003H      -----    -----
  +--> ?PR?COMMANDSHELL
  +--> ?CO?COMMANDSHELL
  +--> ?PR?SCANF?SCANF
  +--> ?PR?_PCT_WINATTRCTRLY?TW28XX_VIDEO
  +--> ?PR?_PCT_RECOMPENSEYHDELAY?TW28XX_VIDEO
  +--> ?PR?_PCT_SETVIDEOHDELAY?TW28XX_VIDEO
  +--> ?PR?_PCT_SETXVIDEOMIXING?TW28XX_VIDEO
  +--> ?PR?_PCT_WINATTRCTRL?TW28XX_VIDEO
  +--> ?PR?_PCT_FLASHOSDCTRL?MAIN
  +--> ?PR?_PCT_CHECKVMIXTYPE?COMMANDSHELL
  +--> ?PR?_PCT_DISSHOWOSDPAGE?OSDCTRL
  +--> ?PR?_PCT_CLEAROSDPAGEX?OSDCTRL
  +--> ?PR?PCT_SHOWMODEICON?OSDACTION_
  +--> ?PR?_PCT_OSD_ACTIONPTHX?OSDACTION_

?PR?_PCT_WINATTRCTRLY?TW28XX_VIDEO              -----    -----      -----    -----      01DDH    0003H
  +--> ?PR?TW28XX_VIDEO
  +--> ?PR?_PCT_READASICBYTE?BUSCTRL
  +--> ?PR?_PCT_WRITEASICBYTE?BUSCTRL

?PR?TW28XX_VIDEO                                -----    -----      -----    -----      -----    -----
BL51 BANKED LINKER/LOCATER V6.22                                                      12/04/2018  11:32:30  PAGE 10


  +--> ?CO?TW28XX_VIDEO

?PR?_PCT_RECOMPENSEYHDELAY?TW28XX_VIDEO         -----    -----      -----    -----      01DDH    0003H
  +--> ?PR?TW28XX_VIDEO
  +--> ?PR?_PCT_READASICBYTE?BUSCTRL
  +--> ?CO?TW28XX_VIDEO
  +--> ?PR?_PCT_WRITEASICBYTE?BUSCTRL

?PR?_PCT_SETVIDEOHDELAY?TW28XX_VIDEO            -----    -----      -----    -----      01DDH    0008H
  +--> ?PR?TW28XX_VIDEO
  +--> ?PR?_PCT_READASICBYTE?BUSCTRL
  +--> ?PR?_PCT_WRITEASICBYTE?BUSCTRL
  +--> ?CO?TW28XX_VIDEO

?PR?_PCT_SETXVIDEOMIXING?TW28XX_VIDEO           -----    -----      -----    -----      01DDH    0007H
  +--> ?PR?TW28XX_VIDEO
  +--> ?PR?_PCT_WRITEASICBYTE?BUSCTRL
  +--> ?CO?TW28XX_VIDEO
  +--> ?PR?_PCT_SETCHANELSCALE?TW28XX_VIDEO
  +--> ?PR?_PCT_WRITESTABLE?BUSCTRL

?PR?_PCT_SETCHANELSCALE?TW28XX_VIDEO            -----    -----      -----    -----      01E4H    0008H
  +--> ?PR?TW28XX_VIDEO
  +--> ?CO?TW28XX_VIDEO
  +--> ?PR?_PCT_WRITEASICBYTE?BUSCTRL

?PR?_PCT_WINATTRCTRL?TW28XX_VIDEO               -----    -----      -----    -----      01DDH    0003H
  +--> ?PR?TW28XX_VIDEO
  +--> ?PR?_PCT_READASICBYTE?BUSCTRL
  +--> ?PR?_PCT_WRITEASICBYTE?BUSCTRL

?PR?_PCT_CHECKVMIXTYPE?COMMANDSHELL             -----    -----      000BH    0001H      -----    -----
  +--> ?PR?COMMANDSHELL

?PR?_PCT_DISSHOWOSDPAGE?OSDCTRL                 -----    -----      -----    -----      01DDH    0003H
  +--> ?PR?OSDCTRL
  +--> ?PR?_PCT_READASICBYTE?BUSCTRL
  +--> ?PR?_PCT_WRITEASICBYTE?BUSCTRL

?PR?_PCT_CLEAROSDPAGEX?OSDCTRL                  -----    -----      -----    -----      -----    -----
  +--> ?PR?_PCT_SETOSDDRAWPAGE?OSDCTRL
  +--> ?PR?_PCT_PRESETBACKGROUNDCOLOR?OSDCTRL
  +--> ?PR?_PCT_FULLCOLORONOSD?OSDCTRL

?PR?PCT_SHOWMODEICON?OSDACTION_                 -----    -----      -----    -----      -----    -----
  +--> ?PR?_PCT_SETOSDDRAWPAGE?OSDCTRL
  +--> ?CO?OSDACTION_
  +--> ?PR?_PCT_SHOWGRAPHSTRING?OSD_GRAPH
  +--> ?PR?_PCT_PRESETBACKGROUNDCOLOR?OSDCTRL
  +--> ?PR?_PCT_PRESETFOREGROUNDCOLOR?OSDCTRL

?PR?_PCT_SHOWGRAPHSTRING?OSD_GRAPH              -----    -----      -----    -----      01E0H    0007H
  +--> ?PR?OSD_GRAPH
  +--> ?PR?_STRLEN?STRLEN
  +--> ?PR?_PCT_OSD16X16GRAPHX?OSD_GRAPH
  +--> ?PR?PTC_SWITCHTOI2CMODE?BUSCTRL

BL51 BANKED LINKER/LOCATER V6.22                                                      12/04/2018  11:32:30  PAGE 11


?PR?_PCT_OSD16X16GRAPHX?OSD_GRAPH               -----    -----      -----    -----      01E7H    000BH
  +--> ?CO?OSD_GRAPH
  +--> ?PR?OSD_GRAPH
  +--> ?PR?_PCT_WRITEASICBYTE?BUSCTRL
  +--> ?PR?_PCT_READASICBYTE?BUSCTRL

?PR?_PCT_OSD_ACTIONPTHX?OSDACTION_              -----    -----      -----    -----      01DDH    0003H
  +--> ?PR?OSDACTION_
  +--> ?PR?_PCT_PRESETFOREGROUNDCOLOR?OSDCTRL
  +--> ?PR?_PCT_PRESETBACKGROUNDCOLOR?OSDCTRL
  +--> ?PR?_PCT_SHOWGRAPHSTRING?OSD_GRAPH

?PR?OSDACTION_                                  -----    -----      -----    -----      -----    -----
  +--> ?CO?OSDACTION_

?PR?PCT_OSDACTIONFORHS?OSDACTION_               -----    -----      -----    -----      -----    -----
  +--> ?PR?_PCT_SETOSDDRAWPAGE?OSDCTRL
  +--> ?PR?_PCT_SHOWMIRRORICON?OSDACTION_
  +--> ?PR?_PCT_SHOWINDICATEICON?OSDACTION_
  +--> ?PR?PCT_ENFALSHVLOSS?OSDACTION_
  +--> ?PR?_PCT_ENSHOWOSDPAGE?OSDCTRL

?PR?_PCT_SHOWMIRRORICON?OSDACTION_              -----    -----      -----    -----      01DDH    0003H
  +--> ?PR?OSDACTION_
  +--> ?PR?_PCT_PRESETFOREGROUNDCOLOR?OSDCTRL
  +--> ?PR?_PCT_CLEARWORDSPATHX?OSDCTRL
  +--> ?PR?_PCT_SHOWGRAPHSTRING?OSD_GRAPH

?PR?_PCT_CLEARWORDSPATHX?OSDCTRL                -----    -----      -----    -----      01E0H    0007H
  +--> ?PR?OSDCTRL
  +--> ?PR?_PCT_WRITEASICBYTE?BUSCTRL
  +--> ?PR?_PCT_READASICBYTE?BUSCTRL

?PR?_PCT_SHOWINDICATEICON?OSDACTION_            -----    -----      0008H    0001H      01DDH    0003H
  +--> ?PR?OSDACTION_
  +--> ?PR?_PCT_PRESETFOREGROUNDCOLOR?OSDCTRL
  +--> ?PR?_PCT_CLEARWORDSPATHX?OSDCTRL
  +--> ?CO?OSDACTION_
  +--> ?PR?_PCT_SHOWGRAPHSTRING?OSD_GRAPH

?PR?_MONIHSCOMMSJMODE?COMMANDSHELL              -----    -----      -----    -----      -----    -----
  +--> ?PR?COMMANDSHELL
  +--> ?CO?COMMANDSHELL
  +--> ?PR?SCANF?SCANF

?PR?REPEAT_PWM_COM?NED                          -----    -----      -----    -----      -----    -----
  +--> ?PR?_WRITEBYTE?NED

?PR?_WRITEBYTE?NED                              -----    -----      -----    -----      -----    -----
  +--> ?PR?_WRITEI2C?NED

?PR?_PWM_SET?MAIN                               -----    -----      -----    -----      -----    -----
  +--> ?PR?MAIN
  +--> ?PR?_SET_PWM_OUTPUT?MAIN

?PR?_SET_PWM_OUTPUT?MAIN                        -----    -----      -----    -----      01DDH    0008H
  +--> ?CO?MAIN
BL51 BANKED LINKER/LOCATER V6.22                                                      12/04/2018  11:32:30  PAGE 12


  +--> ?PR?MAIN

?PR?_BOUND_SET?NED                              -----    -----      -----    -----      01D5H    0004H
  +--> ?CO?NED
  +--> ?PR?NED
  +--> ?PR?_PCT_WRITEASICBYTE?BUSCTRL

?PR?GPIO_CHECK?NED                              -----    -----      -----    -----      0006H    0002H
  +--> ?PR?_GPIOGETPORTSTATE?NED

?PR?_GPIOGETPORTSTATE?NED                       -----    -----      -----    -----      -----    -----
  +--> ?PR?_READI2C?NED

?PR?COMMANDSHELL?MAIN                           -----    -----      0008H    0001H      -----    -----
  +--> ?PR?RS_RXREADY?UART
  +--> ?PR?RS_RX?UART
  +--> ?PR?MAIN
  +--> ?PR?_SC16_BCC_CHECK?NED
  +--> ?PR?RESETCOMMSELL?MAIN

?PR?RS_RX?UART                                  -----    -----      -----    -----      -----    -----
  +--> ?PR?UART

?PR?_SC16_BCC_CHECK?NED                         -----    -----      -----    -----      0006H    0006H
  +--> ?PR?NED
  +--> ?PR?_RS_TX?UART
  +--> ?PR?_WRITEBYTE?NED
  +--> ?PR?SEND_CAMERA_TEMP?NED
  +--> ?PR?SEND_CAMERA_PRESS?NED
  +--> ?PR?SENT_CAMERA_ANG?NED
  +--> ?PR?SENT_CAMERA_RANG?NED
  +--> ?PR?_SENT_CAMERA_IRD?NED
  +--> ?PR?SENT_DVR_TEMP?NED
  +--> ?PR?VERSION_CHECK?MAIN
  +--> ?PR?CAMERA_VERSION_CHECK?MAIN
  +--> ?PR?CHECK_OTHER_COM?NED
  +--> ?PR?_SC16_SENDDATA?NED

?PR?SEND_CAMERA_TEMP?NED                        -----    -----      -----    -----      000CH    0001H
  +--> ?PR?NED
  +--> ?PR?_BCC_CAL?NED
  +--> ?PR?_RS_TX?UART

?PR?_BCC_CAL?NED                                -----    -----      -----    -----      000DH    0002H

?PR?SEND_CAMERA_PRESS?NED                       -----    -----      -----    -----      000CH    0001H
  +--> ?PR?NED
  +--> ?PR?_BCC_CAL?NED
  +--> ?PR?_RS_TX?UART

?PR?SENT_CAMERA_ANG?NED                         -----    -----      -----    -----      000CH    0001H
  +--> ?PR?NED
  +--> ?PR?_BCC_CAL?NED
  +--> ?PR?_RS_TX?UART

?PR?SENT_CAMERA_RANG?NED                        -----    -----      -----    -----      000CH    0001H
  +--> ?PR?NED
BL51 BANKED LINKER/LOCATER V6.22                                                      12/04/2018  11:32:30  PAGE 13


  +--> ?PR?_BCC_CAL?NED
  +--> ?PR?_RS_TX?UART

?PR?_SENT_CAMERA_IRD?NED                        -----    -----      -----    -----      000CH    0003H
  +--> ?PR?_RS_TX?UART

?PR?SENT_DVR_TEMP?NED                           -----    -----      -----    -----      000CH    0001H
  +--> ?PR?NED
  +--> ?PR?_BCC_CAL?NED
  +--> ?PR?_RS_TX?UART

?PR?VERSION_CHECK?MAIN                          -----    -----      -----    -----      000CH    0001H
  +--> ?PR?MAIN
  +--> ?PR?_RS_TX?UART

?PR?CAMERA_VERSION_CHECK?MAIN                   -----    -----      -----    -----      000CH    0001H
  +--> ?PR?MAIN
  +--> ?PR?_RS_TX?UART

?PR?CHECK_OTHER_COM?NED                         -----    -----      -----    -----      -----    -----
  +--> ?PR?_RS_TX?UART
  +--> ?PR?_SET_VIDEO?NED

?PR?_SET_VIDEO?NED                              -----    -----      -----    -----      000CH    0001H
  +--> ?PR?NED
  +--> ?PR?_PCT_WRITEASICBYTE?BUSCTRL

?PR?_SC16_SENDDATA?NED                          -----    -----      -----    -----      000CH    0002H
  +--> ?PR?_WRITEBYTE?NED

?PR?PCT_CHECKSYSTEM?COMMANDSHELL                -----    -----      -----    -----      -----    -----
  +--> ?PR?_PCT_DETECTVIDEOFORMAT?TW28XX_VIDEO
  +--> ?PR?_PCT_ENSHOWOSDPAGE?OSDCTRL
  +--> ?PR?_PCT_CHANGESYSTEMTYPE?TW2835_INIT
  +--> ?PR?_PCT_RECOMPENSEYHDELAY?TW28XX_VIDEO
  +--> ?PR?COMMANDSHELL
  +--> ?PR?_PCT_SETVIDEOHDELAY?TW28XX_VIDEO
  +--> ?PR?_PCT_SETXVIDEOMIXING?TW28XX_VIDEO
  +--> ?PR?_PCT_CLEAROSDPAGEX?OSDCTRL
  +--> ?PR?PCT_SHOWMODEICON?OSDACTION_
  +--> ?PR?_PCT_OSD_ACTIONPTHX?OSDACTION_
  +--> ?PR?PCT_OSDACTIONFORHS?OSDACTION_

?PR?_PCT_CHANGESYSTEMTYPE?TW2835_INIT           -----    -----      -----    -----      0006H    0002H
  +--> ?PR?TW2835_INIT
  +--> ?CO?TW2835_INIT
  +--> ?PR?_PCT_WRITEASICTABLE?BUSCTRL

?PR?PCT_GETVIDEOSIGNALSTATUS?OSDACTION_         -----    -----      -----    -----      -----    -----
  +--> ?PR?_PCT_READASICBYTE?BUSCTRL
  +--> ?PR?_PCT_WRITEASICBYTE?BUSCTRL
  +--> ?PR?_PCT_PRESETFOREGROUNDCOLOR?OSDCTRL
  +--> ?PR?_PCT_PRESETGRAPHATTR?OSD_GRAPH
  +--> ?PR?PCT_CLEARGRAPHATTR?OSD_GRAPH

?PR?CAMERA_MOVE?NED                             -----    -----      -----    -----      0006H    000CH
  +--> ?CO?NED
BL51 BANKED LINKER/LOCATER V6.22                                                      12/04/2018  11:32:30  PAGE 14


  +--> ?PR?NED
  +--> ?PR?_WRITEBYTE?NED

?PR?_SC16_DATA_RESET?NED                        -----    -----      -----    -----      -----    -----
  +--> ?PR?TEMP_CHECK?MAIN
  +--> ?PR?PRESS_CHECK?MAIN
  +--> ?PR?GET_CAMERA_ANG?NED
  +--> ?PR?GET_CAMERA_RANG?NED
  +--> ?PR?GET_DVR_TEMP?NED
  +--> ?PR?GET_CAMERA_VER?NED

?PR?TEMP_CHECK?MAIN                             -----    -----      -----    -----      -----    -----
  +--> ?PR?_READI2CWORD?NED

?PR?_READI2CWORD?NED                            -----    -----      -----    -----      0006H    0002H
  +--> ?PR?I2CSTART?NED
  +--> ?PR?_I2CWRITEDATA?NED
  +--> ?PR?NED
  +--> ?PR?I2CREADDATAWITHACK?NED
  +--> ?PR?I2CREADDATA?NED
  +--> ?PR?I2CSTOP?NED

?PR?I2CREADDATAWITHACK?NED                      -----    -----      -----    -----      -----    -----
  +--> ?PR?NED
  +--> ?PR?I2CDELAY?NED

?PR?PRESS_CHECK?MAIN                            -----    -----      -----    -----      0006H    0007H
  +--> ?PR?MAIN
  +--> ?PR?_ADC_READ?NED

?PR?GET_CAMERA_ANG?NED                          -----    -----      -----    -----      -----    -----
  +--> ?PR?_WRITEBYTE?NED

?PR?GET_CAMERA_RANG?NED                         -----    -----      -----    -----      -----    -----
  +--> ?PR?_WRITEBYTE?NED

?PR?GET_DVR_TEMP?NED                            -----    -----      -----    -----      -----    -----
  +--> ?PR?_WRITEBYTE?NED

?PR?GET_CAMERA_VER?NED                          -----    -----      -----    -----      -----    -----
  +--> ?PR?_WRITEBYTE?NED

?PR?SC16_DATACHECK?NED                          -----    -----      -----    -----      0006H    0003H
  +--> ?PR?_SC16_SENDDATASELECT?NED

?PR?_SC16_SENDDATASELECT?NED                    -----    -----      -----    -----      0009H    0009H
  +--> ?PR?NED
  +--> ?PR?_READI2C?NED
  +--> ?PR?_READBYTE?NED
  +--> ?PR?_RS_TX?UART
  +--> ?PR?_SC16_COMCHECK?NED

?PR?_READBYTE?NED                               -----    -----      -----    -----      -----    -----
  +--> ?PR?_READI2C?NED

?PR?_SC16_COMCHECK?NED                          -----    -----      -----    -----      0012H    0002H
  +--> ?PR?NED
BL51 BANKED LINKER/LOCATER V6.22                                                      12/04/2018  11:32:30  PAGE 15



?PR?_SET_CAMERA_SPEED?NED                       -----    -----      -----    -----      -----    -----
  +--> ?PR?_WRITEBYTE?NED

*** NEW ROOT ***************************************************

?PR?RS_INTERRUPT?UART                           -----    -----      -----    -----      -----    -----
  +--> ?PR?UART



SYMBOL TABLE OF MODULE:  .\OBJ\NED_5MCMOS_v0_a_8_XXXX_20180921 (?C_STARTUP)

  VALUE           TYPE          NAME
  ----------------------------------

  -------         MODULE        ?C_STARTUP
  C:66E0H         SEGMENT       ?C_C51STARTUP
  I:0031H         SEGMENT       ?STACK
  C:0000H         PUBLIC        ?C_STARTUP
  D:00E0H         SYMBOL        ACC
  D:00F0H         SYMBOL        B
  D:0083H         SYMBOL        DPH
  D:0082H         SYMBOL        DPL
  N:0000H         SYMBOL        IBPSTACK
  N:0100H         SYMBOL        IBPSTACKTOP
  N:0080H         SYMBOL        IDATALEN
  C:66E3H         SYMBOL        IDATALOOP
  N:0000H         SYMBOL        PBPSTACK
  N:0100H         SYMBOL        PBPSTACKTOP
  N:0000H         SYMBOL        PDATALEN
  N:0000H         SYMBOL        PDATASTART
  N:0000H         SYMBOL        PPAGE
  N:0000H         SYMBOL        PPAGEENABLE
  D:00A0H         SYMBOL        PPAGE_SFR
  D:0081H         SYMBOL        SP
  C:66E0H         SYMBOL        STARTUP1
  N:0000H         SYMBOL        XBPSTACK
  N:0000H         SYMBOL        XBPSTACKTOP
  N:0000H         SYMBOL        XDATALEN
  N:0000H         SYMBOL        XDATASTART
  C:0000H         LINE#         126
  C:66E0H         LINE#         133
  C:66E2H         LINE#         134
  C:66E3H         LINE#         135
  C:66E4H         LINE#         136
  C:66E6H         LINE#         185
  C:66E9H         LINE#         196
  -------         ENDMOD        ?C_STARTUP

  -------         MODULE        UART
  C:0000H         SYMBOL        _ICE_DUMMY_
  D:0080H         PUBLIC        P0
  D:0090H         PUBLIC        P1
  D:00A0H         PUBLIC        P2
  D:00C0H         PUBLIC        XICON
  D:00B0H         PUBLIC        P3
BL51 BANKED LINKER/LOCATER V6.22                                                      12/04/2018  11:32:30  PAGE 16


  D:00E8H         PUBLIC        P4
  C:7AA4H         PUBLIC        InitialUART
  D:00A8H         PUBLIC        IE
  X:028DH         PUBLIC        RS_RECVBUF
  B:00A8H.4       PUBLIC        ES
  D:00B8H         PUBLIC        IP
  B:0098H.0       PUBLIC        RI
  B:0098H.1       PUBLIC        TI
  B:00B8H.4       PUBLIC        PS
  D:00D8H         PUBLIC        CCON
  D:0099H         PUBLIC        SBUF
  D:00C0H         PUBLIC        WDTC
  D:0098H         PUBLIC        SCON
  D:0088H         PUBLIC        TCON
  C:7B58H         PUBLIC        RS_RxReady
  D:008DH         PUBLIC        TH1
  D:008BH         PUBLIC        TL1
  X:02F1H         PUBLIC        RsRxRp
  B:0088H.6       PUBLIC        TR1
  X:02F2H         PUBLIC        RsRxWp
  D:00F8H         PUBLIC        IPA
  D:00C8H         PUBLIC        T2CON
  C:7A72H         PUBLIC        RS_rx
  C:0003H         PUBLIC        _RS_tx
  C:77AEH         PUBLIC        RS_interrupt
  D:00D0H         PUBLIC        PSW
  C:7BDAH         SYMBOL        Com000E
  C:7BDAH         SYMBOL        L?0015
  -------         PROC          COM000E
  -------         ENDPROC       COM000E
  -------         PROC          INITIALUART
  C:7AA4H         LINE#         75
  C:7AA4H         LINE#         76
  C:7AA4H         LINE#         79
  C:7AA6H         LINE#         80
  C:7AA8H         LINE#         84
  C:7AABH         LINE#         99
  C:7AAEH         LINE#         103
  C:7AB1H         LINE#         104
  C:7AB3H         LINE#         106
  C:7AB7H         LINE#         107
  C:7AB9H         LINE#         108
  -------         ENDPROC       INITIALUART
  -------         PROC          RS_RXREADY
  C:7B58H         LINE#         114
  C:7B58H         LINE#         115
  C:7B58H         LINE#         116
  C:7B65H         LINE#         117
  C:7B67H         LINE#         118
  -------         ENDPROC       RS_RXREADY
  -------         PROC          RS_RX
  -------         DO            
  D:0007H         SYMBOL        ret
  -------         ENDDO         
  C:7A72H         LINE#         124
  C:7A72H         LINE#         125
  C:7A72H         LINE#         131
BL51 BANKED LINKER/LOCATER V6.22                                                      12/04/2018  11:32:30  PAGE 17


  C:7A7AH         LINE#         132
  C:7A80H         LINE#         133
  C:7A86H         LINE#         134
  C:7A88H         LINE#         138
  C:7A8AH         LINE#         140
  C:7A8AH         LINE#         141
  -------         ENDPROC       RS_RX
  -------         PROC          _RS_TX
  D:0007H         SYMBOL        tx_buf
  C:0003H         LINE#         147
  C:0003H         LINE#         148
  C:0003H         LINE#         166
  C:0003H         LINE#         167
  C:0003H         LINE#         169
  C:0006H         LINE#         178
  C:0008H         LINE#         179
  C:000AH         LINE#         180
  C:000AH         LINE#         181
  C:000AH         LINE#         182
  C:000AH         LINE#         185
  -------         ENDPROC       _RS_TX
  -------         PROC          RS_INTERRUPT
  C:77AEH         LINE#         193
  C:77B6H         LINE#         196
  C:77B9H         LINE#         197
  C:77BBH         LINE#         206
  C:77C4H         LINE#         210
  C:77CAH         LINE#         211
  C:77D2H         LINE#         218
  C:77D2H         LINE#         221
  -------         ENDPROC       RS_INTERRUPT
  -------         ENDMOD        UART

  -------         MODULE        BUSCTRL
  C:0000H         SYMBOL        _ICE_DUMMY_
  D:0080H         PUBLIC        P0
  D:0090H         PUBLIC        P1
  D:00A0H         PUBLIC        P2
  D:00C0H         PUBLIC        XICON
  D:00B0H         PUBLIC        P3
  D:00E8H         PUBLIC        P4
  B:00A8H.7       PUBLIC        EA
  D:00A8H         PUBLIC        IE
  C:7027H         PUBLIC        _PCT_WriteSTable
  D:00B8H         PUBLIC        IP
  B:00A0H.3       PUBLIC        HALE
  B:00A0H.2       PUBLIC        HRDB
  D:00D8H         PUBLIC        CCON
  D:00C0H         PUBLIC        WDTC
  B:00A0H.1       PUBLIC        HWRB
  D:0098H         PUBLIC        SCON
  D:0088H         PUBLIC        TCON
  C:687EH         PUBLIC        _PCT_WriteAsicTable
  C:0029H         PUBLIC        PTC_SwitchToI2CMode
  B:00B0H.6       PUBLIC        HCSB0
  B:00B0H.7       PUBLIC        HCSB1
  D:00F8H         PUBLIC        IPA
BL51 BANKED LINKER/LOCATER V6.22                                                      12/04/2018  11:32:30  PAGE 18


  C:676CH         PUBLIC        _PCT_ReadAsicByte
  D:00C8H         PUBLIC        T2CON
  C:6C0FH         PUBLIC        _PCT_WriteAsicByte
  D:00D0H         PUBLIC        PSW
  C:75C1H         SYMBOL        Com0038
  C:75C1H         SYMBOL        L?0057
  C:75C4H         SYMBOL        L?0058
  C:75C6H         SYMBOL        L?0059
  C:75CEH         SYMBOL        L?0060
  C:75CEH         SYMBOL        L?0061
  C:75D6H         SYMBOL        L?0062
  C:75D6H         SYMBOL        L?0063
  C:75DDH         SYMBOL        L?0064
  C:75E9H         SYMBOL        L?0065
  C:75F3H         SYMBOL        L?0066
  -------         PROC          COM0038
  -------         ENDPROC       COM0038
  -------         PROC          _PCT_WRITEASICBYTE
  D:0007H         SYMBOL        _dvc
  X:01F3H         SYMBOL        _pg
  X:01F4H         SYMBOL        _addr
  X:01F5H         SYMBOL        _wdat
  C:6C0FH         LINE#         63
  C:6C12H         LINE#         64
  C:6C12H         LINE#         65
  C:6C12H         LINE#         67
  C:6C15H         LINE#         70
  C:6C18H         LINE#         75
  C:6C25H         LINE#         76
  C:6C2FH         LINE#         77
  C:6C37H         LINE#         78
  C:6C3AH         LINE#         79
  C:6C3AH         LINE#         82
  C:6C4DH         LINE#         84
  C:6C4FH         LINE#         85
  C:6C55H         LINE#         86
  C:6C57H         LINE#         89
  C:6C6AH         LINE#         92
  C:6C6CH         LINE#         96
  C:6C6FH         LINE#         101
  C:6C6FH         LINE#         102
  C:6C6FH         LINE#         103
  C:6C6FH         LINE#         104
  C:6C72H         LINE#         105
  -------         ENDPROC       _PCT_WRITEASICBYTE
  -------         PROC          _PCT_WRITEASICTABLE
  D:0007H         SYMBOL        _dvc
  X:01D8H         SYMBOL        _pg
  X:01D9H         SYMBOL        _addr
  X:01DAH         SYMBOL        _tbl_ptr
  X:01DDH         SYMBOL        _tbl_cnt
  C:687EH         LINE#         111
  C:6881H         LINE#         112
  C:6881H         LINE#         113
  C:6881H         LINE#         115
  C:6884H         LINE#         119
  C:6887H         LINE#         124
BL51 BANKED LINKER/LOCATER V6.22                                                      12/04/2018  11:32:30  PAGE 19


  C:6894H         LINE#         125
  C:689EH         LINE#         126
  C:68A6H         LINE#         128
  C:68A6H         LINE#         129
  C:68AFH         LINE#         130
  C:68AFH         LINE#         133
  C:68C2H         LINE#         136
  C:68C4H         LINE#         138
  C:68D9H         LINE#         139
  C:68DBH         LINE#         142
  C:68EEH         LINE#         145
  C:68F0H         LINE#         146
  C:68F8H         LINE#         150
  C:68FBH         LINE#         155
  C:68FBH         LINE#         156
  C:68FBH         LINE#         157
  C:68FBH         LINE#         158
  C:68FEH         LINE#         159
  -------         ENDPROC       _PCT_WRITEASICTABLE
  -------         PROC          _PCT_READASICBYTE
  X:01F2H         SYMBOL        _dvc
  X:01F3H         SYMBOL        _pg
  X:01F4H         SYMBOL        _addr
  -------         DO            
  X:01F5H         SYMBOL        _rdat_
  -------         ENDDO         
  C:676CH         LINE#         165
  C:6777H         LINE#         166
  C:6777H         LINE#         169
  C:6779H         LINE#         173
  C:677CH         LINE#         178
  C:6781H         LINE#         179
  C:678CH         LINE#         180
  C:6796H         LINE#         181
  C:679EH         LINE#         183
  C:67A1H         LINE#         184
  C:67A1H         LINE#         186
  C:67B4H         LINE#         189
  C:67B6H         LINE#         190
  C:67B9H         LINE#         192
  C:67CCH         LINE#         196
  C:67CEH         LINE#         197
  C:67D4H         LINE#         201
  C:67E7H         LINE#         204
  C:67E9H         LINE#         208
  C:67ECH         LINE#         213
  C:67EEH         LINE#         214
  C:67F0H         LINE#         215
  C:67F2H         LINE#         216
  C:67F7H         LINE#         217
  -------         ENDPROC       _PCT_READASICBYTE
  -------         PROC          _PCT_WRITESTABLE
  D:0007H         SYMBOL        _dvc
  X:01E4H         SYMBOL        _tbl_ptr
  C:7027H         LINE#         224
  C:7032H         LINE#         225
  C:7032H         LINE#         229
BL51 BANKED LINKER/LOCATER V6.22                                                      12/04/2018  11:32:30  PAGE 20


  C:7032H         LINE#         230
  C:7040H         LINE#         231
  C:705AH         LINE#         232
  C:705AH         LINE#         233
  C:706CH         LINE#         234
  C:706CH         LINE#         235
  C:7076H         LINE#         236
  C:7078H         LINE#         237
  -------         ENDPROC       _PCT_WRITESTABLE
  -------         PROC          PTC_SWITCHTOI2CMODE
  C:0029H         LINE#         243
  C:0029H         LINE#         244
  C:0029H         LINE#         254
  -------         ENDPROC       PTC_SWITCHTOI2CMODE
  -------         ENDMOD        BUSCTRL

  -------         MODULE        COMMANDSHELL
  C:0000H         SYMBOL        _ICE_DUMMY_
  D:0080H         PUBLIC        P0
  D:0090H         PUBLIC        P1
  D:00A0H         PUBLIC        P2
  D:00C0H         PUBLIC        XICON
  D:00B0H         PUBLIC        P3
  D:00E8H         PUBLIC        P4
  C:7ABAH         PUBLIC        _MoniHSCommSJmode
  C:5B97H         PUBLIC        _PCT_RunCommShell
  D:00A8H         PUBLIC        IE
  D:00B8H         PUBLIC        IP
  C:7A3EH         PUBLIC        _MoniYVideoMix
  X:0338H         PUBLIC        sysdat
  D:00D8H         PUBLIC        CCON
  C:002AH         PUBLIC        PCT_SendACK
  C:6EC1H         PUBLIC        _PCT_GetFirstStr
  C:6AD8H         PUBLIC        PCT_CheckSystem
  D:00C0H         PUBLIC        WDTC
  D:0098H         PUBLIC        SCON
  D:0088H         PUBLIC        TCON
  C:70C9H         PUBLIC        _MoniWriteAsicByte
  C:55C3H         PUBLIC        _MoniHSComm
  X:0349H         PUBLIC        msg
  C:7584H         PUBLIC        _PCT_StrToCommCode
  C:7321H         PUBLIC        _PCT_CheckVMixType
  D:00F8H         PUBLIC        IPA
  D:00C8H         PUBLIC        T2CON
  X:0354H         PUBLIC        Original_selwintype
  D:00D0H         PUBLIC        PSW
  C:67F8H         SYMBOL        Com002F
  C:67F8H         SYMBOL        L?0048
  C:67F8H         SYMBOL        L?0049
  C:67FBH         SYMBOL        L?0050
  C:6804H         SYMBOL        L?0051
  C:6805H         SYMBOL        L?0052
  C:680CH         SYMBOL        L?0053
  C:680DH         SYMBOL        L?0054
  C:681AH         SYMBOL        L?0056
  C:682AH         SYMBOL        L?0057
  C:6831H         SYMBOL        L?0058
BL51 BANKED LINKER/LOCATER V6.22                                                      12/04/2018  11:32:30  PAGE 21


  C:6838H         SYMBOL        L?0060
  C:6838H         SYMBOL        L?0061
  C:6842H         SYMBOL        L?0062
  C:6842H         SYMBOL        L?0063
  C:684AH         SYMBOL        L?0064
  C:6851H         SYMBOL        L?0065
  C:6851H         SYMBOL        L?0066
  C:6858H         SYMBOL        L?0067
  C:6858H         SYMBOL        L?0068
  C:6861H         SYMBOL        L?0069
  C:6861H         SYMBOL        L?0070
  C:686AH         SYMBOL        L?0072
  C:686AH         SYMBOL        L?0073
  C:6870H         SYMBOL        L?0074
  C:6877H         SYMBOL        L?0075
  C:6877H         SYMBOL        L?0076
  -------         PROC          COM002F
  -------         ENDPROC       COM002F
  -------         PROC          _PCT_GETFIRSTSTR
  X:01DDH         SYMBOL        tagStr
  X:01E0H         SYMBOL        sourceStr
  C:6EC1H         LINE#         88
  C:6EC7H         LINE#         89
  C:6EC7H         LINE#         90
  C:6ED2H         LINE#         91
  C:6EE3H         LINE#         92
  C:6EF8H         LINE#         93
  C:6EFAH         LINE#         94
  C:6EFAH         LINE#         95
  C:6F04H         LINE#         96
  C:6F08H         LINE#         97
  C:6F0EH         LINE#         98
  C:6F11H         LINE#         99
  C:6F14H         LINE#         100
  C:6F17H         LINE#         101
  C:6F1DH         LINE#         102
  -------         ENDPROC       _PCT_GETFIRSTSTR
  -------         PROC          _PCT_STRTOCOMMCODE
  X:01DDH         SYMBOL        Str
  -------         DO            
  D:0008H         SYMBOL        ret
  -------         ENDDO         
  C:7584H         LINE#         112
  C:758AH         LINE#         113
  C:758AH         LINE#         114
  C:758FH         LINE#         116
  C:75BCH         LINE#         117
  C:75C0H         LINE#         118
  -------         ENDPROC       _PCT_STRTOCOMMCODE
  -------         PROC          PCT_SENDACK
  C:002AH         LINE#         124
  C:002AH         LINE#         125
  C:002AH         LINE#         131
  -------         ENDPROC       PCT_SENDACK
  -------         PROC          _PCT_CHECKVMIXTYPE
  D:0007H         SYMBOL        _typ
  -------         DO            
BL51 BANKED LINKER/LOCATER V6.22                                                      12/04/2018  11:32:30  PAGE 22


  D:000BH         SYMBOL        tmplktp
  -------         ENDDO         
  C:7321H         LINE#         143
  C:7321H         LINE#         144
  C:7321H         LINE#         145
  C:7324H         LINE#         147
  C:732AH         LINE#         148
  C:7331H         LINE#         149
  C:7337H         LINE#         150
  C:7343H         LINE#         152
  C:7351H         LINE#         153
  C:7357H         LINE#         155
  C:7357H         LINE#         156
  C:735DH         LINE#         157
  C:7363H         LINE#         158
  C:7368H         LINE#         159
  -------         ENDPROC       _PCT_CHECKVMIXTYPE
  -------         PROC          _MONIWRITEASICBYTE
  D:0001H         SYMBOL        szParam
  -------         DO            
  D:0008H         SYMBOL        _dev
  D:0009H         SYMBOL        _pg
  D:000AH         SYMBOL        _addr
  D:000BH         SYMBOL        _wdat
  -------         ENDDO         
  C:70C9H         LINE#         212
  C:70C9H         LINE#         213
  C:70C9H         LINE#         214
  C:70CCH         LINE#         215
  C:70CEH         LINE#         216
  C:70D0H         LINE#         217
  C:70D2H         LINE#         219
  C:7107H         LINE#         220
  -------         ENDPROC       _MONIWRITEASICBYTE
  -------         PROC          _MONIYVIDEOMIX
  D:0001H         SYMBOL        szParam
  -------         DO            
  D:0008H         SYMBOL        chan
  -------         ENDDO         
  C:7A3EH         LINE#         531
  C:7A3EH         LINE#         532
  C:7A3EH         LINE#         535
  C:7A53H         LINE#         536
  -------         ENDPROC       _MONIYVIDEOMIX
  -------         PROC          _MONIHSCOMM
  D:0001H         SYMBOL        szParam
  -------         DO            
  D:0008H         SYMBOL        winid
  D:0009H         SYMBOL        chose
  D:000AH         SYMBOL        wintp
  -------         ENDDO         
  C:55C3H         LINE#         657
  C:55C3H         LINE#         661
  C:5635H         LINE#         664
  C:5651H         LINE#         668
  C:565BH         LINE#         669
  C:5665H         LINE#         670
BL51 BANKED LINKER/LOCATER V6.22                                                      12/04/2018  11:32:30  PAGE 23


  C:5670H         LINE#         671
  C:567BH         LINE#         673
  C:5686H         LINE#         674
  C:5691H         LINE#         675
  C:569CH         LINE#         676
  C:56A7H         LINE#         683
  C:56B0H         LINE#         684
  C:56B9H         LINE#         687
  C:56C4H         LINE#         690
  C:56C7H         LINE#         691
  C:56E3H         LINE#         696
  C:56E8H         LINE#         697
  C:56EDH         LINE#         698
  C:56F2H         LINE#         700
  C:56FAH         LINE#         701
  C:56FFH         LINE#         702
  C:5704H         LINE#         703
  C:5707H         LINE#         704
  C:5710H         LINE#         705
  C:5718H         LINE#         723
  -------         ENDPROC       _MONIHSCOMM
  -------         PROC          PCT_CHECKSYSTEM
  -------         DO            
  D:0007H         SYMBOL        TempSystem
  -------         ENDDO         
  C:6AD8H         LINE#         730
  C:6AD8H         LINE#         731
  C:6AD8H         LINE#         734
  C:6ADDH         LINE#         736
  C:6AE1H         LINE#         737
  C:6AE3H         LINE#         738
  C:6AEAH         LINE#         739
  C:6AECH         LINE#         740
  C:6AF1H         LINE#         743
  C:6B01H         LINE#         745
  C:6B06H         LINE#         749
  C:6B0EH         LINE#         750
  C:6B17H         LINE#         751
  C:6B20H         LINE#         753
  C:6B2BH         LINE#         757
  C:6B30H         LINE#         758
  C:6B33H         LINE#         759
  C:6B3CH         LINE#         760
  C:6B3FH         LINE#         763
  C:6B40H         LINE#         764
  -------         ENDPROC       PCT_CHECKSYSTEM
  -------         PROC          _MONIHSCOMMSJMODE
  D:0001H         SYMBOL        szParam
  C:7ABAH         LINE#         771
  C:7ABAH         LINE#         772
  C:7ABAH         LINE#         773
  -------         ENDPROC       _MONIHSCOMMSJMODE
  C:5C71H         SYMBOL        L?0055
  C:5C7BH         SYMBOL        L?0059
  C:5C84H         SYMBOL        L?0071
  -------         PROC          _PCT_RUNCOMMSHELL
  X:01D5H         SYMBOL        strptr
BL51 BANKED LINKER/LOCATER V6.22                                                      12/04/2018  11:32:30  PAGE 24


  -------         DO            
  X:01D8H         SYMBOL        commcode
  X:01DAH         SYMBOL        getStr
  -------         ENDDO         
  C:5B97H         LINE#         801
  C:5B9DH         LINE#         802
  C:5B9DH         LINE#         818
  C:5BB4H         LINE#         821
  C:5BC5H         LINE#         837
  C:5BD4H         LINE#         840
  C:5BDDH         LINE#         842
  C:5BE0H         LINE#         895
  C:5BEFH         LINE#         897
  C:5BEFH         LINE#         899
  C:5BF8H         LINE#         901
  C:5BFBH         LINE#         923
  C:5C0BH         LINE#         924
  C:5C0BH         LINE#         926
  C:5C14H         LINE#         929
  C:5C17H         LINE#         930
  C:5C1CH         LINE#         943
  C:5C2EH         LINE#         944
  C:5C2EH         LINE#         946
  C:5C37H         LINE#         947
  C:5C39H         LINE#         961
  C:5C49H         LINE#         962
  C:5C49H         LINE#         964
  C:5C51H         LINE#         969
  C:5C53H         LINE#         970
  C:5C63H         LINE#         971
  C:5C63H         LINE#         973
  C:5C66H         LINE#         974
  C:5C6EH         LINE#         981
  C:5C6EH         LINE#         1011
  C:5C6EH         LINE#         1012
  C:5C6EH         LINE#         1017
  C:5C70H         LINE#         1018
  -------         ENDPROC       _PCT_RUNCOMMSHELL
  -------         ENDMOD        COMMANDSHELL

  -------         MODULE        MAIN
  C:0000H         SYMBOL        _ICE_DUMMY_
  D:0094H         PUBLIC        P0M1
  D:0091H         PUBLIC        P1M0
  D:00F6H         PUBLIC        PCAPWM4
  D:0095H         PUBLIC        P2M0
  D:0092H         PUBLIC        P1M1
  D:00F7H         PUBLIC        PCAPWM5
  D:0080H         PUBLIC        P0
  D:00B1H         PUBLIC        P3M0
  D:0096H         PUBLIC        P2M1
  D:0090H         PUBLIC        P1
  X:02F4H         PUBLIC        CB_flag
  D:00B2H         PUBLIC        P3M1
  D:00B3H         PUBLIC        P4M0
  D:00A0H         PUBLIC        P2
  D:00B4H         PUBLIC        P4M1
BL51 BANKED LINKER/LOCATER V6.22                                                      12/04/2018  11:32:30  PAGE 25


  D:00C0H         PUBLIC        XICON
  D:00B0H         PUBLIC        P3
  D:00E8H         PUBLIC        P4
  X:02F5H         PUBLIC        Temp_timeout
  D:00E1H         PUBLIC        WDTCR
  B:00A8H.7       PUBLIC        EA
  X:02F6H         PUBLIC        RScommand
  D:00F9H         PUBLIC        CH
  C:7B78H         PUBLIC        PWM_init
  D:00A8H         PUBLIC        IE
  D:00E9H         PUBLIC        CL
  D:00FAH         PUBLIC        CCAP0H
  B:0090H.1       PUBLIC        P1_1
  D:00FBH         PUBLIC        CCAP1H
  B:0090H.2       PUBLIC        P1_2
  D:00FCH         PUBLIC        CCAP2H
  B:0090H.3       PUBLIC        P1_3
  D:00FDH         PUBLIC        CCAP3H
  B:00E8H.1       PUBLIC        P4_1
  B:0090H.4       PUBLIC        P1_4
  D:00FEH         PUBLIC        CCAP4H
  D:00EAH         PUBLIC        CCAP0L
  B:0090H.5       PUBLIC        P1_5
  D:00FFH         PUBLIC        CCAP5H
  D:00EBH         PUBLIC        CCAP1L
  D:00DAH         PUBLIC        CCAPM0
  B:0024H.3       PUBLIC        VlossFlag
  B:0090H.6       PUBLIC        P1_6
  D:00ECH         PUBLIC        CCAP2L
  D:00DBH         PUBLIC        CCAPM1
  B:0090H.7       PUBLIC        P1_7
  D:00EDH         PUBLIC        CCAP3L
  D:00DCH         PUBLIC        CCAPM2
  D:00EEH         PUBLIC        CCAP4L
  D:00DDH         PUBLIC        CCAPM3
  D:00B8H         PUBLIC        IP
  D:00EFH         PUBLIC        CCAP5L
  D:00DEH         PUBLIC        CCAPM4
  C:4257H         PUBLIC        _Monitor_set
  D:00DFH         PUBLIC        CCAPM5
  B:0098H.1       PUBLIC        TI
  C:77DBH         PUBLIC        _PWM_set
  X:0321H         PUBLIC        SC16_com_state
  D:00D9H         PUBLIC        CMOD
  D:00D8H         PUBLIC        CCON
  C:5175H         PUBLIC        main
  C:7932H         PUBLIC        ResetCommSell
  D:0020H         PUBLIC        commFlag
  X:0322H         PUBLIC        timerout1
  B:0024H.4       PUBLIC        data_chk_flag
  X:0324H         PUBLIC        timerout2
  D:0087H         PUBLIC        PCON
  X:0326H         PUBLIC        timerout3
  X:0328H         PUBLIC        timerout4
  X:032AH         PUBLIC        boot_flag
  D:00C0H         PUBLIC        WDTC
  D:0098H         PUBLIC        SCON
BL51 BANKED LINKER/LOCATER V6.22                                                      12/04/2018  11:32:30  PAGE 26


  D:0089H         PUBLIC        TMOD
  D:0088H         PUBLIC        TCON
  C:7BEFH         PUBLIC        _PCT_FlashOSDCtrl
  C:6016H         PUBLIC        CommandShell
  D:008EH         PUBLIC        AUXR
  X:032BH         PUBLIC        work_flag
  X:032CH         PUBLIC        Small_f
  C:7243H         PUBLIC        InitialMPU
  C:4C5DH         SYMBOL        _?ix1000
  B:0020H.0       PUBLIC        comm_chk_flag
  C:4D4CH         SYMBOL        _?ix1010
  C:4C63H         SYMBOL        _?ix1001
  C:4D72H         SYMBOL        _?ix1011
  C:4C71H         SYMBOL        _?ix1002
  C:4D98H         SYMBOL        _?ix1012
  C:4C7FH         SYMBOL        _?ix1003
  C:4DBEH         SYMBOL        _?ix1013
  C:4C87H         SYMBOL        _?ix1004
  C:4DE4H         SYMBOL        _?ix1014
  C:4C8EH         SYMBOL        _?ix1005
  C:4E0AH         SYMBOL        _?ix1015
  C:4CB4H         SYMBOL        _?ix1006
  C:4CDAH         SYMBOL        _?ix1007
  C:4D00H         SYMBOL        _?ix1008
  C:4D26H         SYMBOL        _?ix1009
  C:6FD2H         PUBLIC        Version_check
  X:032DH         PUBLIC        Main_f
  X:032EH         PUBLIC        ADC_Val
  X:0332H         PUBLIC        m_current
  C:7079H         PUBLIC        _Wait_ms
  C:7BCEH         PUBLIC        InitialCommShell
  D:00F8H         PUBLIC        IPA
  B:0020H.1       PUBLIC        osd_chk_flag
  X:0333H         PUBLIC        PIP_flag
  D:00C8H         PUBLIC        T2CON
  X:0334H         PUBLIC        CB_timeout
  C:5C8DH         PUBLIC        Press_check
  X:0335H         PUBLIC        _delay
  D:00A2H         PUBLIC        AUXR1
  X:0337H         PUBLIC        timer2_loop
  D:00A6H         PUBLIC        AUXR2
  C:628DH         PUBLIC        _Set_PWM_Output
  C:6DFFH         PUBLIC        Camera_Version_check
  C:6F1FH         PUBLIC        Temp_check
  D:00F2H         PUBLIC        PCAPWM0
  D:00D0H         PUBLIC        PSW
  D:00F3H         PUBLIC        PCAPWM1
  D:00F4H         PUBLIC        PCAPWM2
  D:0093H         PUBLIC        P0M0
  D:00F5H         PUBLIC        PCAPWM3
  C:635BH         SYMBOL        Com00AD
  C:635BH         SYMBOL        L?0174
  C:635FH         SYMBOL        L?0175
  C:6366H         SYMBOL        L?0177
  C:636BH         SYMBOL        L?0178
  C:636EH         SYMBOL        L?0179
  C:6376H         SYMBOL        L?0180
BL51 BANKED LINKER/LOCATER V6.22                                                      12/04/2018  11:32:30  PAGE 27


  C:6376H         SYMBOL        L?0181
  C:6382H         SYMBOL        L?0182
  C:6382H         SYMBOL        L?0183
  C:638BH         SYMBOL        L?0184
  C:6395H         SYMBOL        L?0185
  C:639BH         SYMBOL        L?0186
  C:639DH         SYMBOL        L?0187
  C:63A4H         SYMBOL        L?0188
  C:63ADH         SYMBOL        L?0189
  C:63B1H         SYMBOL        L?0190
  C:63B8H         SYMBOL        L?0191
  C:63B9H         SYMBOL        L?0192
  C:63C0H         SYMBOL        L?0193
  C:63C9H         SYMBOL        L?0194
  C:63C9H         SYMBOL        L?0195
  C:63D3H         SYMBOL        L?0197
  C:63E2H         SYMBOL        L?0198
  C:63E6H         SYMBOL        L?0199
  C:63ECH         SYMBOL        L?0200
  C:63F9H         SYMBOL        L?0201
  C:63F9H         SYMBOL        L?0202
  C:6401H         SYMBOL        L?0203
  C:640DH         SYMBOL        L?0204
  C:6417H         SYMBOL        L?0205
  C:6417H         SYMBOL        L?0206
  -------         PROC          COM00AD
  -------         ENDPROC       COM00AD
  -------         PROC          COMMANDSHELL
  -------         DO            
  D:0008H         SYMBOL        ch
  X:02F3H         SYMBOL        etx_flag
  -------         ENDDO         
  C:6016H         LINE#         138
  C:6016H         LINE#         139
  C:6016H         LINE#         144
  C:6021H         LINE#         145
  C:6021H         LINE#         147
  C:6024H         LINE#         148
  C:6029H         LINE#         156
  C:6034H         LINE#         157
  C:6034H         LINE#         158
  C:6039H         LINE#         160
  C:603FH         LINE#         165
  C:6045H         LINE#         166
  C:6046H         LINE#         168
  C:6069H         LINE#         169
  C:6069H         LINE#         170
  C:606FH         LINE#         171
  C:6072H         LINE#         172
  C:6075H         LINE#         173
  C:6076H         LINE#         174
  C:6081H         LINE#         175
  C:6081H         LINE#         177
  C:6087H         LINE#         178
  C:608AH         LINE#         179
  C:6090H         LINE#         180
  C:6095H         LINE#         185
BL51 BANKED LINKER/LOCATER V6.22                                                      12/04/2018  11:32:30  PAGE 28


  C:6096H         LINE#         186
  C:609EH         LINE#         187
  C:609EH         LINE#         189
  C:60A7H         LINE#         199
  C:60B3H         LINE#         200
  C:60B3H         LINE#         201
  C:60B9H         LINE#         203
  C:60C1H         LINE#         204
  C:60C4H         LINE#         206
  C:60CCH         LINE#         208
  C:60D2H         LINE#         209
  C:60D3H         LINE#         217
  C:60D3H         LINE#         218
  C:60D9H         LINE#         219
  C:60DCH         LINE#         220
  C:60E5H         LINE#         225
  C:60E5H         LINE#         266
  C:60E5H         LINE#         268
  C:60E5H         LINE#         269
  C:60ECH         LINE#         270
  C:60ECH         LINE#         274
  -------         ENDPROC       COMMANDSHELL
  -------         PROC          RESETCOMMSELL
  C:7932H         LINE#         306
  C:7932H         LINE#         307
  C:7932H         LINE#         310
  C:7937H         LINE#         311
  C:793BH         LINE#         312
  C:793FH         LINE#         313
  C:7942H         LINE#         314
  C:7942H         LINE#         315
  C:7942H         LINE#         316
  C:7945H         LINE#         317
  C:7945H         LINE#         318
  C:7945H         LINE#         319
  C:7949H         LINE#         320
  C:794BH         LINE#         321
  C:794DH         LINE#         323
  C:7951H         LINE#         324
  C:7953H         LINE#         325
  C:7957H         LINE#         326
  -------         ENDPROC       RESETCOMMSELL
  -------         PROC          _PCT_FLASHOSDCTRL
  D:0007H         SYMBOL        _on
  C:7BEFH         LINE#         332
  C:7BEFH         LINE#         333
  C:7BEFH         LINE#         334
  C:7BF5H         LINE#         335
  C:7BF7H         LINE#         336
  -------         ENDPROC       _PCT_FLASHOSDCTRL
  -------         PROC          INITIALCOMMSHELL
  C:7BCEH         LINE#         343
  C:7BCEH         LINE#         344
  C:7BCEH         LINE#         345
  C:7BD0H         LINE#         346
  C:7BD2H         LINE#         349
  C:7BD4H         LINE#         350
BL51 BANKED LINKER/LOCATER V6.22                                                      12/04/2018  11:32:30  PAGE 29


  C:7BD9H         LINE#         351
  -------         ENDPROC       INITIALCOMMSHELL
  -------         PROC          _WAIT_MS
  X:01D5H         SYMBOL        Tms
  -------         DO            
  X:01D7H         SYMBOL        count
  -------         ENDDO         
  C:7079H         LINE#         364
  C:7081H         LINE#         366
  C:7081H         LINE#         375
  C:708BH         LINE#         377
  C:708BH         LINE#         379
  C:70B8H         LINE#         381
  C:70C6H         LINE#         383
  C:70C8H         LINE#         384
  -------         ENDPROC       _WAIT_MS
  -------         PROC          MAIN
  -------         DO            
  X:0000H         SYMBOL        Counter
  X:0001H         SYMBOL        readtemp
  X:0003H         SYMBOL        OsdCount1
  X:0004H         SYMBOL        OsdCount2
  X:0005H         SYMBOL        Camera_speed
  -------         ENDDO         
  C:5175H         LINE#         392
  C:5175H         LINE#         393
  C:5175H         LINE#         394
  C:5178H         LINE#         395
  C:5178H         LINE#         396
  C:517EH         LINE#         397
  C:5182H         LINE#         398
  C:5185H         LINE#         412
  C:5188H         LINE#         413
  C:518BH         LINE#         466
  C:518EH         LINE#         467
  C:5191H         LINE#         479
  C:5196H         LINE#         480
  C:5199H         LINE#         482
  C:519EH         LINE#         484
  C:51A4H         LINE#         485
  C:51A9H         LINE#         486
  C:51AEH         LINE#         500
  C:51B1H         LINE#         503
  C:51B7H         LINE#         504
  C:51BDH         LINE#         505
  C:51C7H         LINE#         507
  C:51CDH         LINE#         508
  C:51D4H         LINE#         510
  C:51E4H         LINE#         512
  C:51E4H         LINE#         514
  C:51E7H         LINE#         515
  C:51F7H         LINE#         516
  C:5201H         LINE#         518
  C:5204H         LINE#         519
  C:5204H         LINE#         520
  C:5209H         LINE#         521
  C:520BH         LINE#         522
BL51 BANKED LINKER/LOCATER V6.22                                                      12/04/2018  11:32:30  PAGE 30


  C:520BH         LINE#         526
  C:521AH         LINE#         530
  C:5222H         LINE#         531
  C:5222H         LINE#         535
  C:5226H         LINE#         536
  C:522FH         LINE#         537
  C:522FH         LINE#         539
  C:523DH         LINE#         540
  C:523DH         LINE#         543
  C:5240H         LINE#         546
  C:524CH         LINE#         547
  C:524CH         LINE#         548
  C:524FH         LINE#         549
  C:524FH         LINE#         556
  C:5255H         LINE#         558
  C:5255H         LINE#         560
  C:526DH         LINE#         561
  C:526DH         LINE#         562
  C:5273H         LINE#         563
  C:5276H         LINE#         565
  C:5276H         LINE#         576
  C:528BH         LINE#         577
  C:528BH         LINE#         582
  C:52A4H         LINE#         583
  C:52AAH         LINE#         584
  C:52B0H         LINE#         585
  C:52B8H         LINE#         587
  C:52BAH         LINE#         589
  C:52BDH         LINE#         592
  C:52C9H         LINE#         593
  C:52C9H         LINE#         594
  C:52CFH         LINE#         595
  C:52D8H         LINE#         599
  C:52D8H         LINE#         606
  C:52EBH         LINE#         607
  C:52EBH         LINE#         608
  C:52F3H         LINE#         609
  C:52FAH         LINE#         610
  C:52FAH         LINE#         612
  C:52FDH         LINE#         633
  -------         ENDPROC       MAIN
  -------         PROC          INITIALMPU
  C:7243H         LINE#         649
  C:7243H         LINE#         651
  C:7246H         LINE#         652
  C:7248H         LINE#         656
  C:724AH         LINE#         659
  C:724DH         LINE#         661
  C:724FH         LINE#         662
  C:7252H         LINE#         667
  C:7254H         LINE#         675
  C:7257H         LINE#         676
  C:725AH         LINE#         677
  C:725DH         LINE#         682
  C:7260H         LINE#         683
  C:7262H         LINE#         684
  C:7264H         LINE#         685
BL51 BANKED LINKER/LOCATER V6.22                                                      12/04/2018  11:32:30  PAGE 31


  C:7266H         LINE#         686
  C:7267H         LINE#         742
  C:7269H         LINE#         743
  C:726BH         LINE#         745
  C:726EH         LINE#         746
  C:7271H         LINE#         748
  C:7273H         LINE#         749
  C:7275H         LINE#         751
  C:7277H         LINE#         752
  C:7279H         LINE#         754
  C:727BH         LINE#         755
  C:727EH         LINE#         756
  C:7280H         LINE#         759
  C:7282H         LINE#         760
  C:7284H         LINE#         761
  C:7286H         LINE#         762
  C:7288H         LINE#         763
  C:728AH         LINE#         764
  C:728CH         LINE#         768
  -------         ENDPROC       INITIALMPU
  -------         PROC          _SET_PWM_OUTPUT
  X:01DDH         SYMBOL        addr
  X:01DEH         SYMBOL        val
  -------         DO            
  X:01DFH         SYMBOL        num
  -------         ENDDO         
  C:628DH         LINE#         771
  C:6295H         LINE#         772
  C:6295H         LINE#         775
  C:62A2H         LINE#         791
  C:62BFH         LINE#         792
  C:62BFH         LINE#         793
  C:62BFH         LINE#         794
  C:62C2H         LINE#         795
  C:62CDH         LINE#         796
  C:62D0H         LINE#         798
  C:62D5H         LINE#         799
  C:62D8H         LINE#         800
  C:62D9H         LINE#         801
  C:62D9H         LINE#         802
  C:62DCH         LINE#         803
  C:62E7H         LINE#         804
  C:62EAH         LINE#         806
  C:62EFH         LINE#         807
  C:62F2H         LINE#         808
  C:62F3H         LINE#         809
  C:62F3H         LINE#         810
  C:62F6H         LINE#         811
  C:6301H         LINE#         812
  C:6304H         LINE#         814
  C:6309H         LINE#         815
  C:630CH         LINE#         816
  C:630DH         LINE#         817
  C:630DH         LINE#         818
  C:6310H         LINE#         819
  C:631BH         LINE#         820
  C:631EH         LINE#         822
BL51 BANKED LINKER/LOCATER V6.22                                                      12/04/2018  11:32:30  PAGE 32


  C:6323H         LINE#         823
  C:6326H         LINE#         824
  C:6327H         LINE#         825
  C:6327H         LINE#         826
  C:632AH         LINE#         827
  C:6335H         LINE#         828
  C:6338H         LINE#         830
  C:633DH         LINE#         831
  C:6340H         LINE#         832
  C:6341H         LINE#         833
  C:6341H         LINE#         834
  C:6344H         LINE#         835
  C:634FH         LINE#         836
  C:6352H         LINE#         838
  C:6357H         LINE#         839
  C:635AH         LINE#         840
  C:635AH         LINE#         841
  C:635AH         LINE#         842
  C:635AH         LINE#         843
  C:635AH         LINE#         846
  -------         ENDPROC       _SET_PWM_OUTPUT
  -------         PROC          PWM_INIT
  C:7B78H         LINE#         849
  C:7B78H         LINE#         850
  C:7B78H         LINE#         852
  C:7B7BH         LINE#         853
  C:7B7DH         LINE#         854
  C:7B80H         LINE#         857
  C:7B83H         LINE#         865
  C:7B86H         LINE#         902
  -------         ENDPROC       PWM_INIT
  C:456DH         SYMBOL        L?0176
  C:458AH         SYMBOL        L?0196
  -------         PROC          _MONITOR_SET
  X:0006H         SYMBOL        val
  -------         DO            
  X:0007H         SYMBOL        busw1
  X:0015H         SYMBOL        busw2
  X:0023H         SYMBOL        yvmix
  X:002BH         SYMBOL        mode
  X:0032H         SYMBOL        conf1
  X:0058H         SYMBOL        conf2
  X:007EH         SYMBOL        conf3
  X:00A4H         SYMBOL        conf4
  X:00CAH         SYMBOL        conf5
  X:00F0H         SYMBOL        conf6
  X:0116H         SYMBOL        conf7
  X:013CH         SYMBOL        conf8
  X:0162H         SYMBOL        conf9
  X:0188H         SYMBOL        conf10
  X:01AEH         SYMBOL        conf11
  X:01D4H         SYMBOL        Error
  D:0007H         SYMBOL        ch
  -------         ENDDO         
  C:4257H         LINE#         905
  C:425CH         LINE#         906
  C:425CH         LINE#         907
BL51 BANKED LINKER/LOCATER V6.22                                                      12/04/2018  11:32:30  PAGE 33


  C:4267H         LINE#         908
  C:4272H         LINE#         909
  C:4285H         LINE#         910
  C:4292H         LINE#         922
  C:429DH         LINE#         923
  C:42A8H         LINE#         924
  C:42B7H         LINE#         926
  C:42C6H         LINE#         927
  C:42D5H         LINE#         929
  C:42E4H         LINE#         930
  C:42F3H         LINE#         932
  C:4302H         LINE#         933
  C:4311H         LINE#         935
  C:4320H         LINE#         956
  C:432FH         LINE#         959
  C:4334H         LINE#         960
  C:4334H         LINE#         962
  C:433CH         LINE#         965
  C:4341H         LINE#         966
  C:4347H         LINE#         968
  C:434CH         LINE#         972
  C:4351H         LINE#         974
  C:4376H         LINE#         975
  C:4376H         LINE#         976
  C:437BH         LINE#         977
  C:4382H         LINE#         978
  C:4382H         LINE#         979
  C:4386H         LINE#         980
  C:4386H         LINE#         981
  C:4388H         LINE#         982
  C:438DH         LINE#         983
  C:438DH         LINE#         984
  C:438FH         LINE#         985
  C:4395H         LINE#         986
  C:439BH         LINE#         987
  C:439DH         LINE#         988
  C:43A2H         LINE#         989
  C:43A7H         LINE#         990
  C:43A9H         LINE#         992
  C:43A9H         LINE#         993
  C:43AFH         LINE#         994
  C:43B1H         LINE#         995
  C:43B1H         LINE#         996
  C:43B7H         LINE#         997
  C:43B9H         LINE#         999
  C:43BFH         LINE#         1000
  C:43BFH         LINE#         1003
  C:43C9H         LINE#         1004
  C:43C9H         LINE#         1005
  C:43CEH         LINE#         1006
  C:43D1H         LINE#         1007
  C:43D9H         LINE#         1008
  C:43D9H         LINE#         1009
  C:43DFH         LINE#         1010
  C:43DFH         LINE#         1011
  C:43E5H         LINE#         1012
  C:43E5H         LINE#         1013
BL51 BANKED LINKER/LOCATER V6.22                                                      12/04/2018  11:32:30  PAGE 34


  C:43E8H         LINE#         1014
  C:43EEH         LINE#         1015
  C:43F0H         LINE#         1017
  C:43F0H         LINE#         1018
  C:43F3H         LINE#         1019
  C:43F8H         LINE#         1020
  C:43F8H         LINE#         1021
  C:43FAH         LINE#         1023
  C:43FAH         LINE#         1024
  C:4400H         LINE#         1025
  C:4400H         LINE#         1026
  C:4403H         LINE#         1027
  C:4409H         LINE#         1028
  C:440BH         LINE#         1030
  C:440BH         LINE#         1031
  C:440EH         LINE#         1032
  C:4413H         LINE#         1033
  C:4413H         LINE#         1035
  C:4413H         LINE#         1037
  C:4420H         LINE#         1039
  C:4422H         LINE#         1041
  C:4422H         LINE#         1043
  C:4428H         LINE#         1044
  C:4428H         LINE#         1045
  C:442BH         LINE#         1046
  C:442DH         LINE#         1048
  C:442DH         LINE#         1049
  C:4433H         LINE#         1050
  C:4433H         LINE#         1051
  C:4436H         LINE#         1052
  C:443CH         LINE#         1053
  C:443EH         LINE#         1055
  C:443EH         LINE#         1056
  C:4441H         LINE#         1057
  C:4446H         LINE#         1058
  C:4446H         LINE#         1060
  C:4446H         LINE#         1062
  C:4452H         LINE#         1064
  C:4452H         LINE#         1066
  C:4459H         LINE#         1067
  C:4459H         LINE#         1074
  C:4459H         LINE#         1075
  C:445CH         LINE#         1082
  C:445FH         LINE#         1083
  C:445FH         LINE#         1084
  C:4465H         LINE#         1085
  C:4465H         LINE#         1087
  C:4468H         LINE#         1089
  C:4468H         LINE#         1090
  C:446BH         LINE#         1092
  C:4475H         LINE#         1093
  C:4478H         LINE#         1098
  C:4486H         LINE#         1100
  C:4489H         LINE#         1102
  C:4489H         LINE#         1104
  C:4489H         LINE#         1122
  C:4489H         LINE#         1129
BL51 BANKED LINKER/LOCATER V6.22                                                      12/04/2018  11:32:30  PAGE 35


  C:44AFH         LINE#         1130
  C:44AFH         LINE#         1133
  C:44B1H         LINE#         1134
  C:44BAH         LINE#         1135
  C:44D5H         LINE#         1136
  C:44D7H         LINE#         1137
  C:44D9H         LINE#         1138
  C:44E2H         LINE#         1139
  C:44EBH         LINE#         1140
  C:44F4H         LINE#         1141
  C:44FDH         LINE#         1158
  C:44FDH         LINE#         1159
  C:4507H         LINE#         1172
  C:4507H         LINE#         1181
  C:450CH         LINE#         1183
  C:4515H         LINE#         1186
  C:453BH         LINE#         1187
  C:453BH         LINE#         1189
  C:453DH         LINE#         1190
  C:4541H         LINE#         1191
  C:4545H         LINE#         1192
  C:4549H         LINE#         1193
  C:454DH         LINE#         1194
  C:4551H         LINE#         1195
  C:4558H         LINE#         1196
  C:455CH         LINE#         1197
  C:4567H         LINE#         1199
  C:4567H         LINE#         1200
  C:4567H         LINE#         1201
  C:4567H         LINE#         1229
  C:456CH         LINE#         1231
  -------         ENDPROC       _MONITOR_SET
  -------         PROC          _PWM_SET
  D:0003H         SYMBOL        val
  -------         DO            
  D:0007H         SYMBOL        Error
  D:0002H         SYMBOL        ch
  D:0006H         SYMBOL        set_val
  -------         ENDDO         
  C:77DBH         LINE#         1235
  C:77DDH         LINE#         1236
  C:77DDH         LINE#         1238
  C:77E0H         LINE#         1240
  C:77ECH         LINE#         1241
  C:77ECH         LINE#         1242
  C:77F6H         LINE#         1243
  C:7800H         LINE#         1246
  C:7805H         LINE#         1252
  C:7807H         LINE#         1253
  C:7807H         LINE#         1255
  C:7807H         LINE#         1256
  -------         ENDPROC       _PWM_SET
  -------         PROC          TEMP_CHECK
  -------         DO            
  D:0002H         SYMBOL        val
  -------         ENDDO         
  C:6F1FH         LINE#         1260
BL51 BANKED LINKER/LOCATER V6.22                                                      12/04/2018  11:32:30  PAGE 36


  C:6F1FH         LINE#         1261
  C:6F1FH         LINE#         1262
  C:6F22H         LINE#         1266
  C:6F44H         LINE#         1267
  C:6F47H         LINE#         1268
  C:6F4BH         LINE#         1275
  C:6F5FH         LINE#         1277
  C:6F66H         LINE#         1279
  C:6F78H         LINE#         1314
  -------         ENDPROC       TEMP_CHECK
  -------         PROC          PRESS_CHECK
  -------         DO            
  X:0006H         SYMBOL        val
  X:0008H         SYMBOL        loop
  X:0009H         SYMBOL        temp_val
  -------         ENDDO         
  C:5C8DH         LINE#         1319
  C:5C8DH         LINE#         1320
  C:5C8DH         LINE#         1329
  C:5C90H         LINE#         1330
  C:5C90H         LINE#         1341
  C:5C9AH         LINE#         1342
  C:5CA7H         LINE#         1344
  C:5CB2H         LINE#         1345
  C:5CBAH         LINE#         1357
  C:5CE1H         LINE#         1412
  C:5CF8H         LINE#         1413
  C:5CFBH         LINE#         1419
  C:5D14H         LINE#         1420
  C:5D14H         LINE#         1421
  C:5D1EH         LINE#         1422
  C:5D20H         LINE#         1423
  C:5D33H         LINE#         1427
  C:5D50H         LINE#         1428
  C:5D61H         LINE#         1429
  C:5D72H         LINE#         1430
  C:5D78H         LINE#         1480
  -------         ENDPROC       PRESS_CHECK
  -------         PROC          VERSION_CHECK
  -------         DO            
  X:000CH         SYMBOL        loop
  -------         ENDDO         
  C:6FD2H         LINE#         1483
  C:6FD2H         LINE#         1484
  C:6FD2H         LINE#         1489
  C:6FD2H         LINE#         1490
  C:6FD2H         LINE#         1491
  C:6FD8H         LINE#         1492
  C:6FDCH         LINE#         1493
  C:6FE0H         LINE#         1495
  C:6FE3H         LINE#         1496
  C:6FE3H         LINE#         1497
  C:6FE3H         LINE#         1498
  C:6FE6H         LINE#         1504
  C:6FF4H         LINE#         1505
  C:7007H         LINE#         1510
  C:7016H         LINE#         1511
BL51 BANKED LINKER/LOCATER V6.22                                                      12/04/2018  11:32:30  PAGE 37


  C:7016H         LINE#         1512
  C:701EH         LINE#         1514
  C:7026H         LINE#         1516
  -------         ENDPROC       VERSION_CHECK
  -------         PROC          CAMERA_VERSION_CHECK
  -------         DO            
  X:000CH         SYMBOL        loop
  -------         ENDDO         
  C:6DFFH         LINE#         1518
  C:6DFFH         LINE#         1519
  C:6DFFH         LINE#         1523
  C:6DFFH         LINE#         1524
  C:6DFFH         LINE#         1525
  C:6E05H         LINE#         1526
  C:6E0DH         LINE#         1527
  C:6E15H         LINE#         1529
  C:6E1CH         LINE#         1530
  C:6E1CH         LINE#         1531
  C:6E1CH         LINE#         1532
  C:6E1FH         LINE#         1538
  C:6E2DH         LINE#         1539
  C:6E40H         LINE#         1544
  C:6E4FH         LINE#         1545
  C:6E4FH         LINE#         1546
  C:6E57H         LINE#         1548
  C:6E5FH         LINE#         1550
  -------         ENDPROC       CAMERA_VERSION_CHECK
  -------         ENDMOD        MAIN

  -------         MODULE        OSD_GRAPH
  C:0000H         SYMBOL        _ICE_DUMMY_
  D:0080H         PUBLIC        P0
  D:0090H         PUBLIC        P1
  D:00A0H         PUBLIC        P2
  D:00C0H         PUBLIC        XICON
  D:00B0H         PUBLIC        P3
  D:00E8H         PUBLIC        P4
  D:00A8H         PUBLIC        IE
  D:00B8H         PUBLIC        IP
  D:00D8H         PUBLIC        CCON
  C:1354H         PUBLIC        GRAPH16_TABLE
  C:7C3BH         PUBLIC        _PCT_PreSetGraphAttr
  D:00C0H         PUBLIC        WDTC
  D:0098H         PUBLIC        SCON
  D:0088H         PUBLIC        TCON
  C:002EH         PUBLIC        GRAPH_TABLE
  C:4FD3H         PUBLIC        _PCT_OSD16x16GraphX
  C:7C35H         PUBLIC        PCT_ClearGraphAttr
  X:0355H         PUBLIC        graphattr
  D:00F8H         PUBLIC        IPA
  C:6E60H         PUBLIC        _PCT_ShowGraphString
  D:00C8H         PUBLIC        T2CON
  D:00D0H         PUBLIC        PSW
  C:7672H         SYMBOL        Com001D
  C:7672H         SYMBOL        L?0030
  C:7672H         SYMBOL        L?0031
  C:7675H         SYMBOL        L?0032
BL51 BANKED LINKER/LOCATER V6.22                                                      12/04/2018  11:32:30  PAGE 38


  C:7680H         SYMBOL        L?0033
  C:7683H         SYMBOL        L?0034
  C:768CH         SYMBOL        L?0035
  C:76A0H         SYMBOL        L?0039
  -------         PROC          COM001D
  -------         ENDPROC       COM001D
  -------         PROC          PCT_CLEARGRAPHATTR
  C:7C35H         LINE#         73
  C:7C35H         LINE#         74
  C:7C35H         LINE#         75
  C:7C3AH         LINE#         76
  -------         ENDPROC       PCT_CLEARGRAPHATTR
  -------         PROC          _PCT_PRESETGRAPHATTR
  D:0007H         SYMBOL        _attribute
  C:7C3BH         LINE#         82
  C:7C3BH         LINE#         83
  C:7C3BH         LINE#         84
  C:7C40H         LINE#         86
  -------         ENDPROC       _PCT_PRESETGRAPHATTR
  C:511BH         SYMBOL        L?0027
  C:5144H         SYMBOL        L?0028
  C:5157H         SYMBOL        L?0036
  C:515FH         SYMBOL        L?0037
  C:516AH         SYMBOL        L?0038
  -------         PROC          _PCT_OSD16X16GRAPHX
  X:01E7H         SYMBOL        _posx
  X:01E8H         SYMBOL        _posy
  D:0003H         SYMBOL        _indx
  -------         DO            
  X:01EAH         SYMBOL        row
  X:01EBH         SYMBOL        column
  X:01ECH         SYMBOL        cntr
  X:01EDH         SYMBOL        cntc
  X:01EEH         SYMBOL        posx
  X:01EFH         SYMBOL        graph
  -------         ENDDO         
  C:4FD3H         LINE#         92
  C:4FDEH         LINE#         93
  C:4FDEH         LINE#         97
  C:4FE6H         LINE#         98
  C:4FEEH         LINE#         99
  C:5004H         LINE#         100
  C:5010H         LINE#         101
  C:502EH         LINE#         102
  C:5034H         LINE#         103
  C:503BH         LINE#         105
  C:504EH         LINE#         106
  C:5061H         LINE#         107
  C:5072H         LINE#         108
  C:507DH         LINE#         109
  C:5088H         LINE#         110
  C:5096H         LINE#         111
  C:50A1H         LINE#         112
  C:50ABH         LINE#         114
  C:50B5H         LINE#         115
  C:50C0H         LINE#         117
  C:50CFH         LINE#         118
BL51 BANKED LINKER/LOCATER V6.22                                                      12/04/2018  11:32:30  PAGE 39


  C:50D2H         LINE#         119
  C:50D8H         LINE#         121
  C:50E2H         LINE#         122
  C:50E5H         LINE#         123
  C:50EBH         LINE#         125
  C:50F1H         LINE#         126
  C:50FBH         LINE#         127
  C:5103H         LINE#         128
  C:5111H         LINE#         129
  C:511AH         LINE#         130
  -------         ENDPROC       _PCT_OSD16X16GRAPHX
  -------         PROC          _PCT_SHOWGRAPHSTRING
  X:01E0H         SYMBOL        _path
  X:01E1H         SYMBOL        _addrx
  X:01E2H         SYMBOL        _addry
  X:01E3H         SYMBOL        _strptr
  -------         DO            
  X:01E6H         SYMBOL        slen
  -------         ENDDO         
  C:6E60H         LINE#         136
  C:6E6BH         LINE#         137
  C:6E6BH         LINE#         140
  C:6E77H         LINE#         141
  C:6E7EH         LINE#         142
  C:6E85H         LINE#         143
  C:6E85H         LINE#         144
  C:6E9AH         LINE#         145
  C:6EA0H         LINE#         146
  C:6EAAH         LINE#         147
  C:6EB1H         LINE#         148
  C:6EB6H         LINE#         149
  C:6EB8H         LINE#         150
  C:6EB8H         LINE#         151
  C:6EBDH         LINE#         152
  C:6EBDH         LINE#         153
  C:6EC0H         LINE#         155
  -------         ENDPROC       _PCT_SHOWGRAPHSTRING
  -------         ENDMOD        OSD_GRAPH

  -------         MODULE        OSDACTION_
  C:0000H         SYMBOL        _ICE_DUMMY_
  C:7116H         PUBLIC        PCT_InitialOSD
  C:73F8H         PUBLIC        PCT_ShowModeIcon
  D:0080H         PUBLIC        P0
  D:0090H         PUBLIC        P1
  D:00A0H         PUBLIC        P2
  D:00C0H         PUBLIC        XICON
  D:00B0H         PUBLIC        P3
  D:00E8H         PUBLIC        P4
  C:7C25H         PUBLIC        PCT_EnfalshVLoss
  C:79C2H         PUBLIC        camstr
  D:00A8H         PUBLIC        IE
  D:00B8H         PUBLIC        IP
  C:5463H         PUBLIC        _PCT_ShowIndicateIcon
  C:79DFH         PUBLIC        SPEAKICON
  D:00D8H         PUBLIC        CCON
  X:0356H         PUBLIC        VlossCount
BL51 BANKED LINKER/LOCATER V6.22                                                      12/04/2018  11:32:30  PAGE 40


  D:00C0H         PUBLIC        WDTC
  D:0098H         PUBLIC        SCON
  D:0088H         PUBLIC        TCON
  B:0021H.0       PUBLIC        OSDPAGE2
  B:0021H.1       PUBLIC        OSDPAGE3
  B:0021H.2       PUBLIC        OSDPAGE4
  B:0021H.3       PUBLIC        OSDPAGE5
  D:0021H         PUBLIC        osdflage
  C:73B1H         PUBLIC        PCT_GetVideoSignalStatus
  C:79D7H         PUBLIC        indicate_icon
  C:7958H         PUBLIC        PCT_OSDActionForHS
  D:00F8H         PUBLIC        IPA
  C:79E1H         PUBLIC        msgVLOSS
  D:00C8H         PUBLIC        T2CON
  C:2EB1H         PUBLIC        _PCT_ShowMirrorIcon
  C:3B8FH         PUBLIC        _PCT_OSD_ActionPthX
  D:00D0H         PUBLIC        PSW
  C:6A6BH         SYMBOL        Com00F6
  C:6A6BH         SYMBOL        L?0247
  C:6A6BH         SYMBOL        L?0248
  C:6A6EH         SYMBOL        L?0249
  C:6A7AH         SYMBOL        L?0250
  C:6A80H         SYMBOL        L?0251
  C:6A88H         SYMBOL        L?0252
  C:6A88H         SYMBOL        L?0253
  C:6A8BH         SYMBOL        L?0254
  C:6A94H         SYMBOL        L?0255
  C:6A94H         SYMBOL        L?0256
  C:6AA3H         SYMBOL        L?0264
  C:6AA3H         SYMBOL        L?0265
  C:6AA9H         SYMBOL        L?0273
  C:6AA9H         SYMBOL        L?0274
  C:6AACH         SYMBOL        L?0275
  C:6AB5H         SYMBOL        L?0277
  C:6AB5H         SYMBOL        L?0278
  C:6ABBH         SYMBOL        L?0295
  C:6ABBH         SYMBOL        L?0296
  C:6AC1H         SYMBOL        L?0297
  C:6AC1H         SYMBOL        L?0298
  C:6AC8H         SYMBOL        L?0299
  C:6AC8H         SYMBOL        L?0300
  C:6AD0H         SYMBOL        L?0301
  C:6AD0H         SYMBOL        L?0302
  -------         PROC          COM00F6
  -------         ENDPROC       COM00F6
  C:714CH         SYMBOL        L?0288
  -------         PROC          PCT_INITIALOSD
  -------         DO            
  D:0008H         SYMBOL        page
  -------         ENDDO         
  C:7116H         LINE#         101
  C:7116H         LINE#         102
  C:7116H         LINE#         105
  C:7119H         LINE#         106
  C:711CH         LINE#         108
  C:7121H         LINE#         109
  C:7126H         LINE#         110
BL51 BANKED LINKER/LOCATER V6.22                                                      12/04/2018  11:32:30  PAGE 41


  C:7129H         LINE#         111
  C:712BH         LINE#         112
  C:712EH         LINE#         113
  C:7137H         LINE#         114
  C:713CH         LINE#         115
  C:7141H         LINE#         116
  C:7143H         LINE#         117
  C:7146H         LINE#         119
  C:714BH         LINE#         120
  -------         ENDPROC       PCT_INITIALOSD
  C:3E9BH         SYMBOL        L?0259
  C:3EA5H         SYMBOL        L?0263
  C:3EAFH         SYMBOL        L?0268
  C:3EB9H         SYMBOL        L?0271
  C:3EC1H         SYMBOL        L?0279
  C:3ECBH         SYMBOL        L?0283
  C:3ED5H         SYMBOL        L?0286
  C:3EDFH         SYMBOL        L?0290
  C:3EE9H         SYMBOL        L?0294
  C:3EF3H         SYMBOL        L?0303
  -------         PROC          _PCT_OSD_ACTIONPTHX
  X:01DDH         SYMBOL        _attr
  C:3B8FH         LINE#         127
  C:3B96H         LINE#         128
  C:3B96H         LINE#         129
  C:3B9BH         LINE#         130
  C:3BA0H         LINE#         132
  C:3BD5H         LINE#         134
  C:3BD5H         LINE#         135
  C:3BE1H         LINE#         136
  C:3BE4H         LINE#         138
  C:3BE4H         LINE#         139
  C:3BF5H         LINE#         140
  C:3C0BH         LINE#         141
  C:3C0EH         LINE#         143
  C:3C0EH         LINE#         144
  C:3C23H         LINE#         145
  C:3C39H         LINE#         146
  C:3C3CH         LINE#         148
  C:3C3CH         LINE#         149
  C:3C4BH         LINE#         150
  C:3C5DH         LINE#         151
  C:3C73H         LINE#         152
  C:3C76H         LINE#         154
  C:3C76H         LINE#         155
  C:3C76H         LINE#         157
  C:3C76H         LINE#         158
  C:3C85H         LINE#         159
  C:3C97H         LINE#         160
  C:3CADH         LINE#         161
  C:3CB0H         LINE#         163
  C:3CB0H         LINE#         164
  C:3CBFH         LINE#         165
  C:3CD1H         LINE#         166
  C:3CE7H         LINE#         167
  C:3CEAH         LINE#         169
  C:3CEAH         LINE#         170
BL51 BANKED LINKER/LOCATER V6.22                                                      12/04/2018  11:32:30  PAGE 42


  C:3CF9H         LINE#         171
  C:3D0BH         LINE#         172
  C:3D1DH         LINE#         173
  C:3D33H         LINE#         174
  C:3D36H         LINE#         177
  C:3D36H         LINE#         178
  C:3D49H         LINE#         179
  C:3D4CH         LINE#         181
  C:3D4CH         LINE#         182
  C:3D5BH         LINE#         183
  C:3D71H         LINE#         184
  C:3D74H         LINE#         186
  C:3D74H         LINE#         187
  C:3D83H         LINE#         188
  C:3D99H         LINE#         189
  C:3D9CH         LINE#         191
  C:3D9CH         LINE#         192
  C:3DB1H         LINE#         193
  C:3DC3H         LINE#         194
  C:3DD9H         LINE#         195
  C:3DDCH         LINE#         197
  C:3DDCH         LINE#         198
  C:3DDCH         LINE#         200
  C:3DDCH         LINE#         201
  C:3DEBH         LINE#         202
  C:3DFDH         LINE#         203
  C:3E13H         LINE#         204
  C:3E16H         LINE#         206
  C:3E16H         LINE#         207
  C:3E25H         LINE#         208
  C:3E37H         LINE#         209
  C:3E4AH         LINE#         210
  C:3E4DH         LINE#         212
  C:3E4DH         LINE#         213
  C:3E5EH         LINE#         214
  C:3E70H         LINE#         215
  C:3E82H         LINE#         216
  C:3E9AH         LINE#         217
  C:3E9AH         LINE#         219
  C:3E9AH         LINE#         220
  C:3E9AH         LINE#         221
  C:3E9AH         LINE#         222
  -------         ENDPROC       _PCT_OSD_ACTIONPTHX
  -------         PROC          PCT_ENFALSHVLOSS
  C:7C25H         LINE#         228
  C:7C25H         LINE#         229
  C:7C25H         LINE#         230
  C:7C2CH         LINE#         231
  -------         ENDPROC       PCT_ENFALSHVLOSS
  -------         PROC          PCT_GETVIDEOSIGNALSTATUS
  C:73B1H         LINE#         237
  C:73B1H         LINE#         238
  C:73B1H         LINE#         242
  C:73C2H         LINE#         244
  C:73C9H         LINE#         250
  C:73CBH         LINE#         251
  C:73E2H         LINE#         253
BL51 BANKED LINKER/LOCATER V6.22                                                      12/04/2018  11:32:30  PAGE 43


  C:73E7H         LINE#         254
  C:73ECH         LINE#         256
  C:73EFH         LINE#         258
  C:73F7H         LINE#         259
  -------         ENDPROC       PCT_GETVIDEOSIGNALSTATUS
  C:5587H         SYMBOL        L?0262
  C:55A0H         SYMBOL        L?0280
  C:55B9H         SYMBOL        L?0304
  -------         PROC          _PCT_SHOWINDICATEICON
  X:01DDH         SYMBOL        _attr
  -------         DO            
  D:0008H         SYMBOL        iconid
  -------         ENDDO         
  C:5463H         LINE#         277
  C:546AH         LINE#         278
  C:546AH         LINE#         282
  C:546FH         LINE#         283
  C:549EH         LINE#         285
  C:549EH         LINE#         286
  C:549EH         LINE#         287
  C:54A7H         LINE#         288
  C:54A9H         LINE#         289
  C:54A9H         LINE#         290
  C:54A9H         LINE#         291
  C:54ACH         LINE#         292
  C:54ACH         LINE#         293
  C:54ACH         LINE#         294
  C:54AFH         LINE#         296
  C:54AFH         LINE#         297
  C:54AFH         LINE#         299
  C:54B8H         LINE#         300
  C:54BAH         LINE#         301
  C:54BAH         LINE#         302
  C:54C3H         LINE#         303
  C:54C5H         LINE#         304
  C:54CBH         LINE#         305
  C:54CBH         LINE#         308
  C:54D7H         LINE#         309
  C:54D9H         LINE#         310
  C:54D9H         LINE#         311
  C:54D9H         LINE#         312
  C:54DCH         LINE#         317
  C:54DCH         LINE#         318
  C:54DCH         LINE#         320
  C:54E5H         LINE#         321
  C:54E7H         LINE#         322
  C:54E7H         LINE#         323
  C:54F0H         LINE#         324
  C:54F2H         LINE#         325
  C:54F8H         LINE#         326
  C:54F8H         LINE#         329
  C:5504H         LINE#         330
  C:5506H         LINE#         331
  C:5506H         LINE#         332
  C:5506H         LINE#         333
  C:5509H         LINE#         334
  C:5509H         LINE#         335
BL51 BANKED LINKER/LOCATER V6.22                                                      12/04/2018  11:32:30  PAGE 44


  C:5509H         LINE#         336
  C:550CH         LINE#         338
  C:550CH         LINE#         339
  C:550CH         LINE#         341
  C:5515H         LINE#         342
  C:5517H         LINE#         343
  C:5517H         LINE#         344
  C:5521H         LINE#         345
  C:5524H         LINE#         346
  C:552BH         LINE#         347
  C:552BH         LINE#         348
  C:552EH         LINE#         350
  C:552EH         LINE#         351
  C:552EH         LINE#         352
  C:552EH         LINE#         354
  C:552EH         LINE#         355
  C:552EH         LINE#         357
  C:5537H         LINE#         358
  C:5539H         LINE#         359
  C:5539H         LINE#         360
  C:5543H         LINE#         361
  C:5545H         LINE#         362
  C:5548H         LINE#         363
  C:5548H         LINE#         365
  C:554AH         LINE#         367
  C:554AH         LINE#         368
  C:554AH         LINE#         370
  C:5556H         LINE#         371
  C:5558H         LINE#         372
  C:5561H         LINE#         373
  C:557CH         LINE#         374
  C:557CH         LINE#         375
  C:5586H         LINE#         376
  C:5586H         LINE#         377
  C:5586H         LINE#         379
  C:5586H         LINE#         380
  C:5586H         LINE#         381
  C:5586H         LINE#         383
  C:5586H         LINE#         384
  C:5586H         LINE#         385
  C:5586H         LINE#         386
  -------         ENDPROC       _PCT_SHOWINDICATEICON
  C:3264H         SYMBOL        L?0257
  C:326FH         SYMBOL        L?0258
  C:3279H         SYMBOL        L?0260
  C:3283H         SYMBOL        L?0261
  C:328EH         SYMBOL        L?0266
  C:3299H         SYMBOL        L?0267
  C:32A3H         SYMBOL        L?0269
  C:32ADH         SYMBOL        L?0270
  C:32B8H         SYMBOL        L?0272
  C:32C3H         SYMBOL        L?0276
  C:32CDH         SYMBOL        L?0281
  C:32D8H         SYMBOL        L?0282
  C:32E2H         SYMBOL        L?0284
  C:32EDH         SYMBOL        L?0285
  C:32F7H         SYMBOL        L?0287
BL51 BANKED LINKER/LOCATER V6.22                                                      12/04/2018  11:32:30  PAGE 45


  C:3303H         SYMBOL        L?0289
  C:330EH         SYMBOL        L?0291
  C:3318H         SYMBOL        L?0292
  C:3322H         SYMBOL        L?0305
  C:332CH         SYMBOL        L?0306
  -------         PROC          _PCT_SHOWMIRRORICON
  X:01DDH         SYMBOL        _attr
  C:2EB1H         LINE#         396
  C:2EB8H         LINE#         397
  C:2EB8H         LINE#         398
  C:2EBDH         LINE#         399
  C:2EF2H         LINE#         401
  C:2EF2H         LINE#         403
  C:2EFEH         LINE#         404
  C:2EFEH         LINE#         405
  C:2F01H         LINE#         406
  C:2F01H         LINE#         407
  C:2F01H         LINE#         408
  C:2F04H         LINE#         410
  C:2F04H         LINE#         412
  C:2F10H         LINE#         413
  C:2F16H         LINE#         414
  C:2F18H         LINE#         415
  C:2F1BH         LINE#         416
  C:2F1BH         LINE#         418
  C:2F27H         LINE#         419
  C:2F27H         LINE#         420
  C:2F2AH         LINE#         421
  C:2F2AH         LINE#         422
  C:2F2AH         LINE#         423
  C:2F2DH         LINE#         425
  C:2F2DH         LINE#         427
  C:2F39H         LINE#         428
  C:2F3FH         LINE#         429
  C:2F41H         LINE#         430
  C:2F44H         LINE#         431
  C:2F44H         LINE#         434
  C:2F50H         LINE#         435
  C:2F50H         LINE#         436
  C:2F53H         LINE#         437
  C:2F53H         LINE#         438
  C:2F53H         LINE#         440
  C:2F56H         LINE#         442
  C:2F56H         LINE#         444
  C:2F62H         LINE#         445
  C:2F68H         LINE#         446
  C:2F6AH         LINE#         447
  C:2F6DH         LINE#         448
  C:2F6DH         LINE#         451
  C:2F79H         LINE#         452
  C:2F7FH         LINE#         453
  C:2F81H         LINE#         454
  C:2F84H         LINE#         455
  C:2F84H         LINE#         458
  C:2F90H         LINE#         459
  C:2F90H         LINE#         460
  C:2F93H         LINE#         461
BL51 BANKED LINKER/LOCATER V6.22                                                      12/04/2018  11:32:30  PAGE 46


  C:2F93H         LINE#         462
  C:2F93H         LINE#         463
  C:2F96H         LINE#         465
  C:2F96H         LINE#         466
  C:2F96H         LINE#         468
  C:2F96H         LINE#         470
  C:2FA2H         LINE#         471
  C:2FA8H         LINE#         472
  C:2FAAH         LINE#         473
  C:2FADH         LINE#         474
  C:2FADH         LINE#         477
  C:2FB9H         LINE#         478
  C:2FBFH         LINE#         479
  C:2FC1H         LINE#         480
  C:2FC4H         LINE#         481
  C:2FC4H         LINE#         484
  C:2FD0H         LINE#         485
  C:2FD0H         LINE#         486
  C:2FD3H         LINE#         487
  C:2FD3H         LINE#         488
  C:2FD3H         LINE#         489
  C:2FD6H         LINE#         491
  C:2FD6H         LINE#         493
  C:2FE2H         LINE#         494
  C:2FE8H         LINE#         495
  C:2FEAH         LINE#         496
  C:2FEDH         LINE#         497
  C:2FEDH         LINE#         500
  C:2FF9H         LINE#         501
  C:2FFFH         LINE#         502
  C:3001H         LINE#         503
  C:3004H         LINE#         504
  C:3004H         LINE#         507
  C:3010H         LINE#         508
  C:3015H         LINE#         509
  C:3018H         LINE#         510
  C:301CH         LINE#         511
  C:301CH         LINE#         512
  C:301FH         LINE#         514
  C:301FH         LINE#         516
  C:302BH         LINE#         517
  C:3031H         LINE#         518
  C:3033H         LINE#         519
  C:3036H         LINE#         520
  C:3036H         LINE#         523
  C:3042H         LINE#         524
  C:3048H         LINE#         525
  C:304AH         LINE#         526
  C:304DH         LINE#         527
  C:304DH         LINE#         530
  C:3059H         LINE#         531
  C:305FH         LINE#         532
  C:3061H         LINE#         533
  C:3064H         LINE#         534
  C:3064H         LINE#         537
  C:3070H         LINE#         538
  C:3075H         LINE#         539
BL51 BANKED LINKER/LOCATER V6.22                                                      12/04/2018  11:32:30  PAGE 47


  C:3078H         LINE#         540
  C:307CH         LINE#         541
  C:307CH         LINE#         542
  C:307FH         LINE#         545
  C:307FH         LINE#         547
  C:308BH         LINE#         548
  C:3090H         LINE#         549
  C:3092H         LINE#         550
  C:3097H         LINE#         551
  C:3097H         LINE#         552
  C:3099H         LINE#         554
  C:3099H         LINE#         556
  C:30A5H         LINE#         557
  C:30ABH         LINE#         558
  C:30ADH         LINE#         559
  C:30B0H         LINE#         560
  C:30B0H         LINE#         562
  C:30BCH         LINE#         563
  C:30C3H         LINE#         564
  C:30C6H         LINE#         565
  C:30CEH         LINE#         566
  C:30CEH         LINE#         567
  C:30D1H         LINE#         569
  C:30D1H         LINE#         571
  C:30DDH         LINE#         572
  C:30E3H         LINE#         573
  C:30E5H         LINE#         574
  C:30E8H         LINE#         575
  C:30E8H         LINE#         578
  C:30F4H         LINE#         579
  C:30FBH         LINE#         580
  C:30FEH         LINE#         581
  C:3101H         LINE#         582
  C:3101H         LINE#         584
  C:3104H         LINE#         586
  C:3104H         LINE#         588
  C:3110H         LINE#         589
  C:3116H         LINE#         590
  C:3118H         LINE#         591
  C:311BH         LINE#         592
  C:311BH         LINE#         595
  C:3127H         LINE#         596
  C:312DH         LINE#         597
  C:312FH         LINE#         598
  C:3137H         LINE#         599
  C:3137H         LINE#         602
  C:3143H         LINE#         603
  C:314AH         LINE#         604
  C:314DH         LINE#         605
  C:3155H         LINE#         606
  C:3155H         LINE#         607
  C:3158H         LINE#         609
  C:3158H         LINE#         610
  C:3158H         LINE#         612
  C:3158H         LINE#         614
  C:3164H         LINE#         615
  C:316AH         LINE#         616
BL51 BANKED LINKER/LOCATER V6.22                                                      12/04/2018  11:32:30  PAGE 48


  C:316CH         LINE#         617
  C:316FH         LINE#         618
  C:316FH         LINE#         621
  C:317BH         LINE#         622
  C:3181H         LINE#         623
  C:3183H         LINE#         624
  C:3186H         LINE#         625
  C:3186H         LINE#         628
  C:3192H         LINE#         629
  C:3199H         LINE#         630
  C:319CH         LINE#         631
  C:31A1H         LINE#         632
  C:31A1H         LINE#         633
  C:31A4H         LINE#         635
  C:31A4H         LINE#         637
  C:31B0H         LINE#         638
  C:31B6H         LINE#         639
  C:31B8H         LINE#         640
  C:31BBH         LINE#         641
  C:31BBH         LINE#         644
  C:31C7H         LINE#         645
  C:31CDH         LINE#         646
  C:31CFH         LINE#         647
  C:31D5H         LINE#         648
  C:31D5H         LINE#         651
  C:31E1H         LINE#         652
  C:31E8H         LINE#         653
  C:31EBH         LINE#         654
  C:31F3H         LINE#         655
  C:31F3H         LINE#         656
  C:31F6H         LINE#         658
  C:31F6H         LINE#         660
  C:3202H         LINE#         661
  C:3208H         LINE#         662
  C:320AH         LINE#         663
  C:320DH         LINE#         664
  C:320DH         LINE#         667
  C:3219H         LINE#         668
  C:321FH         LINE#         669
  C:3221H         LINE#         670
  C:3227H         LINE#         671
  C:3227H         LINE#         674
  C:3233H         LINE#         675
  C:3239H         LINE#         676
  C:323BH         LINE#         677
  C:3243H         LINE#         678
  C:3243H         LINE#         681
  C:324FH         LINE#         682
  C:325BH         LINE#         683
  C:325BH         LINE#         684
  C:3263H         LINE#         685
  C:3263H         LINE#         686
  C:3263H         LINE#         688
  C:3263H         LINE#         689
  C:3263H         LINE#         690
  C:3263H         LINE#         691
  -------         ENDPROC       _PCT_SHOWMIRRORICON
BL51 BANKED LINKER/LOCATER V6.22                                                      12/04/2018  11:32:30  PAGE 49


  C:742CH         SYMBOL        L?0293
  -------         PROC          PCT_SHOWMODEICON
  C:73F8H         LINE#         1145
  C:73F8H         LINE#         1146
  C:73F8H         LINE#         1147
  C:73FDH         LINE#         1149
  C:7408H         LINE#         1150
  C:7408H         LINE#         1151
  C:7408H         LINE#         1152
  C:7408H         LINE#         1153
  C:7408H         LINE#         1154
  C:7411H         LINE#         1155
  C:7411H         LINE#         1156
  C:7413H         LINE#         1158
  C:7413H         LINE#         1159
  C:7413H         LINE#         1160
  C:7413H         LINE#         1161
  C:7426H         LINE#         1162
  C:742BH         LINE#         1163
  C:742BH         LINE#         1165
  C:742BH         LINE#         1166
  C:742BH         LINE#         1167
  C:742BH         LINE#         1168
  -------         ENDPROC       PCT_SHOWMODEICON
  -------         PROC          PCT_OSDACTIONFORHS
  C:7958H         LINE#         1174
  C:7958H         LINE#         1175
  C:7958H         LINE#         1176
  C:795DH         LINE#         1177
  C:7964H         LINE#         1179
  C:796DH         LINE#         1181
  C:7976H         LINE#         1184
  C:7976H         LINE#         1185
  C:7979H         LINE#         1186
  -------         ENDPROC       PCT_OSDACTIONFORHS
  -------         ENDMOD        OSDACTION_

  -------         MODULE        OSDCTRL
  C:0000H         SYMBOL        _ICE_DUMMY_
  D:0080H         PUBLIC        P0
  D:0090H         PUBLIC        P1
  D:00A0H         PUBLIC        P2
  C:16F8H         PUBLIC        FONT_TABLE
  D:00C0H         PUBLIC        XICON
  D:00B0H         PUBLIC        P3
  D:00E8H         PUBLIC        P4
  C:60EDH         PUBLIC        _PCT_FullColorOnOSD
  C:76AAH         PUBLIC        _PCT_EnShowOSDPage
  D:00A8H         PUBLIC        IE
  D:0017H         PUBLIC        backColor
  D:00B8H         PUBLIC        IP
  D:00D8H         PUBLIC        CCON
  C:7C4DH         PUBLIC        _PCT_PreSetBackgroundColor
  C:5F3CH         PUBLIC        _PCT_ClearWordsPathX
  D:0018H         PUBLIC        foreColor
  D:00C0H         PUBLIC        WDTC
  D:0098H         PUBLIC        SCON
BL51 BANKED LINKER/LOCATER V6.22                                                      12/04/2018  11:32:30  PAGE 50


  D:0088H         PUBLIC        TCON
  C:0026H         PUBLIC        _PCT_PreSetForegroundColor
  C:585AH         PUBLIC        PCT_InitOSDColor
  B:0022H.0       PUBLIC        DAT_BIT0
  B:0022H.1       PUBLIC        DAT_BIT1
  B:0022H.2       PUBLIC        DAT_BIT2
  B:0022H.3       PUBLIC        DAT_BIT3
  B:0022H.4       PUBLIC        DAT_BIT4
  B:0022H.5       PUBLIC        DAT_BIT5
  B:0022H.6       PUBLIC        DAT_BIT6
  B:0022H.7       PUBLIC        DAT_BIT7
  D:00F8H         PUBLIC        IPA
  C:6F79H         PUBLIC        _PCT_SetOSDColor
  D:00C8H         PUBLIC        T2CON
  C:7A02H         PUBLIC        _PCT_SetOSDDrawPage
  C:7A58H         PUBLIC        _PCT_ClearOSDPageX
  C:7716H         PUBLIC        _PCT_DisShowOSDPage
  D:00D0H         PUBLIC        PSW
  D:0022H         PUBLIC        bitdat
  C:6B41H         SYMBOL        Com001C
  C:6B41H         SYMBOL        L?0029
  C:6B44H         SYMBOL        L?0030
  C:6B47H         SYMBOL        L?0031
  C:6B48H         SYMBOL        L?0032
  C:6B4FH         SYMBOL        L?0033
  C:6B5AH         SYMBOL        L?0034
  C:6B61H         SYMBOL        L?0042
  C:6B65H         SYMBOL        L?0043
  C:6B6DH         SYMBOL        L?0044
  C:6B81H         SYMBOL        L?0046
  C:6B84H         SYMBOL        L?0047
  C:6B8CH         SYMBOL        L?0048
  C:6B8CH         SYMBOL        L?0049
  C:6B95H         SYMBOL        L?0050
  C:6B95H         SYMBOL        L?0051
  C:6B9CH         SYMBOL        L?0052
  -------         PROC          COM001C
  -------         ENDPROC       COM001C
  -------         PROC          _PCT_PRESETFOREGROUNDCOLOR
  D:0007H         SYMBOL        _color
  C:0026H         LINE#         82
  C:0026H         LINE#         83
  C:0026H         LINE#         84
  C:0028H         LINE#         86
  -------         ENDPROC       _PCT_PRESETFOREGROUNDCOLOR
  -------         PROC          _PCT_PRESETBACKGROUNDCOLOR
  D:0007H         SYMBOL        _color
  C:7C4DH         LINE#         92
  C:7C4DH         LINE#         93
  C:7C4DH         LINE#         94
  C:7C4FH         LINE#         96
  -------         ENDPROC       _PCT_PRESETBACKGROUNDCOLOR
  C:6FCAH         SYMBOL        L?0045
  -------         PROC          _PCT_SETOSDCOLOR
  X:01D5H         SYMBOL        _pth
  X:01D6H         SYMBOL        _col_num
  D:0003H         SYMBOL        _y
BL51 BANKED LINKER/LOCATER V6.22                                                      12/04/2018  11:32:30  PAGE 51


  X:01D8H         SYMBOL        _cb
  X:01D9H         SYMBOL        _cr
  C:6F79H         LINE#         102
  C:6F81H         LINE#         103
  C:6F81H         LINE#         104
  C:6F8BH         LINE#         105
  C:6F98H         LINE#         106
  C:6FA9H         LINE#         107
  C:6FB0H         LINE#         108
  C:6FB6H         LINE#         110
  C:6FC9H         LINE#         111
  -------         ENDPROC       _PCT_SETOSDCOLOR
  C:595AH         SYMBOL        L?0024
  C:5965H         SYMBOL        L?0025
  C:5970H         SYMBOL        L?0026
  C:5979H         SYMBOL        L?0027
  C:5982H         SYMBOL        L?0035
  C:598BH         SYMBOL        L?0038
  -------         PROC          PCT_INITOSDCOLOR
  C:585AH         LINE#         117
  C:585AH         LINE#         118
  C:585AH         LINE#         119
  C:5869H         LINE#         120
  C:5874H         LINE#         121
  C:5879H         LINE#         122
  C:5887H         LINE#         123
  C:5893H         LINE#         125
  C:589EH         LINE#         126
  C:58A6H         LINE#         127
  C:58B4H         LINE#         128
  C:58C0H         LINE#         129
  C:58CCH         LINE#         130
  C:58D8H         LINE#         131
  C:58E4H         LINE#         132
  C:58F0H         LINE#         133
  C:58FEH         LINE#         134
  C:5910H         LINE#         135
  C:5923H         LINE#         136
  C:5936H         LINE#         137
  C:5948H         LINE#         138
  C:5954H         LINE#         140
  C:5957H         LINE#         141
  C:5959H         LINE#         142
  -------         ENDPROC       PCT_INITOSDCOLOR
  -------         PROC          _PCT_SETOSDDRAWPAGE
  X:01DDH         SYMBOL        _page
  C:7A02H         LINE#         148
  C:7A06H         LINE#         149
  C:7A06H         LINE#         150
  C:7A1BH         LINE#         151
  -------         ENDPROC       _PCT_SETOSDDRAWPAGE
  C:76CBH         SYMBOL        L?0041
  -------         PROC          _PCT_ENSHOWOSDPAGE
  X:01DDH         SYMBOL        _page
  C:76AAH         LINE#         158
  C:76AFH         LINE#         159
  C:76AFH         LINE#         160
BL51 BANKED LINKER/LOCATER V6.22                                                      12/04/2018  11:32:30  PAGE 52


  C:76B7H         LINE#         161
  C:76BAH         LINE#         162
  C:76BCH         LINE#         163
  C:76BEH         LINE#         164
  C:76C2H         LINE#         165
  C:76CAH         LINE#         166
  C:76CAH         LINE#         167
  -------         ENDPROC       _PCT_ENSHOWOSDPAGE
  -------         PROC          _PCT_DISSHOWOSDPAGE
  X:01DDH         SYMBOL        _bit
  -------         DO            
  X:01DEH         SYMBOL        dat
  -------         ENDDO         
  C:7716H         LINE#         173
  C:771AH         LINE#         174
  C:771AH         LINE#         176
  C:772CH         LINE#         177
  -------         ENDPROC       _PCT_DISSHOWOSDPAGE
  C:61AEH         SYMBOL        L?0036
  C:61B6H         SYMBOL        L?0039
  -------         PROC          _PCT_FULLCOLORONOSD
  X:01DDH         SYMBOL        _posx
  X:01DEH         SYMBOL        _posy
  X:01E0H         SYMBOL        _wide
  X:01E1H         SYMBOL        _high
  C:60EDH         LINE#         186
  C:60F0H         LINE#         187
  C:60F0H         LINE#         188
  C:60FBH         LINE#         189
  C:6103H         LINE#         190
  C:610BH         LINE#         191
  C:6113H         LINE#         193
  C:611AH         LINE#         194
  C:612FH         LINE#         195
  C:613EH         LINE#         196
  C:6159H         LINE#         198
  C:6163H         LINE#         199
  C:616CH         LINE#         200
  C:617BH         LINE#         201
  C:618AH         LINE#         202
  C:6197H         LINE#         204
  C:61A3H         LINE#         205
  C:61ADH         LINE#         206
  -------         ENDPROC       _PCT_FULLCOLORONOSD
  -------         PROC          _PCT_CLEAROSDPAGEX
  D:0007H         SYMBOL        _page
  C:7A58H         LINE#         208
  C:7A58H         LINE#         209
  C:7A58H         LINE#         210
  C:7A5BH         LINE#         212
  C:7A60H         LINE#         213
  -------         ENDPROC       _PCT_CLEAROSDPAGEX
  C:6006H         SYMBOL        L?0037
  C:600EH         SYMBOL        L?0040
  -------         PROC          _PCT_CLEARWORDSPATHX
  X:01E0H         SYMBOL        _posx
  X:01E1H         SYMBOL        _posy
BL51 BANKED LINKER/LOCATER V6.22                                                      12/04/2018  11:32:30  PAGE 53


  X:01E3H         SYMBOL        _len
  -------         DO            
  X:01E4H         SYMBOL        wide
  X:01E5H         SYMBOL        high
  -------         ENDDO         
  C:5F3CH         LINE#         306
  C:5F3FH         LINE#         307
  C:5F3FH         LINE#         311
  C:5F4AH         LINE#         312
  C:5F52H         LINE#         313
  C:5F5AH         LINE#         314
  C:5F62H         LINE#         316
  C:5F6AH         LINE#         317
  C:5F6DH         LINE#         318
  C:5F7DH         LINE#         319
  C:5F89H         LINE#         321
  C:5F9DH         LINE#         322
  C:5FB1H         LINE#         324
  C:5FBBH         LINE#         325
  C:5FC4H         LINE#         326
  C:5FD3H         LINE#         327
  C:5FE2H         LINE#         328
  C:5FEFH         LINE#         330
  C:5FFBH         LINE#         331
  C:6005H         LINE#         332
  -------         ENDPROC       _PCT_CLEARWORDSPATHX
  -------         ENDMOD        OSDCTRL

  -------         MODULE        TIMER
  C:0000H         SYMBOL        _ICE_DUMMY_
  D:0080H         PUBLIC        P0
  D:0090H         PUBLIC        P1
  D:00A0H         PUBLIC        P2
  D:00C0H         PUBLIC        XICON
  D:00B0H         PUBLIC        P3
  C:7BF8H         PUBLIC        InitialTimer0
  D:00E8H         PUBLIC        P4
  C:7A21H         PUBLIC        InitialTimer2
  B:00A8H.7       PUBLIC        EA
  C:7BB4H         PUBLIC        Timer0_interrupt
  C:5E5FH         PUBLIC        Timer2_interrupt
  D:00A8H         PUBLIC        IE
  D:00B8H         PUBLIC        IP
  D:00D8H         PUBLIC        CCON
  D:00C0H         PUBLIC        WDTC
  D:0098H         PUBLIC        SCON
  D:0088H         PUBLIC        TCON
  D:0025H         PUBLIC        user_timer
  B:0088H.5       PUBLIC        TF0
  B:00A8H.5       PUBLIC        ET2
  B:00C8H.7       PUBLIC        TF2
  D:008CH         PUBLIC        TH0
  D:00CDH         PUBLIC        TH2
  D:008AH         PUBLIC        TL0
  D:00CCH         PUBLIC        TL2
  B:00B8H.5       PUBLIC        PT2
  B:0088H.4       PUBLIC        TR0
BL51 BANKED LINKER/LOCATER V6.22                                                      12/04/2018  11:32:30  PAGE 54


  B:00C8H.2       PUBLIC        TR2
  D:00F8H         PUBLIC        IPA
  D:00C9H         PUBLIC        T2MOD
  D:00C8H         PUBLIC        T2CON
  D:00D0H         PUBLIC        PSW
  -------         PROC          INITIALTIMER0
  C:7BF8H         LINE#         70
  C:7BF8H         LINE#         82
  C:7BFAH         LINE#         89
  C:7BFDH         LINE#         101
  C:7C00H         LINE#         109
  -------         ENDPROC       INITIALTIMER0
  -------         PROC          INITIALTIMER2
  -------         DO            
  D:0007H         SYMBOL        i
  -------         ENDDO         
  C:7A21H         LINE#         113
  C:7A21H         LINE#         114
  C:7A21H         LINE#         117
  C:7A23H         LINE#         118
  C:7A25H         LINE#         119
  C:7A27H         LINE#         120
  C:7A2AH         LINE#         121
  C:7A2DH         LINE#         123
  C:7A2FH         LINE#         124
  C:7A32H         LINE#         125
  C:7A34H         LINE#         127
  C:7A34H         LINE#         128
  C:7A3DH         LINE#         130
  -------         ENDPROC       INITIALTIMER2
  -------         PROC          TIMER0_INTERRUPT
  C:7BB4H         LINE#         141
  C:7BB4H         LINE#         144
  C:7BB6H         LINE#         145
  C:7BB9H         LINE#         146
  C:7BBCH         LINE#         147
  C:7BBEH         LINE#         155
  C:7BC0H         LINE#         156
  -------         ENDPROC       TIMER0_INTERRUPT
  -------         PROC          TIMER2_INTERRUPT
  C:5E5FH         LINE#         160
  C:5E67H         LINE#         163
  C:5E69H         LINE#         164
  C:5E6CH         LINE#         165
  C:5E6FH         LINE#         170
  C:5E71H         LINE#         174
  C:5E86H         LINE#         175
  C:5E9BH         LINE#         176
  C:5EB0H         LINE#         178
  C:5EC5H         LINE#         180
  C:5EDAH         LINE#         181
  C:5EEFH         LINE#         183
  C:5F0AH         LINE#         184
  C:5F25H         LINE#         190
  C:5F31H         LINE#         191
  C:5F33H         LINE#         192
  -------         ENDPROC       TIMER2_INTERRUPT
BL51 BANKED LINKER/LOCATER V6.22                                                      12/04/2018  11:32:30  PAGE 55


  -------         ENDMOD        TIMER

  -------         MODULE        TW28XX_AUDIO
  C:0000H         SYMBOL        _ICE_DUMMY_
  D:0080H         PUBLIC        P0
  D:0090H         PUBLIC        P1
  D:00A0H         PUBLIC        P2
  D:00C0H         PUBLIC        XICON
  D:00B0H         PUBLIC        P3
  D:00E8H         PUBLIC        P4
  D:00A8H         PUBLIC        IE
  D:00B8H         PUBLIC        IP
  D:00D8H         PUBLIC        CCON
  D:00C0H         PUBLIC        WDTC
  D:0098H         PUBLIC        SCON
  D:0088H         PUBLIC        TCON
  D:00F8H         PUBLIC        IPA
  D:00C8H         PUBLIC        T2CON
  D:00D0H         PUBLIC        PSW
  -------         ENDMOD        TW28XX_AUDIO

  -------         MODULE        TW28XX_VIDEO
  C:0000H         SYMBOL        _ICE_DUMMY_
  D:0080H         PUBLIC        P0
  D:0090H         PUBLIC        P1
  D:00A0H         PUBLIC        P2
  D:00C0H         PUBLIC        XICON
  D:00B0H         PUBLIC        P3
  D:00E8H         PUBLIC        P4
  C:36A6H         PUBLIC        VidoW2_ModifyACHM
  C:74C5H         PUBLIC        _PCT_WinAttrCtrlY
  C:369AH         PUBLIC        VidoW2_ModifyACNM
  C:7162H         PUBLIC        _PCT_DetectVideoFormat
  D:00A8H         PUBLIC        IE
  C:368AH         PUBLIC        Video_HDelay
  C:36BEH         PUBLIC        VidoW2_ModifyRBHM
  C:5719H         PUBLIC        _PCT_RecompenseYHdelay
  D:00B8H         PUBLIC        IP
  C:36B2H         PUBLIC        VidoW2_ModifyRBNM
  C:3757H         PUBLIC        XWinAttr_RegAddr
  D:00D8H         PUBLIC        CCON
  C:3777H         PUBLIC        YWinAttr_RegAddr
  C:366CH         PUBLIC        Video_HDelayInit
  C:4594H         PUBLIC        _PCT_SetVideoHDelay
  C:7638H         PUBLIC        _PCT_WinAttrCtrl
  C:6647H         PUBLIC        _PCT_SetChanelScale
  D:00C0H         PUBLIC        WDTC
  D:0098H         PUBLIC        SCON
  D:0088H         PUBLIC        TCON
  C:4E30H         PUBLIC        _PCT_SetXVideoMixing
  C:7AE5H         PUBLIC        _PCT_SetYVideoMixing
  C:36D6H         PUBLIC        Init_Vido_Y
  C:36CAH         PUBLIC        VidoW2_ModifyACHM_PAL
  D:00F8H         PUBLIC        IPA
  D:00C8H         PUBLIC        T2CON
  C:3336H         PUBLIC        Init_Vido_W1
  C:33A8H         PUBLIC        Init_Vido_W2
BL51 BANKED LINKER/LOCATER V6.22                                                      12/04/2018  11:32:30  PAGE 56


  C:3432H         PUBLIC        Init_Vido_W3
  C:3767H         PUBLIC        XWinPOP_RegAddr
  C:35FAH         PUBLIC        Init_Vido_W4
  D:00D0H         PUBLIC        PSW
  C:5994H         SYMBOL        Com0060
  C:5994H         SYMBOL        L?0097
  C:5994H         SYMBOL        L?0098
  C:59ACH         SYMBOL        L?0099
  C:59ADH         SYMBOL        L?0100
  C:59B0H         SYMBOL        L?0101
  C:59B6H         SYMBOL        L?0102
  C:59BAH         SYMBOL        L?0103
  C:59BDH         SYMBOL        L?0104
  C:59C6H         SYMBOL        L?0112
  C:59C6H         SYMBOL        L?0113
  C:59C9H         SYMBOL        L?0114
  C:59CCH         SYMBOL        L?0115
  C:59D3H         SYMBOL        L?0116
  C:59D3H         SYMBOL        L?0117
  C:59D7H         SYMBOL        L?0118
  C:59E0H         SYMBOL        L?0119
  C:59E3H         SYMBOL        L?0120
  C:59E6H         SYMBOL        L?0121
  C:59F2H         SYMBOL        L?0122
  C:59F2H         SYMBOL        L?0123
  C:59F7H         SYMBOL        L?0124
  C:59FAH         SYMBOL        L?0125
  C:5A02H         SYMBOL        L?0127
  C:5A05H         SYMBOL        L?0128
  C:5A09H         SYMBOL        L?0129
  C:5A0CH         SYMBOL        L?0130
  C:5A14H         SYMBOL        L?0133
  C:5A14H         SYMBOL        L?0134
  C:5A17H         SYMBOL        L?0135
  C:5A1FH         SYMBOL        L?0136
  C:5A28H         SYMBOL        L?0137
  C:5A34H         SYMBOL        L?0139
  C:5A53H         SYMBOL        L?0142
  C:5A53H         SYMBOL        L?0143
  C:5A56H         SYMBOL        L?0144
  C:5A5FH         SYMBOL        L?0150
  C:5A5FH         SYMBOL        L?0151
  C:5A66H         SYMBOL        L?0153
  C:5A66H         SYMBOL        L?0154
  C:5A6EH         SYMBOL        L?0156
  C:5A78H         SYMBOL        L?0157
  C:5A78H         SYMBOL        L?0158
  C:5A7EH         SYMBOL        L?0159
  C:5A7EH         SYMBOL        L?0160
  C:5A85H         SYMBOL        L?0161
  C:5A85H         SYMBOL        L?0162
  C:5A8BH         SYMBOL        L?0163
  C:5A8BH         SYMBOL        L?0164
  C:5A92H         SYMBOL        L?0165
  -------         PROC          COM0060
  -------         ENDPROC       COM0060
  -------         PROC          _PCT_DETECTVIDEOFORMAT
BL51 BANKED LINKER/LOCATER V6.22                                                      12/04/2018  11:32:30  PAGE 57


  X:01D5H         SYMBOL        _ch
  -------         DO            
  X:01D6H         SYMBOL        tmpSta
  -------         ENDDO         
  C:7162H         LINE#         77
  C:7167H         LINE#         78
  C:7167H         LINE#         84
  C:716AH         LINE#         86
  C:7177H         LINE#         87
  C:718AH         LINE#         90
  C:7191H         LINE#         91
  C:7194H         LINE#         92
  C:719BH         LINE#         93
  C:71A1H         LINE#         94
  C:71ACH         LINE#         105
  -------         ENDPROC       _PCT_DETECTVIDEOFORMAT
  C:66A6H         SYMBOL        L?0111
  -------         PROC          _PCT_SETCHANELSCALE
  D:0007H         SYMBOL        _ch
  X:01E4H         SYMBOL        datptr
  -------         DO            
  C:377FH         SYMBOL        ScaleRgeAddr
  X:01E7H         SYMBOL        addrptr
  X:01EAH         SYMBOL        value
  -------         ENDDO         
  C:6647H         LINE#         133
  C:664EH         LINE#         134
  C:664EH         LINE#         146
  C:665EH         LINE#         147
  C:6672H         LINE#         148
  C:6677H         LINE#         149
  C:6677H         LINE#         150
  C:6680H         LINE#         151
  C:668AH         LINE#         152
  C:669DH         LINE#         153
  C:669DH         LINE#         154
  C:66A6H         LINE#         155
  -------         ENDPROC       _PCT_SETCHANELSCALE
  C:47A9H         SYMBOL        L?0105
  C:47C6H         SYMBOL        L?0106
  C:47E3H         SYMBOL        L?0107
  C:4800H         SYMBOL        L?0108
  C:4818H         SYMBOL        L?0109
  C:4832H         SYMBOL        L?0110
  C:4847H         SYMBOL        L?0126
  C:4858H         SYMBOL        L?0132
  C:4864H         SYMBOL        L?0140
  C:4870H         SYMBOL        L?0141
  C:4881H         SYMBOL        L?0148
  -------         PROC          _PCT_SETVIDEOHDELAY
  D:0007H         SYMBOL        _typ
  X:01DEH         SYMBOL        _winch
  X:01E1H         SYMBOL        _cattr
  -------         DO            
  X:01E4H         SYMBOL        hdelay
  -------         ENDDO         
  C:4594H         LINE#         158
BL51 BANKED LINKER/LOCATER V6.22                                                      12/04/2018  11:32:30  PAGE 58


  C:459BH         LINE#         159
  C:459BH         LINE#         167
  C:45C7H         LINE#         168
  C:45C7H         LINE#         169
  C:45C7H         LINE#         175
  C:45CDH         LINE#         176
  C:45D6H         LINE#         177
  C:45E3H         LINE#         178
  C:45E9H         LINE#         180
  C:45EBH         LINE#         184
  C:45ECH         LINE#         192
  C:45EEH         LINE#         194
  C:45EEH         LINE#         195
  C:45EEH         LINE#         209
  C:45EEH         LINE#         211
  C:45EEH         LINE#         212
  C:45EEH         LINE#         214
  C:45EEH         LINE#         215
  C:45F7H         LINE#         223
  C:4605H         LINE#         227
  C:4605H         LINE#         228
  C:4605H         LINE#         233
  C:4613H         LINE#         235
  C:4616H         LINE#         237
  C:4616H         LINE#         238
  C:4616H         LINE#         240
  C:461CH         LINE#         241
  C:4625H         LINE#         242
  C:462DH         LINE#         243
  C:4633H         LINE#         245
  C:4633H         LINE#         246
  C:463FH         LINE#         247
  C:4647H         LINE#         248
  C:464DH         LINE#         250
  C:4650H         LINE#         251
  C:4659H         LINE#         252
  C:4664H         LINE#         253
  C:466EH         LINE#         254
  C:4671H         LINE#         256
  C:4671H         LINE#         257
  C:4671H         LINE#         258
  C:4671H         LINE#         260
  C:4671H         LINE#         261
  C:4671H         LINE#         264
  C:4671H         LINE#         265
  C:467AH         LINE#         266
  C:4682H         LINE#         267
  C:4688H         LINE#         269
  C:4688H         LINE#         270
  C:4688H         LINE#         271
  C:4690H         LINE#         272
  C:4696H         LINE#         274
  C:4699H         LINE#         275
  C:46A2H         LINE#         276
  C:46ADH         LINE#         277
  C:46B7H         LINE#         278
  C:46BAH         LINE#         280
BL51 BANKED LINKER/LOCATER V6.22                                                      12/04/2018  11:32:30  PAGE 59


  C:46BAH         LINE#         281
  C:46BAH         LINE#         284
  C:46BAH         LINE#         285
  C:46C3H         LINE#         286
  C:46D1H         LINE#         287
  C:46DDH         LINE#         289
  C:46DDH         LINE#         290
  C:46DDH         LINE#         291
  C:46E5H         LINE#         292
  C:46F1H         LINE#         294
  C:46F1H         LINE#         295
  C:46FDH         LINE#         296
  C:470BH         LINE#         297
  C:4715H         LINE#         298
  C:4718H         LINE#         300
  C:4718H         LINE#         301
  C:4718H         LINE#         304
  C:4718H         LINE#         305
  C:4721H         LINE#         306
  C:472FH         LINE#         307
  C:473BH         LINE#         309
  C:473BH         LINE#         310
  C:473BH         LINE#         311
  C:4743H         LINE#         312
  C:474FH         LINE#         314
  C:474FH         LINE#         315
  C:475BH         LINE#         316
  C:4766H         LINE#         317
  C:4770H         LINE#         319
  C:4773H         LINE#         320
  C:477CH         LINE#         321
  C:4794H         LINE#         322
  C:47A8H         LINE#         323
  C:47A8H         LINE#         325
  C:47A8H         LINE#         326
  C:47A8H         LINE#         327
  C:47A8H         LINE#         328
  -------         ENDPROC       _PCT_SETVIDEOHDELAY
  C:4FB0H         SYMBOL        L?0146
  C:4FB7H         SYMBOL        L?0147
  C:4FC2H         SYMBOL        L?0149
  C:4FCCH         SYMBOL        L?0166
  -------         PROC          _PCT_SETXVIDEOMIXING
  X:01DDH         SYMBOL        _typ
  X:01DEH         SYMBOL        _winch
  -------         DO            
  X:01E1H         SYMBOL        wregptr
  -------         ENDDO         
  C:4E30H         LINE#         331
  C:4E3AH         LINE#         332
  C:4E3AH         LINE#         336
  C:4E48H         LINE#         337
  C:4E56H         LINE#         338
  C:4E6BH         LINE#         339
  C:4E80H         LINE#         348
  C:4EB7H         LINE#         349
  C:4EB7H         LINE#         350
BL51 BANKED LINKER/LOCATER V6.22                                                      12/04/2018  11:32:30  PAGE 60


  C:4EB7H         LINE#         354
  C:4EC7H         LINE#         355
  C:4ED0H         LINE#         356
  C:4ED0H         LINE#         357
  C:4ED3H         LINE#         359
  C:4ED3H         LINE#         360
  C:4ED3H         LINE#         361
  C:4ED3H         LINE#         362
  C:4ED3H         LINE#         363
  C:4EE3H         LINE#         364
  C:4EE5H         LINE#         366
  C:4EF1H         LINE#         368
  C:4EFDH         LINE#         370
  C:4F02H         LINE#         371
  C:4F05H         LINE#         373
  C:4F05H         LINE#         374
  C:4F05H         LINE#         375
  C:4F05H         LINE#         376
  C:4F05H         LINE#         377
  C:4F05H         LINE#         378
  C:4F05H         LINE#         379
  C:4F05H         LINE#         380
  C:4F05H         LINE#         381
  C:4F15H         LINE#         382
  C:4F17H         LINE#         384
  C:4F23H         LINE#         385
  C:4F2FH         LINE#         386
  C:4F44H         LINE#         387
  C:4F49H         LINE#         388
  C:4F4CH         LINE#         390
  C:4F4CH         LINE#         391
  C:4F4CH         LINE#         392
  C:4F5CH         LINE#         393
  C:4F68H         LINE#         394
  C:4F78H         LINE#         395
  C:4F8BH         LINE#         396
  C:4FA1H         LINE#         397
  C:4FAFH         LINE#         398
  C:4FAFH         LINE#         400
  C:4FAFH         LINE#         401
  C:4FAFH         LINE#         402
  C:4FAFH         LINE#         403
  -------         ENDPROC       _PCT_SETXVIDEOMIXING
  -------         PROC          _PCT_SETYVIDEOMIXING
  D:0007H         SYMBOL        _typ
  C:7AE5H         LINE#         409
  C:7AE5H         LINE#         410
  C:7AE5H         LINE#         411
  -------         ENDPROC       _PCT_SETYVIDEOMIXING
  C:5823H         SYMBOL        L?0131
  C:582FH         SYMBOL        L?0138
  C:583BH         SYMBOL        L?0145
  C:5847H         SYMBOL        L?0152
  C:584EH         SYMBOL        L?0155
  -------         PROC          _PCT_RECOMPENSEYHDELAY
  X:01DDH         SYMBOL        _chmiro
  C:5719H         LINE#         415
BL51 BANKED LINKER/LOCATER V6.22                                                      12/04/2018  11:32:30  PAGE 61


  C:5720H         LINE#         416
  C:5720H         LINE#         417
  C:574DH         LINE#         418
  C:574DH         LINE#         420
  C:575EH         LINE#         421
  C:5768H         LINE#         422
  C:5779H         LINE#         423
  C:5783H         LINE#         424
  C:5794H         LINE#         425
  C:57A1H         LINE#         426
  C:57B5H         LINE#         427
  C:57B5H         LINE#         428
  C:57B8H         LINE#         430
  C:57B8H         LINE#         431
  C:57C9H         LINE#         432
  C:57D0H         LINE#         433
  C:57D3H         LINE#         435
  C:57D3H         LINE#         436
  C:57E1H         LINE#         437
  C:57E8H         LINE#         438
  C:57EAH         LINE#         440
  C:57EAH         LINE#         441
  C:57FBH         LINE#         442
  C:5802H         LINE#         443
  C:5804H         LINE#         445
  C:5804H         LINE#         446
  C:5815H         LINE#         447
  C:5822H         LINE#         448
  C:5822H         LINE#         449
  C:5822H         LINE#         450
  -------         ENDPROC       _PCT_RECOMPENSEYHDELAY
  -------         PROC          _PCT_WINATTRCTRL
  X:01DDH         SYMBOL        _wid
  X:01DEH         SYMBOL        _attrsel
  X:01DFH         SYMBOL        _setval
  -------         DO            
  D:0004H         SYMBOL        dat
  -------         ENDDO         
  C:7638H         LINE#         501
  C:7645H         LINE#         502
  C:7645H         LINE#         508
  C:764FH         LINE#         509
  C:7661H         LINE#         510
  -------         ENDPROC       _PCT_WINATTRCTRL
  -------         PROC          _PCT_WINATTRCTRLY
  X:01DDH         SYMBOL        _wid
  X:01DEH         SYMBOL        _attrsel
  X:01DFH         SYMBOL        _setval
  -------         DO            
  D:0004H         SYMBOL        dat
  -------         ENDDO         
  C:74C5H         LINE#         519
  C:74D2H         LINE#         520
  C:74D2H         LINE#         525
  C:74DFH         LINE#         526
  C:74F1H         LINE#         527
  -------         ENDPROC       _PCT_WINATTRCTRLY
BL51 BANKED LINKER/LOCATER V6.22                                                      12/04/2018  11:32:30  PAGE 62


  -------         ENDMOD        TW28XX_VIDEO

  -------         MODULE        TW2835_INIT
  C:0000H         SYMBOL        _ICE_DUMMY_
  D:0080H         PUBLIC        P0
  D:0090H         PUBLIC        P1
  D:00A0H         PUBLIC        P2
  D:00C0H         PUBLIC        XICON
  D:00B0H         PUBLIC        P3
  D:00E8H         PUBLIC        P4
  D:00A8H         PUBLIC        IE
  C:378FH         PUBLIC        TW2835_Page0
  C:398FH         PUBLIC        TW2835_Page1
  C:7482H         PUBLIC        PCT_InitialTW2835
  D:00B8H         PUBLIC        IP
  C:7B21H         PUBLIC        PCT_TW2835ResetN
  D:00D8H         PUBLIC        CCON
  D:00C0H         PUBLIC        WDTC
  D:0098H         PUBLIC        SCON
  D:0088H         PUBLIC        TCON
  C:6C73H         PUBLIC        _PCT_ChangeSystemType
  D:00F8H         PUBLIC        IPA
  D:00C8H         PUBLIC        T2CON
  B:00E8H.0       PUBLIC        RSTn
  C:6BA8H         PUBLIC        PCT_TW2835_Initial
  D:00D0H         PUBLIC        PSW
  C:7A8BH         SYMBOL        Com000C
  C:7A8BH         SYMBOL        L?0013
  C:7A94H         SYMBOL        L?0014
  -------         PROC          COM000C
  -------         ENDPROC       COM000C
  -------         PROC          PCT_INITIALTW2835
  C:7482H         LINE#         77
  C:7482H         LINE#         78
  C:7482H         LINE#         79
  C:7485H         LINE#         80
  C:748AH         LINE#         83
  C:748FH         LINE#         84
  C:7497H         LINE#         86
  C:74A5H         LINE#         87
  C:74A5H         LINE#         88
  C:74AFH         LINE#         92
  C:74B1H         LINE#         93
  C:74B1H         LINE#         95
  C:74B8H         LINE#         100
  C:74BAH         LINE#         101
  C:74BFH         LINE#         103
  C:74C2H         LINE#         105
  -------         ENDPROC       PCT_INITIALTW2835
  -------         PROC          PCT_TW2835RESETN
  -------         DO            
  D:0006H         SYMBOL        _delay
  -------         ENDDO         
  C:7B21H         LINE#         113
  C:7B21H         LINE#         114
  C:7B21H         LINE#         129
  C:7B23H         LINE#         132
BL51 BANKED LINKER/LOCATER V6.22                                                      12/04/2018  11:32:30  PAGE 63


  C:7B31H         LINE#         134
  C:7B33H         LINE#         138
  -------         ENDPROC       PCT_TW2835RESETN
  C:6C03H         SYMBOL        L?0015
  -------         PROC          PCT_TW2835_INITIAL
  -------         DO            
  X:01D5H         SYMBOL        offset
  -------         ENDDO         
  C:6BA8H         LINE#         144
  C:6BA8H         LINE#         145
  C:6BA8H         LINE#         148
  C:6BB3H         LINE#         149
  C:6BBFH         LINE#         150
  C:6BD1H         LINE#         152
  C:6BE8H         LINE#         154
  C:6C03H         LINE#         155
  -------         ENDPROC       PCT_TW2835_INITIAL
  C:6CCBH         SYMBOL        L?0016
  -------         PROC          _PCT_CHANGESYSTEMTYPE
  D:0007H         SYMBOL        _sys
  -------         DO            
  X:0006H         SYMBOL        offset
  -------         ENDDO         
  C:6C73H         LINE#         161
  C:6C73H         LINE#         162
  C:6C73H         LINE#         165
  C:6C7BH         LINE#         166
  C:6C87H         LINE#         168
  C:6C9AH         LINE#         170
  C:6CB0H         LINE#         171
  C:6CCBH         LINE#         172
  -------         ENDPROC       _PCT_CHANGESYSTEMTYPE
  -------         ENDMOD        TW2835_INIT

  -------         MODULE        NED
  C:0000H         SYMBOL        _ICE_DUMMY_
  X:020BH         PUBLIC        SC16_Com
  C:7C41H         PUBLIC        _GPIOGetPortState
  D:0080H         PUBLIC        P0
  D:0090H         PUBLIC        P1
  C:75FDH         PUBLIC        _SC16_data_reset
  D:00A0H         PUBLIC        P2
  C:7545H         PUBLIC        Sent_DVR_temp
  D:00C0H         PUBLIC        XICON
  D:00B0H         PUBLIC        P3
  X:0214H         PUBLIC        Camera_move_loop
  D:00E8H         PUBLIC        P4
  X:0215H         PUBLIC        DVR_temp
  X:0217H         PUBLIC        Cam_startup_flag
  C:7369H         PUBLIC        _Set_Video
  C:788CH         PUBLIC        Get_DVR_temp
  C:69F8H         PUBLIC        _Bound_Set
  C:7B96H         PUBLIC        _Sent_Camera_IRD
  C:7C0AH         PUBLIC        _GPIOSetPortState
  C:7B68H         PUBLIC        _Power_onoff
  X:0218H         PUBLIC        Camera_press0
  D:00A8H         PUBLIC        IE
BL51 BANKED LINKER/LOCATER V6.22                                                      12/04/2018  11:32:30  PAGE 64


  X:0219H         PUBLIC        Camera_press1
  C:7C01H         PUBLIC        _GPIOSetPortMode
  X:021AH         PUBLIC        Camera_press2
  X:021BH         PUBLIC        Camera_press3
  C:6D3BH         PUBLIC        GPIO_check
  B:00A0H.0       PUBLIC        P2_0
  X:021CH         PUBLIC        Cam_Com
  B:00A0H.1       PUBLIC        P2_1
  C:71F8H         PUBLIC        Sent_Camera_RAng
  B:00A0H.2       PUBLIC        P2_2
  C:7C47H         PUBLIC        _ReadByte
  C:68FFH         PUBLIC        SC16_init
  B:00E8H.1       PUBLIC        P4_1
  B:00A0H.3       PUBLIC        P2_3
  X:0221H         PUBLIC        Camera_temp0
  B:00E8H.2       PUBLIC        P4_2
  X:0222H         PUBLIC        Camera_RAng
  X:0226H         PUBLIC        Camera_temp1
  B:00B0H.4       PUBLIC        P3_4
  B:00A0H.5       PUBLIC        P2_5
  B:00B0H.5       PUBLIC        P3_5
  B:00A0H.6       PUBLIC        P2_6
  X:0227H         PUBLIC        data_flag
  X:0228H         PUBLIC        GPIO_current
  C:7860H         PUBLIC        Get_Camera_RAng
  D:00B8H         PUBLIC        IP
  X:0229H         PUBLIC        DVR_ver
  X:022CH         PUBLIC        Com_flag
  X:022DH         PUBLIC        Com_addr
  D:00C6H         PUBLIC        ADCV
  X:022EH         PUBLIC        SC16_busy_flag
  X:0230H         PUBLIC        peek_flag
  D:00D8H         PUBLIC        CCON
  X:0231H         PUBLIC        SC16_com_buff
  C:7C13H         PUBLIC        _WriteByte
  X:023AH         PUBLIC        Cam_boot_flag
  X:023BH         PUBLIC        DVR_Y
  C:78E2H         PUBLIC        I2CReadDataWithACK
  C:728DH         PUBLIC        Send_Camera_Press
  X:023FH         PUBLIC        Camera_ver0
  X:0240H         PUBLIC        Camera_ver1
  X:0241H         PUBLIC        Camera_ver2
  D:0087H         PUBLIC        PCON
  X:0242H         PUBLIC        Com_start
  C:7C1CH         PUBLIC        MCTRL_set
  C:76E0H         PUBLIC        Send_Camera_Temp
  D:00C0H         PUBLIC        WDTC
  D:0098H         PUBLIC        SCON
  D:0088H         PUBLIC        TCON
  C:6CD7H         PUBLIC        _SetLine
  X:0243H         PUBLIC        Com_temp
  X:0244H         PUBLIC        Shrink_f
  X:0245H         PUBLIC        Back_f
  X:0246H         PUBLIC        Com_end
  C:78B8H         PUBLIC        _BCC_Cal
  C:797EH         PUBLIC        I2CReadData
  C:774AH         PUBLIC        Repeat_PWM_Com
BL51 BANKED LINKER/LOCATER V6.22                                                      12/04/2018  11:32:30  PAGE 65


  X:0247H         PUBLIC        get_data_addr
  C:777CH         PUBLIC        SC16_DataCheck
  C:7B87H         PUBLIC        _ReadI2C
  X:0248H         PUBLIC        DVR_Com_p
  C:71ADH         PUBLIC        Sent_Camera_Ang
  C:7BA5H         SYMBOL        _?ix1000
  C:7BA8H         SYMBOL        _?ix1001
  X:0249H         PUBLIC        Camera_Ang
  C:7BACH         SYMBOL        _?ix1002
  C:7BB0H         SYMBOL        _?ix1003
  X:024DH         PUBLIC        peek_buf
  C:7834H         PUBLIC        Get_Camera_Ang
  C:79E2H         PUBLIC        _ADC_read
  X:024EH         PUBLIC        Camera_flag
  C:698EH         PUBLIC        _I2CWriteData
  C:488CH         PUBLIC        _SC16_SendDataSelect
  C:7B4DH         PUBLIC        _WriteI2C
  D:008DH         PUBLIC        TH1
  X:024FH         PUBLIC        Camera_IRDA
  C:72D7H         PUBLIC        _Set_Camera_speed
  C:7B34H         PUBLIC        I2CStart
  C:7C50H         PUBLIC        I2Cdelay
  X:026BH         PUBLIC        DRP_ID
  X:0274H         PUBLIC        Com_pos
  X:0275H         PUBLIC        Monitor_current
  X:0276H         PUBLIC        Com_run
  C:000EH         PUBLIC        _ResetDevice
  D:00F8H         PUBLIC        IPA
  C:64DFH         PUBLIC        _SetBaudrate
  X:0277H         PUBLIC        Crop_f
  C:7808H         PUBLIC        Get_Camera_Ver
  X:0278H         PUBLIC        DVR_MD
  C:6597H         PUBLIC        _SC16_ComCheck
  X:027CH         PUBLIC        DVR_MH
  X:0280H         PUBLIC        DVR_startup_flag
  X:0281H         PUBLIC        get_data_val
  X:0282H         PUBLIC        Cam_Com_p
  C:5A9CH         PUBLIC        Camera_move
  C:79A1H         PUBLIC        _SC16_SendData
  C:641EH         PUBLIC        Check_other_Com
  C:7BC1H         PUBLIC        I2CStop
  D:00C8H         PUBLIC        T2CON
  X:0283H         PUBLIC        INT_flag
  C:4A79H         PUBLIC        _SC16_BCC_Check
  D:00C5H         PUBLIC        ADCTL
  D:00BEH         PUBLIC        ADCVL
  X:0284H         PUBLIC        DVR_Com
  X:0289H         PUBLIC        Monitor_state
  X:028AH         PUBLIC        OUTPUT
  X:028BH         PUBLIC        Monitor_mode
  D:00D0H         PUBLIC        PSW
  C:7505H         PUBLIC        _ReadI2CWORD
  X:028CH         PUBLIC        SC16_ComAddr
  C:61BEH         SYMBOL        Com0123
  C:61BEH         SYMBOL        L?0292
  C:61BFH         SYMBOL        L?0293
  C:61C0H         SYMBOL        L?0294
BL51 BANKED LINKER/LOCATER V6.22                                                      12/04/2018  11:32:30  PAGE 66


  C:61C1H         SYMBOL        L?0295
  C:61C4H         SYMBOL        L?0296
  C:61C5H         SYMBOL        L?0297
  C:61C7H         SYMBOL        L?0298
  C:61CFH         SYMBOL        L?0301
  C:61D0H         SYMBOL        L?0302
  C:61D3H         SYMBOL        L?0303
  C:61D6H         SYMBOL        L?0304
  C:61E0H         SYMBOL        L?0306
  C:61E0H         SYMBOL        L?0307
  C:61E5H         SYMBOL        L?0308
  C:61EDH         SYMBOL        L?0310
  C:61F7H         SYMBOL        L?0311
  C:6205H         SYMBOL        L?0312
  C:6205H         SYMBOL        L?0313
  C:6208H         SYMBOL        L?0314
  C:6212H         SYMBOL        L?0315
  C:6212H         SYMBOL        L?0316
  C:6215H         SYMBOL        L?0317
  C:621DH         SYMBOL        L?0319
  C:621DH         SYMBOL        L?0320
  C:6226H         SYMBOL        L?0325
  C:6226H         SYMBOL        L?0326
  C:6232H         SYMBOL        L?0327
  C:6236H         SYMBOL        L?0328
  C:623DH         SYMBOL        L?0332
  C:623DH         SYMBOL        L?0333
  C:6244H         SYMBOL        L?0336
  C:6250H         SYMBOL        L?0339
  C:625AH         SYMBOL        L?0341
  C:6264H         SYMBOL        L?0342
  C:626EH         SYMBOL        L?0343
  C:626EH         SYMBOL        L?0344
  C:6275H         SYMBOL        L?0345
  C:6275H         SYMBOL        L?0346
  C:627CH         SYMBOL        L?0347
  C:627CH         SYMBOL        L?0348
  C:6283H         SYMBOL        L?0349
  -------         PROC          COM0123
  -------         ENDPROC       COM0123
  -------         PROC          I2CDELAY
  C:7C50H         LINE#         122
  C:7C50H         LINE#         123
  C:7C50H         LINE#         137
  -------         ENDPROC       I2CDELAY
  -------         PROC          I2CSTART
  C:7B34H         LINE#         154
  C:7B34H         LINE#         155
  C:7B34H         LINE#         157
  C:7B39H         LINE#         158
  C:7B3EH         LINE#         159
  C:7B43H         LINE#         160
  C:7B45H         LINE#         176
  -------         ENDPROC       I2CSTART
  -------         PROC          I2CSTOP
  C:7BC1H         LINE#         187
  C:7BC1H         LINE#         188
BL51 BANKED LINKER/LOCATER V6.22                                                      12/04/2018  11:32:30  PAGE 67


  C:7BC1H         LINE#         190
  C:7BC6H         LINE#         191
  C:7BCBH         LINE#         192
  C:7BCDH         LINE#         207
  -------         ENDPROC       I2CSTOP
  -------         PROC          L?0330
  -------         ENDPROC       L?0330
  -------         PROC          _I2CWRITEDATA
  D:0007H         SYMBOL        value
  C:698EH         LINE#         217
  C:698EH         LINE#         218
  C:698EH         LINE#         220
  C:6998H         LINE#         221
  C:69A3H         LINE#         222
  C:69AEH         LINE#         223
  C:69B9H         LINE#         225
  C:69C4H         LINE#         226
  C:69CFH         LINE#         227
  C:69DAH         LINE#         228
  C:69E5H         LINE#         231
  C:69E8H         LINE#         232
  C:69EAH         LINE#         233
  C:69ECH         LINE#         234
  C:69EEH         LINE#         236
  C:69F0H         LINE#         237
  C:69F2H         LINE#         238
  C:69F2H         LINE#         239
  C:69F2H         LINE#         240
  C:69F5H         LINE#         241
  -------         ENDPROC       _I2CWRITEDATA
  -------         PROC          I2CREADDATA
  -------         DO            
  D:0004H         SYMBOL        i
  D:0007H         SYMBOL        value
  -------         ENDDO         
  C:797EH         LINE#         315
  C:797EH         LINE#         316
  C:797EH         LINE#         319
  C:797EH         LINE#         321
  C:797EH         LINE#         322
  C:797EH         LINE#         324
  C:7981H         LINE#         325
  C:7981H         LINE#         326
  C:7981H         LINE#         327
  C:7984H         LINE#         328
  C:798AH         LINE#         329
  C:798AH         LINE#         330
  C:798AH         LINE#         331
  C:798AH         LINE#         332
  C:7997H         LINE#         334
  C:799AH         LINE#         338
  C:799DH         LINE#         340
  C:79A0H         LINE#         341
  C:79A0H         LINE#         401
  -------         ENDPROC       I2CREADDATA
  -------         PROC          I2CREADDATAWITHACK
  -------         DO            
BL51 BANKED LINKER/LOCATER V6.22                                                      12/04/2018  11:32:30  PAGE 68


  D:0004H         SYMBOL        i
  D:0007H         SYMBOL        value
  -------         ENDDO         
  C:78E2H         LINE#         432
  C:78E2H         LINE#         433
  C:78E2H         LINE#         436
  C:78E2H         LINE#         438
  C:78E2H         LINE#         439
  C:78E2H         LINE#         441
  C:78E5H         LINE#         442
  C:78E5H         LINE#         443
  C:78E5H         LINE#         444
  C:78E8H         LINE#         445
  C:78EEH         LINE#         446
  C:78EEH         LINE#         447
  C:78EEH         LINE#         448
  C:78EEH         LINE#         449
  C:78FBH         LINE#         451
  C:78FDH         LINE#         455
  C:7900H         LINE#         456
  C:7902H         LINE#         457
  C:7904H         LINE#         458
  C:7904H         LINE#         459
  C:7904H         LINE#         460
  C:7907H         LINE#         461
  C:790AH         LINE#         463
  C:790AH         LINE#         499
  -------         ENDPROC       I2CREADDATAWITHACK
  -------         PROC          L?0340
  -------         ENDPROC       L?0340
  -------         PROC          _WRITEI2C
  D:0007H         SYMBOL        addr
  D:0005H         SYMBOL        index
  D:0003H         SYMBOL        val
  C:7B4DH         LINE#         535
  C:7B4DH         LINE#         536
  C:7B4DH         LINE#         539
  C:7B4DH         LINE#         540
  C:7B4DH         LINE#         541
  C:7B50H         LINE#         542
  C:7B55H         LINE#         543
  -------         ENDPROC       _WRITEI2C
  -------         PROC          _READI2C
  D:0006H         SYMBOL        addr
  D:0005H         SYMBOL        index
  -------         DO            
  D:0007H         SYMBOL        val
  -------         ENDDO         
  C:7B87H         LINE#         557
  C:7B89H         LINE#         558
  C:7B89H         LINE#         562
  C:7B89H         LINE#         563
  C:7B89H         LINE#         564
  C:7B8CH         LINE#         565
  C:7B8CH         LINE#         566
  C:7B8FH         LINE#         567
  C:7B92H         LINE#         570
BL51 BANKED LINKER/LOCATER V6.22                                                      12/04/2018  11:32:30  PAGE 69


  C:7B95H         LINE#         615
  C:7B95H         LINE#         616
  -------         ENDPROC       _READI2C
  -------         PROC          _READI2CWORD
  D:0006H         SYMBOL        addr
  D:0005H         SYMBOL        index
  -------         DO            
  X:0006H         SYMBOL        val
  -------         ENDDO         
  C:7505H         LINE#         679
  C:7507H         LINE#         680
  C:7507H         LINE#         681
  C:750EH         LINE#         683
  C:7511H         LINE#         684
  C:7514H         LINE#         686
  C:7519H         LINE#         689
  C:7519H         LINE#         690
  C:751CH         LINE#         692
  C:7527H         LINE#         693
  C:7530H         LINE#         694
  C:7539H         LINE#         695
  C:753CH         LINE#         697
  C:7544H         LINE#         698
  -------         ENDPROC       _READI2CWORD
  C:6A5FH         SYMBOL        L?0337
  -------         PROC          _BOUND_SET
  X:01D5H         SYMBOL        val
  -------         DO            
  X:01D6H         SYMBOL        Mask
  -------         ENDDO         
  C:69F8H         LINE#         717
  C:69FDH         LINE#         718
  C:69FDH         LINE#         722
  C:6A10H         LINE#         745
  C:6A20H         LINE#         746
  C:6A20H         LINE#         747
  C:6A25H         LINE#         748
  C:6A25H         LINE#         749
  C:6A27H         LINE#         750
  C:6A2CH         LINE#         751
  C:6A2CH         LINE#         752
  C:6A2EH         LINE#         753
  C:6A3AH         LINE#         754
  C:6A45H         LINE#         755
  C:6A47H         LINE#         756
  C:6A47H         LINE#         759
  C:6A4EH         LINE#         760
  C:6A53H         LINE#         761
  C:6A5EH         LINE#         762
  C:6A5EH         LINE#         763
  C:6A5EH         LINE#         782
  -------         ENDPROC       _BOUND_SET
  -------         PROC          _ADC_READ
  D:0007H         SYMBOL        sel
  C:79E2H         LINE#         815
  C:79E2H         LINE#         816
  C:79E2H         LINE#         818
BL51 BANKED LINKER/LOCATER V6.22                                                      12/04/2018  11:32:30  PAGE 70


  C:79E7H         LINE#         820
  C:79ECH         LINE#         822
  C:7A01H         LINE#         824
  -------         ENDPROC       _ADC_READ
  -------         PROC          _SET_VIDEO
  D:0007H         SYMBOL        addr
  X:000CH         SYMBOL        val
  C:7369H         LINE#         828
  C:736EH         LINE#         829
  C:736EH         LINE#         830
  C:7382H         LINE#         831
  C:7382H         LINE#         832
  C:7387H         LINE#         833
  C:7389H         LINE#         834
  C:738EH         LINE#         835
  C:7390H         LINE#         836
  C:7395H         LINE#         837
  C:7397H         LINE#         838
  C:739CH         LINE#         839
  C:739EH         LINE#         840
  C:73A3H         LINE#         841
  C:73A5H         LINE#         842
  C:73B0H         LINE#         843
  C:73B0H         LINE#         844
  C:73B0H         LINE#         845
  C:73B0H         LINE#         847
  C:73B0H         LINE#         850
  -------         ENDPROC       _SET_VIDEO
  C:7826H         SYMBOL        L?0321
  -------         PROC          GET_CAMERA_VER
  C:7808H         LINE#         875
  C:7808H         LINE#         876
  C:7808H         LINE#         877
  C:780AH         LINE#         878
  C:7812H         LINE#         879
  C:7814H         LINE#         880
  C:781CH         LINE#         881
  C:7826H         LINE#         882
  -------         ENDPROC       GET_CAMERA_VER
  -------         PROC          SEND_CAMERA_TEMP
  -------         DO            
  X:000CH         SYMBOL        loop
  -------         ENDDO         
  C:76E0H         LINE#         885
  C:76E0H         LINE#         886
  C:76E0H         LINE#         890
  C:76E0H         LINE#         891
  C:76E0H         LINE#         892
  C:76E5H         LINE#         893
  C:76EDH         LINE#         894
  C:76F0H         LINE#         895
  C:76F0H         LINE#         896
  C:76F0H         LINE#         897
  C:76F0H         LINE#         898
  C:76F6H         LINE#         900
  C:7707H         LINE#         901
  C:7707H         LINE#         902
BL51 BANKED LINKER/LOCATER V6.22                                                      12/04/2018  11:32:30  PAGE 71


  C:770DH         LINE#         903
  C:7715H         LINE#         906
  -------         ENDPROC       SEND_CAMERA_TEMP
  -------         PROC          SEND_CAMERA_PRESS
  -------         DO            
  X:000CH         SYMBOL        loop
  -------         ENDDO         
  C:728DH         LINE#         910
  C:728DH         LINE#         911
  C:728DH         LINE#         914
  C:728DH         LINE#         915
  C:728DH         LINE#         916
  C:7292H         LINE#         923
  C:729AH         LINE#         924
  C:72A2H         LINE#         925
  C:72AAH         LINE#         926
  C:72B1H         LINE#         928
  C:72B1H         LINE#         929
  C:72B7H         LINE#         931
  C:72C8H         LINE#         932
  C:72C8H         LINE#         933
  C:72CEH         LINE#         934
  C:72D6H         LINE#         938
  -------         ENDPROC       SEND_CAMERA_PRESS
  C:7852H         SYMBOL        L?0322
  -------         PROC          GET_CAMERA_ANG
  C:7834H         LINE#         941
  C:7834H         LINE#         942
  C:7834H         LINE#         943
  C:7836H         LINE#         944
  C:783EH         LINE#         945
  C:7840H         LINE#         946
  C:7848H         LINE#         947
  C:7852H         LINE#         949
  -------         ENDPROC       GET_CAMERA_ANG
  -------         PROC          SENT_CAMERA_ANG
  -------         DO            
  X:000CH         SYMBOL        loop
  -------         ENDDO         
  C:71ADH         LINE#         951
  C:71ADH         LINE#         952
  C:71ADH         LINE#         956
  C:71ADH         LINE#         957
  C:71ADH         LINE#         958
  C:71B3H         LINE#         959
  C:71BBH         LINE#         960
  C:71C3H         LINE#         961
  C:71CBH         LINE#         962
  C:71D2H         LINE#         963
  C:71D2H         LINE#         964
  C:71D8H         LINE#         966
  C:71E9H         LINE#         967
  C:71E9H         LINE#         968
  C:71EFH         LINE#         969
  C:71F7H         LINE#         971
  -------         ENDPROC       SENT_CAMERA_ANG
  C:787EH         SYMBOL        L?0323
BL51 BANKED LINKER/LOCATER V6.22                                                      12/04/2018  11:32:30  PAGE 72


  -------         PROC          GET_CAMERA_RANG
  C:7860H         LINE#         973
  C:7860H         LINE#         974
  C:7860H         LINE#         975
  C:7862H         LINE#         976
  C:786AH         LINE#         977
  C:786CH         LINE#         978
  C:7874H         LINE#         979
  C:787EH         LINE#         980
  -------         ENDPROC       GET_CAMERA_RANG
  -------         PROC          SENT_CAMERA_RANG
  -------         DO            
  X:000CH         SYMBOL        loop
  -------         ENDDO         
  C:71F8H         LINE#         982
  C:71F8H         LINE#         983
  C:71F8H         LINE#         987
  C:71F8H         LINE#         988
  C:71F8H         LINE#         989
  C:71FEH         LINE#         990
  C:7206H         LINE#         991
  C:720EH         LINE#         992
  C:7216H         LINE#         993
  C:721DH         LINE#         994
  C:721DH         LINE#         995
  C:7223H         LINE#         997
  C:7234H         LINE#         998
  C:7234H         LINE#         999
  C:723AH         LINE#         1000
  C:7242H         LINE#         1002
  -------         ENDPROC       SENT_CAMERA_RANG
  -------         PROC          _SENT_CAMERA_IRD
  X:000CH         SYMBOL        sel
  -------         DO            
  X:000DH         SYMBOL        loop
  X:000EH         SYMBOL        temp
  -------         ENDDO         
  C:7B96H         LINE#         1025
  C:7B9BH         LINE#         1026
  C:7B9BH         LINE#         1029
  C:7BA0H         LINE#         1031
  -------         ENDPROC       _SENT_CAMERA_IRD
  C:78AAH         SYMBOL        L?0324
  -------         PROC          GET_DVR_TEMP
  C:788CH         LINE#         1055
  C:788CH         LINE#         1056
  C:788CH         LINE#         1057
  C:788EH         LINE#         1058
  C:7896H         LINE#         1059
  C:7898H         LINE#         1060
  C:78A0H         LINE#         1061
  C:78AAH         LINE#         1062
  -------         ENDPROC       GET_DVR_TEMP
  -------         PROC          SENT_DVR_TEMP
  -------         DO            
  X:000CH         SYMBOL        loop
  -------         ENDDO         
BL51 BANKED LINKER/LOCATER V6.22                                                      12/04/2018  11:32:30  PAGE 73


  C:7545H         LINE#         1065
  C:7545H         LINE#         1066
  C:7545H         LINE#         1069
  C:754BH         LINE#         1070
  C:754FH         LINE#         1071
  C:7553H         LINE#         1072
  C:755BH         LINE#         1073
  C:755EH         LINE#         1074
  C:755EH         LINE#         1075
  C:755EH         LINE#         1076
  C:755EH         LINE#         1077
  C:7564H         LINE#         1079
  C:7575H         LINE#         1080
  C:7575H         LINE#         1081
  C:757BH         LINE#         1082
  C:7583H         LINE#         1085
  -------         ENDPROC       SENT_DVR_TEMP
  C:72F7H         SYMBOL        L?0309
  C:730FH         SYMBOL        L?0331
  -------         PROC          _SET_CAMERA_SPEED
  D:0007H         SYMBOL        val
  C:72D7H         LINE#         1170
  C:72D7H         LINE#         1171
  C:72D7H         LINE#         1172
  C:72DDH         LINE#         1173
  C:72DDH         LINE#         1174
  C:72DDH         LINE#         1175
  C:72E0H         LINE#         1176
  C:72E2H         LINE#         1177
  C:72E2H         LINE#         1178
  C:72E7H         LINE#         1179
  C:72E9H         LINE#         1181
  C:72E9H         LINE#         1182
  C:72E9H         LINE#         1183
  C:72ECH         LINE#         1184
  C:72EEH         LINE#         1185
  C:72EEH         LINE#         1186
  C:72F6H         LINE#         1187
  C:72F6H         LINE#         1193
  -------         ENDPROC       _SET_CAMERA_SPEED
  -------         PROC          GPIO_CHECK
  -------         DO            
  D:0007H         SYMBOL        GPIO_state
  X:0006H         SYMBOL        IO_flag
  X:0007H         SYMBOL        count
  -------         ENDDO         
  C:6D3BH         LINE#         1197
  C:6D3BH         LINE#         1198
  C:6D3BH         LINE#         1199
  C:6D44H         LINE#         1201
  C:6D4DH         LINE#         1203
  C:6D55H         LINE#         1206
  C:6D55H         LINE#         1207
  C:6D5AH         LINE#         1208
  C:6D61H         LINE#         1209
  C:6D61H         LINE#         1210
  C:6D64H         LINE#         1211
BL51 BANKED LINKER/LOCATER V6.22                                                      12/04/2018  11:32:30  PAGE 74


  C:6D68H         LINE#         1212
  C:6D6AH         LINE#         1213
  C:6D6AH         LINE#         1214
  C:6D7BH         LINE#         1215
  C:6D7BH         LINE#         1217
  C:6D7BH         LINE#         1218
  C:6D7BH         LINE#         1219
  C:6D7BH         LINE#         1220
  C:6D7DH         LINE#         1221
  C:6D80H         LINE#         1222
  C:6D80H         LINE#         1223
  C:6D82H         LINE#         1224
  C:6D82H         LINE#         1225
  C:6D85H         LINE#         1226
  C:6D88H         LINE#         1227
  C:6D8AH         LINE#         1228
  C:6D8AH         LINE#         1229
  C:6D8DH         LINE#         1230
  C:6D90H         LINE#         1231
  C:6D92H         LINE#         1232
  C:6D95H         LINE#         1233
  C:6D98H         LINE#         1234
  C:6D98H         LINE#         1235
  C:6D98H         LINE#         1238
  C:6D9DH         LINE#         1244
  -------         ENDPROC       GPIO_CHECK
  -------         PROC          _POWER_ONOFF
  D:0007H         SYMBOL        sel
  C:7B68H         LINE#         1247
  C:7B68H         LINE#         1248
  C:7B68H         LINE#         1250
  C:7B6DH         LINE#         1251
  C:7B6FH         LINE#         1252
  C:7B71H         LINE#         1253
  -------         ENDPROC       _POWER_ONOFF
  -------         PROC          SC16_INIT
  -------         DO            
  X:0006H         SYMBOL        Dev_ID
  -------         ENDDO         
  C:68FFH         LINE#         1260
  C:68FFH         LINE#         1261
  C:68FFH         LINE#         1265
  C:6901H         LINE#         1266
  C:6908H         LINE#         1267
  C:690AH         LINE#         1268
  C:6911H         LINE#         1271
  C:6920H         LINE#         1272
  C:6920H         LINE#         1273
  C:6929H         LINE#         1274
  C:6940H         LINE#         1275
  C:6953H         LINE#         1276
  C:6960H         LINE#         1277
  C:6968H         LINE#         1284
  C:6972H         LINE#         1285
  C:697CH         LINE#         1286
  C:697EH         LINE#         1287
  -------         ENDPROC       SC16_INIT
BL51 BANKED LINKER/LOCATER V6.22                                                      12/04/2018  11:32:30  PAGE 75


  -------         PROC          _SC16_SENDDATA
  X:000CH         SYMBOL        val
  -------         DO            
  X:000DH         SYMBOL        error
  -------         ENDDO         
  C:79A1H         LINE#         1291
  C:79A7H         LINE#         1292
  C:79A7H         LINE#         1293
  C:79AAH         LINE#         1306
  C:79B2H         LINE#         1311
  C:79BFH         LINE#         1322
  C:79C1H         LINE#         1324
  -------         ENDPROC       _SC16_SENDDATA
  C:4A6DH         SYMBOL        L?0329
  -------         PROC          _SC16_SENDDATASELECT
  X:0009H         SYMBOL        addr
  -------         DO            
  X:000AH         SYMBOL        loop
  X:000BH         SYMBOL        Error
  X:000CH         SYMBOL        count
  X:000DH         SYMBOL        data_temp
  X:000EH         SYMBOL        buff_flag
  X:000FH         SYMBOL        loop_temp
  X:0010H         SYMBOL        error_flag
  X:0011H         SYMBOL        etx_flag
  -------         ENDDO         
  C:488CH         LINE#         1327
  C:4891H         LINE#         1328
  C:4891H         LINE#         1330
  C:489AH         LINE#         1332
  C:48A0H         LINE#         1333
  C:48A3H         LINE#         1334
  C:48A5H         LINE#         1370
  C:48B4H         LINE#         1371
  C:48B4H         LINE#         1372
  C:48C1H         LINE#         1375
  C:48C5H         LINE#         1387
  C:48D0H         LINE#         1389
  C:48D8H         LINE#         1390
  C:48D8H         LINE#         1391
  C:48EAH         LINE#         1393
  C:48F2H         LINE#         1406
  C:48F5H         LINE#         1407
  C:4900H         LINE#         1409
  C:4914H         LINE#         1410
  C:4914H         LINE#         1412
  C:491AH         LINE#         1414
  C:4920H         LINE#         1415
  C:4931H         LINE#         1416
  C:4931H         LINE#         1419
  C:4943H         LINE#         1423
  C:4963H         LINE#         1424
  C:4963H         LINE#         1425
  C:4966H         LINE#         1430
  C:4968H         LINE#         1431
  C:496CH         LINE#         1432
  C:496CH         LINE#         1433
BL51 BANKED LINKER/LOCATER V6.22                                                      12/04/2018  11:32:30  PAGE 76


  C:4971H         LINE#         1434
  C:4982H         LINE#         1435
  C:4987H         LINE#         1437
  C:4987H         LINE#         1450
  C:498AH         LINE#         1452
  C:498DH         LINE#         1455
  C:4999H         LINE#         1456
  C:4999H         LINE#         1459
  C:499FH         LINE#         1467
  C:499FH         LINE#         1469
  C:49A8H         LINE#         1471
  C:49B1H         LINE#         1472
  C:49B1H         LINE#         1475
  C:49BCH         LINE#         1476
  C:49BCH         LINE#         1479
  C:49BFH         LINE#         1484
  C:49C4H         LINE#         1486
  C:49C7H         LINE#         1487
  C:49C7H         LINE#         1488
  C:49D4H         LINE#         1489
  C:49D4H         LINE#         1493
  C:49DFH         LINE#         1494
  C:49DFH         LINE#         1497
  C:49E2H         LINE#         1502
  C:49E7H         LINE#         1503
  C:49EAH         LINE#         1504
  C:49EAH         LINE#         1508
  C:49FCH         LINE#         1509
  C:49FCH         LINE#         1510
  C:49FFH         LINE#         1511
  C:49FFH         LINE#         1513
  C:4A05H         LINE#         1514
  C:4A05H         LINE#         1516
  C:4A0DH         LINE#         1518
  C:4A1AH         LINE#         1519
  C:4A2FH         LINE#         1521
  C:4A3BH         LINE#         1522
  C:4A3BH         LINE#         1525
  C:4A4EH         LINE#         1526
  C:4A4EH         LINE#         1529
  C:4A59H         LINE#         1537
  C:4A5FH         LINE#         1538
  C:4A64H         LINE#         1539
  C:4A64H         LINE#         1543
  C:4A67H         LINE#         1544
  C:4A67H         LINE#         1546
  C:4A6AH         LINE#         1547
  C:4A6AH         LINE#         1549
  C:4A6AH         LINE#         1575
  C:4A6AH         LINE#         1600
  C:4A6AH         LINE#         1636
  C:4A6CH         LINE#         1638
  -------         ENDPROC       _SC16_SENDDATASELECT
  C:7774H         SYMBOL        L?0334
  -------         PROC          REPEAT_PWM_COM
  C:774AH         LINE#         1648
  C:774AH         LINE#         1649
BL51 BANKED LINKER/LOCATER V6.22                                                      12/04/2018  11:32:30  PAGE 77


  C:774AH         LINE#         1650
  C:7750H         LINE#         1651
  C:7756H         LINE#         1652
  C:7760H         LINE#         1653
  C:776AH         LINE#         1654
  C:7774H         LINE#         1657
  -------         ENDPROC       REPEAT_PWM_COM
  -------         PROC          SC16_DATACHECK
  -------         DO            
  X:0006H         SYMBOL        Dev_ID
  X:0007H         SYMBOL        Error
  X:0008H         SYMBOL        count
  -------         ENDDO         
  C:777CH         LINE#         1661
  C:777CH         LINE#         1662
  C:777CH         LINE#         1664
  C:7785H         LINE#         1722
  C:778BH         LINE#         1723
  C:778BH         LINE#         1724
  C:778FH         LINE#         1726
  C:7795H         LINE#         1727
  C:7797H         LINE#         1728
  C:779EH         LINE#         1729
  C:779EH         LINE#         1730
  C:77A3H         LINE#         1732
  C:77A8H         LINE#         1733
  C:77A8H         LINE#         1741
  C:77ADH         LINE#         1742
  -------         ENDPROC       SC16_DATACHECK
  -------         PROC          _SC16_DATA_RESET
  D:0006H         SYMBOL        sel
  C:75FDH         LINE#         1745
  C:75FDH         LINE#         1746
  C:75FDH         LINE#         1760
  C:7609H         LINE#         1762
  C:7625H         LINE#         1763
  C:7625H         LINE#         1764
  C:7628H         LINE#         1765
  C:762BH         LINE#         1766
  C:762EH         LINE#         1767
  C:7631H         LINE#         1777
  C:7634H         LINE#         1778
  C:7637H         LINE#         1784
  C:7637H         LINE#         1785
  C:7637H         LINE#         1788
  -------         ENDPROC       _SC16_DATA_RESET
  C:5B2CH         SYMBOL        L?0299
  C:5B46H         SYMBOL        L?0300
  C:5B59H         SYMBOL        L?0305
  C:5B71H         SYMBOL        L?0318
  C:5B86H         SYMBOL        L?0335
  C:5B8DH         SYMBOL        L?0350
  -------         PROC          CAMERA_MOVE
  -------         DO            
  X:0006H         SYMBOL        mask
  X:000AH         SYMBOL        cam
  X:000EH         SYMBOL        BCC
BL51 BANKED LINKER/LOCATER V6.22                                                      12/04/2018  11:32:30  PAGE 78


  -------         ENDDO         
  C:5A9CH         LINE#         1792
  C:5A9CH         LINE#         1793
  C:5A9CH         LINE#         1795
  C:5AA7H         LINE#         1796
  C:5AB2H         LINE#         1797
  C:5AC1H         LINE#         1801
  C:5AC9H         LINE#         1802
  C:5AC9H         LINE#         1803
  C:5AD0H         LINE#         1804
  C:5AD0H         LINE#         1805
  C:5AD0H         LINE#         1806
  C:5AD0H         LINE#         1807
  C:5AD5H         LINE#         1808
  C:5AD5H         LINE#         1809
  C:5ADAH         LINE#         1810
  C:5AE0H         LINE#         1811
  C:5AE0H         LINE#         1813
  C:5AE7H         LINE#         1814
  C:5AE7H         LINE#         1815
  C:5AE7H         LINE#         1816
  C:5AE7H         LINE#         1817
  C:5AECH         LINE#         1818
  C:5AECH         LINE#         1819
  C:5AF1H         LINE#         1820
  C:5AF7H         LINE#         1821
  C:5AF7H         LINE#         1822
  C:5AFCH         LINE#         1823
  C:5AFDH         LINE#         1825
  C:5AFDH         LINE#         1826
  C:5B04H         LINE#         1827
  C:5B04H         LINE#         1828
  C:5B04H         LINE#         1829
  C:5B07H         LINE#         1830
  C:5B09H         LINE#         1831
  C:5B09H         LINE#         1832
  C:5B0EH         LINE#         1833
  C:5B11H         LINE#         1834
  C:5B11H         LINE#         1836
  C:5B18H         LINE#         1837
  C:5B18H         LINE#         1838
  C:5B18H         LINE#         1839
  C:5B1BH         LINE#         1840
  C:5B1DH         LINE#         1841
  C:5B1DH         LINE#         1842
  C:5B22H         LINE#         1843
  C:5B25H         LINE#         1844
  C:5B25H         LINE#         1846
  C:5B2BH         LINE#         1847
  C:5B2BH         LINE#         1862
  -------         ENDPROC       CAMERA_MOVE
  -------         PROC          _SC16_COMCHECK
  D:0001H         SYMBOL        addr
  -------         DO            
  X:0012H         SYMBOL        pos
  X:0013H         SYMBOL        temp
  -------         ENDDO         
BL51 BANKED LINKER/LOCATER V6.22                                                      12/04/2018  11:32:30  PAGE 79


  C:6597H         LINE#         1919
  C:6597H         LINE#         1920
  C:6597H         LINE#         1923
  C:659EH         LINE#         1924
  C:659FH         LINE#         1925
  C:65ADH         LINE#         1926
  C:65ADH         LINE#         1927
  C:65ADH         LINE#         1928
  C:65ADH         LINE#         1929
  C:65B5H         LINE#         1930
  C:65B5H         LINE#         1931
  C:65B6H         LINE#         1932
  C:65BCH         LINE#         1933
  C:65BCH         LINE#         1934
  C:65C2H         LINE#         1935
  C:65C2H         LINE#         1936
  C:65C8H         LINE#         1937
  C:65C8H         LINE#         1938
  C:65CFH         LINE#         1939
  C:65D5H         LINE#         1940
  C:65D8H         LINE#         1941
  C:65D8H         LINE#         1942
  C:65DDH         LINE#         1943
  C:65DDH         LINE#         1944
  C:65DEH         LINE#         1945
  C:65E4H         LINE#         1946
  C:65E4H         LINE#         1947
  C:65EAH         LINE#         1948
  C:65EAH         LINE#         1949
  C:65F0H         LINE#         1950
  C:65F0H         LINE#         1951
  C:65F7H         LINE#         1952
  C:65FDH         LINE#         1953
  C:65FFH         LINE#         1954
  C:65FFH         LINE#         1973
  C:6606H         LINE#         1974
  C:6606H         LINE#         1975
  C:6607H         LINE#         1976
  C:660DH         LINE#         1977
  C:660DH         LINE#         1978
  C:6613H         LINE#         1979
  C:6613H         LINE#         1980
  C:661AH         LINE#         1981
  C:6620H         LINE#         1982
  C:6622H         LINE#         1983
  C:6622H         LINE#         1986
  C:6622H         LINE#         1987
  C:6622H         LINE#         1988
  C:6622H         LINE#         1989
  C:6629H         LINE#         1990
  C:6629H         LINE#         1991
  C:662AH         LINE#         1992
  C:6630H         LINE#         1993
  C:6630H         LINE#         1994
  C:6637H         LINE#         1995
  C:663EH         LINE#         1996
  C:6641H         LINE#         1997
BL51 BANKED LINKER/LOCATER V6.22                                                      12/04/2018  11:32:30  PAGE 80


  C:6641H         LINE#         1998
  C:6641H         LINE#         2018
  C:6641H         LINE#         2019
  C:6644H         LINE#         2020
  C:6644H         LINE#         2021
  C:6644H         LINE#         2023
  C:6646H         LINE#         2049
  -------         ENDPROC       _SC16_COMCHECK
  -------         PROC          _BCC_CAL
  D:0001H         SYMBOL        addr
  X:000DH         SYMBOL        count
  -------         DO            
  D:0007H         SYMBOL        f_val
  X:000EH         SYMBOL        s_val
  D:0006H         SYMBOL        loop
  -------         ENDDO         
  C:78B8H         LINE#         2053
  C:78BDH         LINE#         2054
  C:78BDH         LINE#         2055
  C:78BFH         LINE#         2056
  C:78C1H         LINE#         2057
  C:78C2H         LINE#         2058
  C:78C8H         LINE#         2060
  C:78D2H         LINE#         2061
  C:78D2H         LINE#         2064
  C:78D7H         LINE#         2065
  C:78DEH         LINE#         2066
  C:78E1H         LINE#         2067
  C:78E1H         LINE#         2099
  -------         ENDPROC       _BCC_CAL
  C:4C55H         SYMBOL        L?0338
  -------         PROC          _SC16_BCC_CHECK
  D:0001H         SYMBOL        addr
  -------         DO            
  X:0006H         SYMBOL        loop
  X:0007H         SYMBOL        f_val
  X:0008H         SYMBOL        s_val
  X:0009H         SYMBOL        com
  -------         ENDDO         
  C:4A79H         LINE#         2126
  C:4A79H         LINE#         2127
  C:4A79H         LINE#         2129
  C:4A7EH         LINE#         2130
  C:4A80H         LINE#         2143
  C:4A83H         LINE#         2144
  C:4A83H         LINE#         2145
  C:4A89H         LINE#         2146
  C:4A89H         LINE#         2147
  C:4A89H         LINE#         2148
  C:4A8FH         LINE#         2149
  C:4A8FH         LINE#         2150
  C:4A8FH         LINE#         2151
  C:4A96H         LINE#         2152
  C:4A9BH         LINE#         2155
  C:4AA3H         LINE#         2156
  C:4AA3H         LINE#         2157
  C:4AA5H         LINE#         2158
BL51 BANKED LINKER/LOCATER V6.22                                                      12/04/2018  11:32:30  PAGE 81


  C:4AB0H         LINE#         2159
  C:4AB0H         LINE#         2160
  C:4AB4H         LINE#         2161
  C:4ABBH         LINE#         2162
  C:4ABBH         LINE#         2163
  C:4ABCH         LINE#         2164
  C:4AC6H         LINE#         2165
  C:4AC6H         LINE#         2166
  C:4AC9H         LINE#         2167
  C:4AC9H         LINE#         2168
  C:4ACCH         LINE#         2169
  C:4ACCH         LINE#         2170
  C:4AD4H         LINE#         2172
  C:4AD4H         LINE#         2174
  C:4AD4H         LINE#         2179
  C:4AE2H         LINE#         2180
  C:4AE2H         LINE#         2181
  C:4B02H         LINE#         2182
  C:4B02H         LINE#         2183
  C:4B07H         LINE#         2184
  C:4B0FH         LINE#         2185
  C:4B17H         LINE#         2186
  C:4B1CH         LINE#         2187
  C:4B24H         LINE#         2191
  C:4B2FH         LINE#         2192
  C:4B2FH         LINE#         2193
  C:4B36H         LINE#         2194
  C:4B3CH         LINE#         2195
  C:4B42H         LINE#         2196
  C:4B49H         LINE#         2197
  C:4B53H         LINE#         2198
  C:4B53H         LINE#         2201
  C:4B56H         LINE#         2202
  C:4B6BH         LINE#         2203
  C:4B6BH         LINE#         2204
  C:4B70H         LINE#         2205
  C:4B73H         LINE#         2207
  C:4B7FH         LINE#         2208
  C:4B7FH         LINE#         2209
  C:4B82H         LINE#         2213
  C:4B85H         LINE#         2214
  C:4B91H         LINE#         2215
  C:4B91H         LINE#         2216
  C:4B94H         LINE#         2220
  C:4B97H         LINE#         2221
  C:4BA3H         LINE#         2222
  C:4BA3H         LINE#         2223
  C:4BA6H         LINE#         2227
  C:4BA9H         LINE#         2228
  C:4BB5H         LINE#         2229
  C:4BB5H         LINE#         2230
  C:4BB8H         LINE#         2234
  C:4BBBH         LINE#         2236
  C:4BD0H         LINE#         2237
  C:4BD0H         LINE#         2238
  C:4BD5H         LINE#         2243
  C:4BD7H         LINE#         2245
BL51 BANKED LINKER/LOCATER V6.22                                                      12/04/2018  11:32:30  PAGE 82


  C:4BE3H         LINE#         2246
  C:4BE3H         LINE#         2247
  C:4BE6H         LINE#         2251
  C:4BE8H         LINE#         2252
  C:4BF4H         LINE#         2253
  C:4BF4H         LINE#         2254
  C:4BF7H         LINE#         2258
  C:4BF9H         LINE#         2259
  C:4C05H         LINE#         2260
  C:4C05H         LINE#         2261
  C:4C08H         LINE#         2265
  C:4C0AH         LINE#         2279
  C:4C0AH         LINE#         2285
  C:4C10H         LINE#         2286
  C:4C10H         LINE#         2288
  C:4C23H         LINE#         2289
  C:4C34H         LINE#         2291
  C:4C3AH         LINE#         2292
  C:4C40H         LINE#         2303
  C:4C42H         LINE#         2305
  C:4C42H         LINE#         2306
  C:4C47H         LINE#         2311
  C:4C47H         LINE#         2314
  C:4C4AH         LINE#         2315
  C:4C4AH         LINE#         2320
  C:4C4DH         LINE#         2322
  C:4C4DH         LINE#         2324
  C:4C4DH         LINE#         2325
  C:4C52H         LINE#         2329
  C:4C54H         LINE#         2330
  C:4C54H         LINE#         2334
  -------         ENDPROC       _SC16_BCC_CHECK
  -------         PROC          CHECK_OTHER_COM
  C:641EH         LINE#         2338
  C:641EH         LINE#         2339
  C:641EH         LINE#         2341
  C:6426H         LINE#         2342
  C:6426H         LINE#         2343
  C:6429H         LINE#         2344
  C:6429H         LINE#         2348
  C:6441H         LINE#         2350
  C:6445H         LINE#         2351
  C:6445H         LINE#         2352
  C:644DH         LINE#         2353
  C:644DH         LINE#         2354
  C:644FH         LINE#         2355
  C:6456H         LINE#         2356
  C:6456H         LINE#         2357
  C:645FH         LINE#         2358
  C:6464H         LINE#         2359
  C:6466H         LINE#         2361
  C:646BH         LINE#         2364
  C:646BH         LINE#         2365
  C:646DH         LINE#         2366
  C:646DH         LINE#         2368
  C:6483H         LINE#         2370
  C:6487H         LINE#         2371
BL51 BANKED LINKER/LOCATER V6.22                                                      12/04/2018  11:32:30  PAGE 83


  C:6487H         LINE#         2372
  C:648FH         LINE#         2373
  C:648FH         LINE#         2374
  C:6491H         LINE#         2375
  C:6498H         LINE#         2376
  C:6498H         LINE#         2377
  C:64A1H         LINE#         2378
  C:64A6H         LINE#         2379
  C:64A6H         LINE#         2382
  C:64A6H         LINE#         2383
  C:64A8H         LINE#         2384
  C:64A8H         LINE#         2386
  C:64BEH         LINE#         2387
  C:64BEH         LINE#         2388
  C:64C3H         LINE#         2389
  C:64D0H         LINE#         2390
  C:64D3H         LINE#         2391
  C:64D3H         LINE#         2395
  C:64D6H         LINE#         2397
  C:64D6H         LINE#         2398
  C:64D6H         LINE#         2399
  C:64D6H         LINE#         2400
  C:64D6H         LINE#         2403
  C:64D6H         LINE#         2405
  C:64D6H         LINE#         2410
  C:64D6H         LINE#         2413
  C:64D6H         LINE#         2415
  C:64D6H         LINE#         2417
  C:64D6H         LINE#         2419
  C:64D6H         LINE#         2425
  C:64D6H         LINE#         2428
  C:64D6H         LINE#         2430
  C:64D6H         LINE#         2434
  C:64D6H         LINE#         2436
  C:64DCH         LINE#         2440
  -------         ENDPROC       CHECK_OTHER_COM
  -------         PROC          _RESETDEVICE
  D:0003H         SYMBOL        addr
  -------         DO            
  D:0006H         SYMBOL        temp
  -------         ENDDO         
  C:000EH         LINE#         2534
  C:0010H         LINE#         2535
  C:0010H         LINE#         2537
  C:0017H         LINE#         2538
  C:001BH         LINE#         2539
  -------         ENDPROC       _RESETDEVICE
  -------         PROC          _SETBAUDRATE
  X:0007H         SYMBOL        addr
  X:0008H         SYMBOL        baudrate
  -------         DO            
  X:000CH         SYMBOL        divisor
  X:0010H         SYMBOL        prescaler
  D:0002H         SYMBOL        temp_lcr
  -------         ENDDO         
  C:64DFH         LINE#         2549
  C:64E4H         LINE#         2550
BL51 BANKED LINKER/LOCATER V6.22                                                      12/04/2018  11:32:30  PAGE 84


  C:64E4H         LINE#         2566
  C:64F0H         LINE#         2567
  C:64F3H         LINE#         2568
  C:64F5H         LINE#         2569
  C:64F8H         LINE#         2570
  C:64F8H         LINE#         2574
  C:6542H         LINE#         2586
  C:654EH         LINE#         2588
  C:6555H         LINE#         2590
  C:6558H         LINE#         2592
  C:655BH         LINE#         2594
  C:656DH         LINE#         2596
  C:658CH         LINE#         2603
  C:658FH         LINE#         2604
  C:6592H         LINE#         2606
  C:6596H         LINE#         2623
  -------         ENDPROC       _SETBAUDRATE
  -------         PROC          _SETLINE
  D:0002H         SYMBOL        addr
  X:0008H         SYMBOL        data_length
  D:0001H         SYMBOL        parity_select
  X:000AH         SYMBOL        stop_length
  -------         DO            
  D:0006H         SYMBOL        temp_lcr
  -------         ENDDO         
  C:6CD7H         LINE#         2625
  C:6CE0H         LINE#         2626
  C:6CE0H         LINE#         2628
  C:6CE7H         LINE#         2629
  C:6CEBH         LINE#         2634
  C:6CFBH         LINE#         2635
  C:6CFBH         LINE#         2636
  C:6CFBH         LINE#         2637
  C:6CFBH         LINE#         2638
  C:6CFFH         LINE#         2639
  C:6D01H         LINE#         2640
  C:6D01H         LINE#         2641
  C:6D05H         LINE#         2642
  C:6D07H         LINE#         2643
  C:6D07H         LINE#         2646
  C:6D07H         LINE#         2647
  C:6D0BH         LINE#         2648
  C:6D0BH         LINE#         2649
  C:6D0BH         LINE#         2651
  C:6D12H         LINE#         2652
  C:6D16H         LINE#         2653
  C:6D16H         LINE#         2655
  C:6D22H         LINE#         2656
  C:6D22H         LINE#         2657
  C:6D22H         LINE#         2658
  C:6D22H         LINE#         2659
  C:6D26H         LINE#         2660
  C:6D28H         LINE#         2661
  C:6D28H         LINE#         2662
  C:6D2CH         LINE#         2663
  C:6D2EH         LINE#         2664
  C:6D2EH         LINE#         2665
BL51 BANKED LINKER/LOCATER V6.22                                                      12/04/2018  11:32:30  PAGE 85


  C:6D32H         LINE#         2666
  C:6D32H         LINE#         2667
  C:6D32H         LINE#         2668
  C:6D32H         LINE#         2669
  C:6D32H         LINE#         2670
  C:6D32H         LINE#         2671
  C:6D32H         LINE#         2673
  -------         ENDPROC       _SETLINE
  -------         PROC          _GPIOSETPORTMODE
  D:0007H         SYMBOL        addr
  D:0005H         SYMBOL        port_io
  C:7C01H         LINE#         2721
  C:7C01H         LINE#         2722
  C:7C01H         LINE#         2724
  -------         ENDPROC       _GPIOSETPORTMODE
  -------         PROC          _GPIOSETPORTSTATE
  D:0007H         SYMBOL        addr
  D:0005H         SYMBOL        port_state
  C:7C0AH         LINE#         2729
  C:7C0AH         LINE#         2730
  C:7C0AH         LINE#         2731
  -------         ENDPROC       _GPIOSETPORTSTATE
  -------         PROC          _GPIOGETPORTSTATE
  D:0007H         SYMBOL        addr
  C:7C41H         LINE#         2734
  C:7C41H         LINE#         2735
  C:7C41H         LINE#         2740
  C:7C46H         LINE#         2742
  -------         ENDPROC       _GPIOGETPORTSTATE
  -------         PROC          _WRITEBYTE
  D:0007H         SYMBOL        addr
  D:0005H         SYMBOL        val
  C:7C13H         LINE#         2834
  C:7C13H         LINE#         2835
  C:7C13H         LINE#         2857
  -------         ENDPROC       _WRITEBYTE
  -------         PROC          _READBYTE
  D:0007H         SYMBOL        addr
  -------         DO            
  D:0007H         SYMBOL        val
  -------         ENDDO         
  C:7C47H         LINE#         2863
  C:7C47H         LINE#         2864
  C:7C47H         LINE#         2868
  C:7C4CH         LINE#         2869
  C:7C4CH         LINE#         2895
  -------         ENDPROC       _READBYTE
  -------         PROC          MCTRL_SET
  C:7C1CH         LINE#         3005
  C:7C1CH         LINE#         3006
  C:7C1CH         LINE#         3009
  C:7C1EH         LINE#         3010
  C:7C20H         LINE#         3011
  C:7C22H         LINE#         3012
  C:7C24H         LINE#         3013
  -------         ENDPROC       MCTRL_SET
  -------         ENDMOD        NED
BL51 BANKED LINKER/LOCATER V6.22                                                      12/04/2018  11:32:30  PAGE 86



  -------         MODULE        ?C?FPADD
  C:259FH         PUBLIC        ?C?FPADD
  C:259BH         PUBLIC        ?C?FPSUB
  -------         ENDMOD        ?C?FPADD

  -------         MODULE        ?C?FPMUL
  C:2690H         PUBLIC        ?C?FPMUL
  -------         ENDMOD        ?C?FPMUL

  -------         MODULE        ?C?FPDIV
  C:2799H         PUBLIC        ?C?FPDIV
  -------         ENDMOD        ?C?FPDIV

  -------         MODULE        ?C?FCAST
  C:2840H         PUBLIC        ?C?FCASTC
  C:283BH         PUBLIC        ?C?FCASTI
  C:2836H         PUBLIC        ?C?FCASTL
  -------         ENDMOD        ?C?FCAST

  -------         MODULE        ?C?CASTF
  C:2874H         PUBLIC        ?C?CASTF
  -------         ENDMOD        ?C?CASTF

  -------         MODULE        SCANF
  X:01DDH         PUBLIC        ?_SCANF?BYTE
  X:01DDH         PUBLIC        ?_SSCANF?BYTE
  C:3F8AH         PUBLIC        _SCANF
  C:3F86H         PUBLIC        _SSCANF
  -------         ENDMOD        SCANF

  -------         MODULE        ?C?FPNEG
  C:28F5H         PUBLIC        ?C?FPNEG
  -------         ENDMOD        ?C?FPNEG

  -------         MODULE        ?C?FTNPWR
  C:2936H         PUBLIC        ?C?FTNPWR
  -------         ENDMOD        ?C?FTNPWR

  -------         MODULE        ?C?COPY
  C:2A46H         PUBLIC        ?C?COPY
  -------         ENDMOD        ?C?COPY

  -------         MODULE        ?C?CLDPTR
  C:2A6CH         PUBLIC        ?C?CLDPTR
  -------         ENDMOD        ?C?CLDPTR

  -------         MODULE        ?C?CLDOPTR
  C:2A85H         PUBLIC        ?C?CLDOPTR
  -------         ENDMOD        ?C?CLDOPTR

  -------         MODULE        ?C?CSTPTR
  C:2AB2H         PUBLIC        ?C?CSTPTR
  -------         ENDMOD        ?C?CSTPTR

  -------         MODULE        ?C?IMUL
  C:2AC4H         PUBLIC        ?C?IMUL
BL51 BANKED LINKER/LOCATER V6.22                                                      12/04/2018  11:32:30  PAGE 87


  -------         ENDMOD        ?C?IMUL

  -------         MODULE        ?C?UIDIV
  C:2AD6H         PUBLIC        ?C?UIDIV
  -------         ENDMOD        ?C?UIDIV

  -------         MODULE        ?C?IILDX
  C:2B2BH         PUBLIC        ?C?IILDX
  -------         ENDMOD        ?C?IILDX

  -------         MODULE        ?C?ILDIX
  C:2B41H         PUBLIC        ?C?ILDIX
  -------         ENDMOD        ?C?ILDIX

  -------         MODULE        ?C?ILDPTR
  C:2B57H         PUBLIC        ?C?ILDPTR
  -------         ENDMOD        ?C?ILDPTR

  -------         MODULE        ?C?IILDOPTR
  C:2B82H         PUBLIC        ?C?IILDOPTR
  -------         ENDMOD        ?C?IILDOPTR

  -------         MODULE        ?C?ISTPTR
  C:2BCFH         PUBLIC        ?C?ISTPTR
  -------         ENDMOD        ?C?ISTPTR

  -------         MODULE        ?C?LMUL
  C:2BEEH         PUBLIC        ?C?LMUL
  -------         ENDMOD        ?C?LMUL

  -------         MODULE        ?C?ULDIV
  C:2C79H         PUBLIC        ?C?ULDIV
  -------         ENDMOD        ?C?ULDIV

  -------         MODULE        ?C?SLDIV
  C:743EH         PUBLIC        ?C?SLDIV
  -------         ENDMOD        ?C?SLDIV

  -------         MODULE        ?C?LNEG
  C:2D0BH         PUBLIC        ?C?LNEG
  -------         ENDMOD        ?C?LNEG

  -------         MODULE        ?C?ULCMP
  C:2D19H         PUBLIC        ?C?ULCMP
  -------         ENDMOD        ?C?ULCMP

  -------         MODULE        ?C?ULSHR
  C:2D2AH         PUBLIC        ?C?ULSHR
  -------         ENDMOD        ?C?ULSHR

  -------         MODULE        ?C?LSTPTR
  C:2D3DH         PUBLIC        ?C?LSTPTR
  -------         ENDMOD        ?C?LSTPTR

  -------         MODULE        ?C?LSTXDATA
  C:2D57H         PUBLIC        ?C?LSTXDATA
  -------         ENDMOD        ?C?LSTXDATA
BL51 BANKED LINKER/LOCATER V6.22                                                      12/04/2018  11:32:30  PAGE 88



  -------         MODULE        ?C?LSTKXDATA
  C:2D63H         PUBLIC        ?C?LSTKXDATA
  -------         ENDMOD        ?C?LSTKXDATA

  -------         MODULE        ?C?PLDXDATA
  C:2D94H         PUBLIC        ?C?PLDXDATA
  -------         ENDMOD        ?C?PLDXDATA

  -------         MODULE        ?C?PLDIXDATA
  C:2D9DH         PUBLIC        ?C?PLDIXDATA
  -------         ENDMOD        ?C?PLDIXDATA

  -------         MODULE        ?C?PILDXDATA
  C:2DB4H         PUBLIC        ?C?PILDXDATA
  -------         ENDMOD        ?C?PILDXDATA

  -------         MODULE        ?C?PSTXDATA
  C:2DCBH         PUBLIC        ?C?PSTXDATA
  -------         ENDMOD        ?C?PSTXDATA

  -------         MODULE        ?C?PLDPTR
  C:2DD4H         PUBLIC        ?C?PLDPTR
  -------         ENDMOD        ?C?PLDPTR

  -------         MODULE        ?C?PSTPTR
  C:2DF4H         PUBLIC        ?C?PSTPTR
  -------         ENDMOD        ?C?PSTPTR

  -------         MODULE        ?C?CCASE
  C:2E43H         PUBLIC        ?C?CCASE
  -------         ENDMOD        ?C?CCASE

  -------         MODULE        GETCHAR
  B:0024H.5       PUBLIC        ?C?CHARLOADED
  X:0357H         PUBLIC        ?_UNGETCHAR?BYTE
  C:7AF9H         PUBLIC        GETCHAR
  -------         ENDMOD        GETCHAR

  -------         MODULE        UNGETC
  C:7C2DH         PUBLIC        _UNGETCHAR
  -------         ENDMOD        UNGETC

  -------         MODULE        ISSPACE
  C:7B0DH         PUBLIC        _isspace
  -------         ENDMOD        ISSPACE

  -------         MODULE        STRLEN
  C:7AD0H         PUBLIC        _STRLEN
  -------         ENDMOD        STRLEN

  -------         MODULE        ?C?LSTIDATA
  C:2E69H         PUBLIC        ?C?LSTIDATA
  -------         ENDMOD        ?C?LSTIDATA

  -------         MODULE        ?C?LSTPDATA
  C:2E75H         PUBLIC        ?C?LSTPDATA
BL51 BANKED LINKER/LOCATER V6.22                                                      12/04/2018  11:32:30  PAGE 89


  -------         ENDMOD        ?C?LSTPDATA

  -------         MODULE        ?C?PLDIDATA
  C:2E81H         PUBLIC        ?C?PLDIDATA
  -------         ENDMOD        ?C?PLDIDATA

  -------         MODULE        ?C?PSTIDATA
  C:2E8AH         PUBLIC        ?C?PSTIDATA
  -------         ENDMOD        ?C?PSTIDATA

  -------         MODULE        ?C?PLDPDATA
  C:2E93H         PUBLIC        ?C?PLDPDATA
  -------         ENDMOD        ?C?PLDPDATA

  -------         MODULE        ?C?PSTPDATA
  C:2E9CH         PUBLIC        ?C?PSTPDATA
  -------         ENDMOD        ?C?PSTPDATA

  -------         MODULE        ?C?PLDCODE
  C:2EA5H         PUBLIC        ?C?PLDCODE
  -------         ENDMOD        ?C?PLDCODE

  -------         MODULE        PUTCHAR
  C:790BH         PUBLIC        _PUTCHAR
  -------         ENDMOD        PUTCHAR

  -------         MODULE        _GETKEY
  C:7BE5H         PUBLIC        _GETKEY
  -------         ENDMOD        _GETKEY

*** WARNING L16: UNCALLED SEGMENT, IGNORED FOR OVERLAY PROCESS
    SEGMENT: ?CO?OSDCTRL

Program Size: data=42.6 xdata=856 code=31825
LINK/LOCATE RUN COMPLETE.  1 WARNING(S),  0 ERROR(S)
