BL51 BANKED LINKER/LOCATER V6.22                                                        02/19/2019  11:34:33  PAGE 1


BL51 BANKED LINKER/LOCATER V6.22, INVOKED BY:
C:\KEIL\C51\BIN\BL51.EXE .\OBJ\STARTUP.obj, .\OBJ\UART.obj, .\OBJ\BusCtrl.obj, .\OBJ\CommandShell.obj, .\OBJ\Main.obj, .
>> \OBJ\OSD_Graph.obj, .\OBJ\OSDAction .obj, .\OBJ\OSDCtrl.obj, .\OBJ\Timer.obj, .\OBJ\TW28xx_Audio.obj, .\OBJ\TW28xx_Vi
>> deo.obj, .\OBJ\TW2835_Init.obj, .\OBJ\NED.obj TO .\OBJ\NED_5MCMOS_v0_a_d_XXXX_20190219 PRINT (.\OBJ\NED_5MCMOS_v0_a_d
>> _XXXX_20190219.m51) RAMSIZE (256)


MEMORY MODEL: LARGE WITH FLOATING POINT ARITHMETIC


INPUT MODULES INCLUDED:
  .\OBJ\STARTUP.obj (?C_STARTUP)
  .\OBJ\UART.obj (UART)
  .\OBJ\BusCtrl.obj (BUSCTRL)
  .\OBJ\CommandShell.obj (COMMANDSHELL)
  .\OBJ\Main.obj (MAIN)
  .\OBJ\OSD_Graph.obj (OSD_GRAPH)
  .\OBJ\OSDAction .obj (OSDACTION_)
  .\OBJ\OSDCtrl.obj (OSDCTRL)
  .\OBJ\Timer.obj (TIMER)
  .\OBJ\TW28xx_Audio.obj (TW28XX_AUDIO)
  .\OBJ\TW28xx_Video.obj (TW28XX_VIDEO)
  .\OBJ\TW2835_Init.obj (TW2835_INIT)
  .\OBJ\NED.obj (NED)
  C:\KEIL\C51\LIB\C51FPL.LIB (?C?FPADD)
  C:\KEIL\C51\LIB\C51FPL.LIB (?C?FPMUL)
  C:\KEIL\C51\LIB\C51FPL.LIB (?C?FPDIV)
  C:\KEIL\C51\LIB\C51FPL.LIB (?C?FCAST)
  C:\KEIL\C51\LIB\C51FPL.LIB (?C?CASTF)
  C:\KEIL\C51\LIB\C51FPL.LIB (SCANF)
  C:\KEIL\C51\LIB\C51FPL.LIB (?C?FPGETOPN)
  C:\KEIL\C51\LIB\C51FPL.LIB (?C?ATOF)
  C:\KEIL\C51\LIB\C51FPL.LIB (?C?FPNEG)
  C:\KEIL\C51\LIB\C51FPL.LIB (?C?FTNPWR)
  C:\KEIL\C51\LIB\C51L.LIB (?C_INIT)
  C:\KEIL\C51\LIB\C51L.LIB (?C?COPY)
  C:\KEIL\C51\LIB\C51L.LIB (?C?CLDPTR)
  C:\KEIL\C51\LIB\C51L.LIB (?C?CLDOPTR)
  C:\KEIL\C51\LIB\C51L.LIB (?C?CSTPTR)
  C:\KEIL\C51\LIB\C51L.LIB (?C?IMUL)
  C:\KEIL\C51\LIB\C51L.LIB (?C?UIDIV)
  C:\KEIL\C51\LIB\C51L.LIB (?C?IILDX)
  C:\KEIL\C51\LIB\C51L.LIB (?C?ILDIX)
  C:\KEIL\C51\LIB\C51L.LIB (?C?ILDPTR)
  C:\KEIL\C51\LIB\C51L.LIB (?C?IILDOPTR)
  C:\KEIL\C51\LIB\C51L.LIB (?C?ISTPTR)
  C:\KEIL\C51\LIB\C51L.LIB (?C?LMUL)
  C:\KEIL\C51\LIB\C51L.LIB (?C?ULDIV)
  C:\KEIL\C51\LIB\C51L.LIB (?C?SLDIV)
  C:\KEIL\C51\LIB\C51L.LIB (?C?LNEG)
  C:\KEIL\C51\LIB\C51L.LIB (?C?ULCMP)
  C:\KEIL\C51\LIB\C51L.LIB (?C?ULSHR)
  C:\KEIL\C51\LIB\C51L.LIB (?C?LSTPTR)
  C:\KEIL\C51\LIB\C51L.LIB (?C?LSTXDATA)
  C:\KEIL\C51\LIB\C51L.LIB (?C?LSTKXDATA)
  C:\KEIL\C51\LIB\C51L.LIB (?C?PLDXDATA)
  C:\KEIL\C51\LIB\C51L.LIB (?C?PLDIXDATA)
  C:\KEIL\C51\LIB\C51L.LIB (?C?PILDXDATA)
BL51 BANKED LINKER/LOCATER V6.22                                                      02/19/2019  11:34:33  PAGE 2


  C:\KEIL\C51\LIB\C51L.LIB (?C?PSTXDATA)
  C:\KEIL\C51\LIB\C51L.LIB (?C?PLDPTR)
  C:\KEIL\C51\LIB\C51L.LIB (?C?PSTPTR)
  C:\KEIL\C51\LIB\C51L.LIB (?C?CCASE)
  C:\KEIL\C51\LIB\C51L.LIB (GETCHAR)
  C:\KEIL\C51\LIB\C51L.LIB (UNGETC)
  C:\KEIL\C51\LIB\C51L.LIB (ISSPACE)
  C:\KEIL\C51\LIB\C51L.LIB (STRLEN)
  C:\KEIL\C51\LIB\C51L.LIB (ATOI)
  C:\KEIL\C51\LIB\C51L.LIB (?C?LSTIDATA)
  C:\KEIL\C51\LIB\C51L.LIB (?C?LSTPDATA)
  C:\KEIL\C51\LIB\C51L.LIB (?C?PLDIDATA)
  C:\KEIL\C51\LIB\C51L.LIB (?C?PSTIDATA)
  C:\KEIL\C51\LIB\C51L.LIB (?C?PLDPDATA)
  C:\KEIL\C51\LIB\C51L.LIB (?C?PSTPDATA)
  C:\KEIL\C51\LIB\C51L.LIB (?C?PLDCODE)
  C:\KEIL\C51\LIB\C51L.LIB (PUTCHAR)
  C:\KEIL\C51\LIB\C51L.LIB (_GETKEY)
  C:\KEIL\C51\LIB\C51L.LIB (ISDIGIT)


LINK MAP OF MODULE:  .\OBJ\NED_5MCMOS_v0_a_d_XXXX_20190219 (?C_STARTUP)


            TYPE    BASE      LENGTH    RELOCATION   SEGMENT NAME
            -----------------------------------------------------

            * * * * * * *   D A T A   M E M O R Y   * * * * * * *
            REG     0000H     0008H     ABSOLUTE     "REG BANK 0"
            DATA    0008H     000FH     UNIT         _DATA_GROUP_
            DATA    0017H     0002H     UNIT         ?DT?OSDCTRL
                    0019H     0007H                  *** GAP ***
            DATA    0020H     0001H     BIT_ADDR     ?BA?MAIN
            DATA    0021H     0001H     BIT_ADDR     ?BA?OSDACTION_
            DATA    0022H     0001H     BIT_ADDR     ?BA?OSDCTRL
            BIT     0023H.0   0001H.3   UNIT         _BIT_GROUP_
            BIT     0024H.3   0000H.2   UNIT         ?BI?MAIN
            BIT     0024H.5   0000H.1   UNIT         ?BI?GETCHAR
                    0024H.6   0000H.2                *** GAP ***
            DATA    0025H     000CH     UNIT         ?DT?TIMER
            IDATA   0031H     0001H     UNIT         ?STACK

            * * * * * * *  X D A T A   M E M O R Y  * * * * * * *
            XDATA   0000H     0211H     UNIT         _XDATA_GROUP_
            XDATA   0211H     0083H     UNIT         ?XD?NED
            XDATA   0294H     0066H     UNIT         ?XD?UART
            XDATA   02FAH     0045H     UNIT         ?XD?MAIN
            XDATA   033FH     001DH     UNIT         ?XD?COMMANDSHELL
            XDATA   035CH     0001H     UNIT         ?XD?OSD_GRAPH
            XDATA   035DH     0001H     UNIT         ?XD?OSDACTION_
            XDATA   035EH     0001H     UNIT         ?XD?GETCHAR

            * * * * * * *   C O D E   M E M O R Y   * * * * * * *
            CODE    0000H     0003H     ABSOLUTE     
            CODE    0003H     0008H     UNIT         ?PR?_RS_TX?UART
            CODE    000BH     0003H     ABSOLUTE     
            CODE    000EH     0015H     UNIT         ?PR?_RESETDEVICE?NED
BL51 BANKED LINKER/LOCATER V6.22                                                      02/19/2019  11:34:33  PAGE 3


            CODE    0023H     0003H     ABSOLUTE     
            CODE    0026H     0003H     UNIT         ?PR?_PCT_PRESETFOREGROUNDCOLOR?OSDCTRL
            CODE    0029H     0001H     UNIT         ?PR?PTC_SWITCHTOI2CMODE?BUSCTRL
            CODE    002AH     0001H     UNIT         ?PR?PCT_SENDACK?COMMANDSHELL
            CODE    002BH     0003H     ABSOLUTE     
            CODE    002EH     16CAH     UNIT         ?CO?OSD_GRAPH
            CODE    16F8H     0EA0H     UNIT         ?CO?OSDCTRL
            CODE    2598H     0919H     UNIT         ?C?LIB_CODE
            CODE    2EB1H     0485H     UNIT         ?PR?_PCT_SHOWMIRRORICON?OSDACTION_
            CODE    3336H     0459H     UNIT         ?CO?TW28XX_VIDEO
            CODE    378FH     0400H     UNIT         ?CO?TW2835_INIT
            CODE    3B8FH     0385H     UNIT         ?PR?_MONITOR_SET?MAIN
            CODE    3F14H     036EH     UNIT         ?PR?_PCT_OSD_ACTIONPTHX?OSDACTION_
            CODE    4282H     035AH     UNIT         ?PR?SCANF?SCANF
            CODE    45DCH     02F8H     UNIT         ?PR?_PCT_SETVIDEOHDELAY?TW28XX_VIDEO
            CODE    48D4H     01EDH     UNIT         ?PR?_SC16_SENDDATASELECT?NED
            CODE    4AC1H     01E4H     UNIT         ?PR?_SC16_BCC_CHECK?NED
            CODE    4CA5H     01D3H     UNIT         ?CO?MAIN
            CODE    4E78H     01A3H     UNIT         ?PR?_PCT_SETXVIDEOMIXING?TW28XX_VIDEO
            CODE    501BH     01A2H     UNIT         ?PR?_PCT_OSD16X16GRAPHX?OSD_GRAPH
            CODE    51BDH     017CH     UNIT         ?PR?_PCT_WRITEOSDDATABUFFERX?OSDCTRL
            CODE    5339H     017BH     UNIT         ?PR?MAIN?MAIN
            CODE    54B4H     016AH     UNIT         ?PR?OSDCTRL
            CODE    561EH     0167H     UNIT         ?C_INITSEG
            CODE    5785H     0160H     UNIT         ?PR?_PCT_SHOWINDICATEICON?OSDACTION_
            CODE    58E5H     0156H     UNIT         ?PR?_MONIHSCOMM?COMMANDSHELL
            CODE    5A3BH     0141H     UNIT         ?PR?_PCT_RECOMPENSEYHDELAY?TW28XX_VIDEO
            CODE    5B7CH     013AH     UNIT         ?PR?PCT_INITOSDCOLOR?OSDCTRL
            CODE    5CB6H     0124H     UNIT         ?PR?_PCT_WRITEOSDFNTX?OSDCTRL
            CODE    5DDAH     0124H     UNIT         ?PR?_PCT_WRITEOSDDATABUFFERY?OSDCTRL
            CODE    5EFEH     0108H     UNIT         ?PR?TW28XX_VIDEO
            CODE    6006H     0107H     UNIT         ?PR?_PCT_RUNCOMMSHELL?COMMANDSHELL
            CODE    610DH     00FBH     UNIT         ?PR?CAMERA_MOVE?NED
            CODE    6208H     00F2H     UNIT         ?PR?_PCT_WRITEOSDFNTY?OSDCTRL
            CODE    62FAH     00ECH     UNIT         ?PR?PRESS_CHECK?MAIN
            CODE    63E6H     00E6H     UNIT         ?PR??C?ATOF??C?ATOF
            CODE    64CCH     00DDH     UNIT         ?PR?TIMER2_INTERRUPT?TIMER
            CODE    65A9H     00DBH     UNIT         ?PR?_ATOI?ATOI
            CODE    6684H     00D7H     UNIT         ?PR?COMMANDSHELL?MAIN
            CODE    675BH     00CFH     UNIT         ?PR?NED
            CODE    682AH     00CEH     UNIT         ?PR?_SET_PWM_OUTPUT?MAIN
            CODE    68F8H     00C3H     UNIT         ?PR?MAIN
            CODE    69BBH     00C1H     UNIT         ?PR?CHECK_OTHER_COM?NED
            CODE    6A7CH     00B8H     UNIT         ?PR?_SETBAUDRATE?NED
            CODE    6B34H     00B6H     UNIT         ?PR?_PCT_CLEARWORDSPATHX?OSDCTRL
            CODE    6BEAH     00B0H     UNIT         ?PR?_SC16_COMCHECK?NED
            CODE    6C9AH     00AAH     UNIT         ?PR?_PCT_FULLCOLORONOSD?OSDCTRL
            CODE    6D44H     0099H     UNIT         ?PR?_PCT_SETCHANELSCALE?TW28XX_VIDEO
            CODE    6DDDH     008CH     UNIT         ?C_C51STARTUP
            CODE    6E69H     008CH     UNIT         ?PR?_PCT_READASICBYTE?BUSCTRL
            CODE    6EF5H     0082H     UNIT         ?PR?COMMANDSHELL
            CODE    6F77H     0081H     UNIT         ?PR?_PCT_WRITEASICTABLE?BUSCTRL
            CODE    6FF8H     0080H     UNIT         ?PR?SC16_INIT?NED
            CODE    7078H     0079H     UNIT         ?PR?_I2CWRITEDATA?NED
            CODE    70F1H     0073H     UNIT         ?PR?_BOUND_SET?NED
            CODE    7164H     0072H     UNIT         ?CO?COMMANDSHELL
            CODE    71D6H     0070H     UNIT         ?PR?_PCT_GETFIRSTSTR?COMMANDSHELL
BL51 BANKED LINKER/LOCATER V6.22                                                      02/19/2019  11:34:33  PAGE 4


            CODE    7246H     006DH     UNIT         ?PR?OSDACTION_
            CODE    72B3H     0069H     UNIT         ?PR?PCT_CHECKSYSTEM?COMMANDSHELL
            CODE    731CH     0067H     UNIT         ?PR?PCT_TW2835_INITIAL?TW2835_INIT
            CODE    7383H     0065H     UNIT         ?PR?_MONISHOWSODSTR?COMMANDSHELL
            CODE    73E8H     0064H     UNIT         ?PR?_PCT_WRITEASICBYTE?BUSCTRL
            CODE    744CH     0064H     UNIT         ?PR?_PCT_CHANGESYSTEMTYPE?TW2835_INIT
            CODE    74B0H     0064H     UNIT         ?PR?_SETLINE?NED
            CODE    7514H     0063H     UNIT         ?PR?GPIO_CHECK?NED
            CODE    7577H     0061H     UNIT         ?PR?CAMERA_VERSION_CHECK?MAIN
            CODE    75D8H     0061H     UNIT         ?PR?_PCT_SHOWGRAPHSTRING?OSD_GRAPH
            CODE    7639H     005EH     UNIT         ?PR?_PCT_SHOWOSDSTRING?OSDCTRL
            CODE    7697H     005AH     UNIT         ?PR?TEMP_CHECK?MAIN
            CODE    76F1H     0059H     UNIT         ?PR?_PCT_SETOSDCOLOR?OSDCTRL
            CODE    774AH     0055H     UNIT         ?PR?VERSION_CHECK?MAIN
            CODE    779FH     0052H     UNIT         ?PR?_PCT_WRITESTABLE?BUSCTRL
            CODE    77F1H     0050H     UNIT         ?PR?_WAIT_MS?MAIN
            CODE    7841H     004DH     UNIT         ?PR?_MONIWRITEASICBYTE?COMMANDSHELL
            CODE    788EH     004CH     UNIT         ?PR?PCT_INITIALOSD?OSDACTION_
            CODE    78DAH     004BH     UNIT         ?PR?_PCT_DETECTVIDEOFORMAT?TW28XX_VIDEO
            CODE    7925H     004BH     UNIT         ?PR?SENT_CAMERA_ANG?NED
            CODE    7970H     004BH     UNIT         ?PR?SENT_CAMERA_RANG?NED
            CODE    79BBH     004AH     UNIT         ?PR?INITIALMPU?MAIN
            CODE    7A05H     004AH     UNIT         ?PR?SEND_CAMERA_PRESS?NED
            CODE    7A4FH     004AH     UNIT         ?PR?_SET_CAMERA_SPEED?NED
            CODE    7A99H     0048H     UNIT         ?PR?_PCT_CHECKVMIXTYPE?COMMANDSHELL
            CODE    7AE1H     0048H     UNIT         ?PR?_SET_VIDEO?NED
            CODE    7B29H     0047H     UNIT         ?PR?PCT_GETVIDEOSIGNALSTATUS?OSDACTION_
            CODE    7B70H     0046H     UNIT         ?PR?PCT_SHOWMODEICON?OSDACTION_
            CODE    7BB6H     0044H     UNIT         ?C?LDIV
            CODE    7BFAH     0040H     UNIT         ?PR?_PCT_WINATTRCTRLY?TW28XX_VIDEO
            CODE    7C3AH     0040H     UNIT         ?PR?_READI2CWORD?NED
            CODE    7C7AH     003FH     UNIT         ?PR?SENT_DVR_TEMP?NED
            CODE    7CB9H     003DH     UNIT         ?PR?_PCT_STRTOCOMMCODE?COMMANDSHELL
            CODE    7CF6H     003CH     UNIT         ?PR?BUSCTRL
            CODE    7D32H     003CH     UNIT         ?PR?_SC16_SENDDATA?NED
            CODE    7D6EH     003BH     UNIT         ?PR?_SC16_DATA_RESET?NED
            CODE    7DA9H     003AH     UNIT         ?PR?_PCT_WINATTRCTRL?TW28XX_VIDEO
            CODE    7DE3H     0038H     UNIT         ?PR?OSD_GRAPH
            CODE    7E1BH     0036H     UNIT         ?PR?_PCT_ENSHOWOSDPAGE?OSDCTRL
            CODE    7E51H     0036H     UNIT         ?PR?SEND_CAMERA_TEMP?NED
            CODE    7E87H     0034H     UNIT         ?PR?_PCT_DISSHOWOSDPAGE?OSDCTRL
            CODE    7EBBH     0032H     UNIT         ?PR?REPEAT_PWM_COM?NED
            CODE    7EEDH     0032H     UNIT         ?PR?SC16_DATACHECK?NED
            CODE    7F1FH     002DH     UNIT         ?PR?RS_INTERRUPT?UART
            CODE    7F4CH     002DH     UNIT         ?PR?_PWM_SET?MAIN
            CODE    7F79H     002CH     UNIT         ?PR?GET_CAMERA_VER?NED
            CODE    7FA5H     002CH     UNIT         ?PR?GET_CAMERA_ANG?NED
            CODE    7FD1H     002CH     UNIT         ?PR?GET_CAMERA_RANG?NED
            CODE    7FFDH     002CH     UNIT         ?PR?GET_DVR_TEMP?NED
            CODE    8029H     002AH     UNIT         ?PR?_BCC_CAL?NED
            CODE    8053H     0029H     UNIT         ?PR?I2CREADDATAWITHACK?NED
            CODE    807CH     0027H     UNIT         ?PR?PUTCHAR?PUTCHAR
            CODE    80A3H     0026H     UNIT         ?PR?RESETCOMMSELL?MAIN
            CODE    80C9H     0026H     UNIT         ?PR?PCT_OSDACTIONFORHS?OSDACTION_
            CODE    80EFH     0023H     UNIT         ?PR?I2CREADDATA?NED
            CODE    8112H     0020H     UNIT         ?CO?OSDACTION_
            CODE    8132H     0020H     UNIT         ?PR?_ADC_READ?NED
BL51 BANKED LINKER/LOCATER V6.22                                                      02/19/2019  11:34:33  PAGE 5


            CODE    8152H     001FH     UNIT         ?PR?_PCT_SETOSDDRAWPAGE?OSDCTRL
            CODE    8171H     001DH     UNIT         ?PR?INITIALTIMER2?TIMER
            CODE    818EH     001AH     UNIT         ?PR?_MONIYVIDEOMIX?COMMANDSHELL
            CODE    81A8H     001AH     UNIT         ?PR?_PCT_CLEAROSDPAGEX?OSDCTRL
            CODE    81C2H     0019H     UNIT         ?PR?RS_RX?UART
            CODE    81DBH     0019H     UNIT         ?PR?TW2835_INIT
            CODE    81F4H     0016H     UNIT         ?PR?INITIALUART?UART
            CODE    820AH     0016H     UNIT         ?PR?_MONIHSCOMMSJMODE?COMMANDSHELL
            CODE    8220H     0015H     UNIT         ?PR?_STRLEN?STRLEN
            CODE    8235H     0014H     UNIT         ?PR?_PCT_SETYVIDEOMIXING?TW28XX_VIDEO
            CODE    8249H     0014H     UNIT         ?PR?GETCHAR?GETCHAR
            CODE    825DH     0014H     UNIT         ?PR?_ISSPACE?ISSPACE
            CODE    8271H     0013H     UNIT         ?PR?PCT_TW2835RESETN?TW2835_INIT
            CODE    8284H     0012H     UNIT         ?PR?PCT_INITIALTW2835?TW2835_INIT
            CODE    8296H     0012H     UNIT         ?PR?I2CSTART?NED
            CODE    82A8H     0012H     UNIT         ?PR?_WRITEI2C?NED
            CODE    82BAH     0010H     UNIT         ?PR?RS_RXREADY?UART
            CODE    82CAH     0010H     UNIT         ?PR?_POWER_ONOFF?NED
            CODE    82DAH     000FH     UNIT         ?PR?PWM_INIT?MAIN
            CODE    82E9H     000FH     UNIT         ?PR?_READI2C?NED
            CODE    82F8H     000FH     UNIT         ?PR?_SENT_CAMERA_IRD?NED
            CODE    8307H     000FH     UNIT         ?CO?NED
            CODE    8316H     000FH     UNIT         ?PR?_ISDIGIT?ISDIGIT
            CODE    8325H     000DH     UNIT         ?PR?TIMER0_INTERRUPT?TIMER
            CODE    8332H     000DH     UNIT         ?PR?I2CSTOP?NED
            CODE    833FH     000CH     UNIT         ?PR?INITIALCOMMSHELL?MAIN
            CODE    834BH     000BH     UNIT         ?PR?UART
            CODE    8356H     000AH     UNIT         ?PR?_GETKEY?_GETKEY
            CODE    8360H     0009H     UNIT         ?PR?_PCT_FLASHOSDCTRL?MAIN
            CODE    8369H     0009H     UNIT         ?PR?INITIALTIMER0?TIMER
            CODE    8372H     0009H     UNIT         ?PR?_GPIOSETPORTMODE?NED
            CODE    837BH     0009H     UNIT         ?PR?_GPIOSETPORTSTATE?NED
            CODE    8384H     0009H     UNIT         ?PR?_WRITEBYTE?NED
            CODE    838DH     0009H     UNIT         ?PR?MCTRL_SET?NED
            CODE    8396H     0008H     UNIT         ?PR?PCT_ENFALSHVLOSS?OSDACTION_
            CODE    839EH     0008H     UNIT         ?PR?GETCHAR?UNGETCHAR
            CODE    83A6H     0006H     UNIT         ?PR?PCT_CLEARGRAPHATTR?OSD_GRAPH
            CODE    83ACH     0006H     UNIT         ?PR?_PCT_PRESETGRAPHATTR?OSD_GRAPH
            CODE    83B2H     0006H     UNIT         ?PR?_GPIOGETPORTSTATE?NED
            CODE    83B8H     0006H     UNIT         ?PR?_READBYTE?NED
            CODE    83BEH     0003H     UNIT         ?PR?_PCT_PRESETBACKGROUNDCOLOR?OSDCTRL
            CODE    83C1H     0001H     UNIT         ?PR?I2CDELAY?NED



OVERLAY MAP OF MODULE:   .\OBJ\NED_5MCMOS_v0_a_d_XXXX_20190219 (?C_STARTUP)


SEGMENT                                            BIT_GROUP          DATA_GROUP          XDATA_GROUP
  +--> CALLED SEGMENT                           START    LENGTH     START    LENGTH     START    LENGTH
-------------------------------------------------------------------------------------------------------
?C_C51STARTUP                                   -----    -----      -----    -----      -----    -----
  +--> ?PR?MAIN?MAIN
  +--> ?C_INITSEG

?PR?MAIN?MAIN                                   -----    -----      -----    -----      0000H    0006H
  +--> ?PR?MAIN
BL51 BANKED LINKER/LOCATER V6.22                                                      02/19/2019  11:34:33  PAGE 6


  +--> ?PR?INITIALMPU?MAIN
  +--> ?PR?PWM_INIT?MAIN
  +--> ?PR?INITIALCOMMSHELL?MAIN
  +--> ?PR?RESETCOMMSELL?MAIN
  +--> ?PR?_POWER_ONOFF?NED
  +--> ?PR?SC16_INIT?NED
  +--> ?PR?_MONITOR_SET?MAIN
  +--> ?PR?GPIO_CHECK?NED
  +--> ?PR?_GPIOGETPORTSTATE?NED
  +--> ?PR?COMMANDSHELL?MAIN
  +--> ?PR?_PCT_RUNCOMMSHELL?COMMANDSHELL
  +--> ?PR?PCT_CHECKSYSTEM?COMMANDSHELL
  +--> ?PR?RS_RXREADY?UART
  +--> ?PR?PCT_GETVIDEOSIGNALSTATUS?OSDACTION_
  +--> ?PR?CAMERA_MOVE?NED
  +--> ?PR?_SC16_DATA_RESET?NED
  +--> ?PR?SC16_DATACHECK?NED
  +--> ?PR?_SET_CAMERA_SPEED?NED

?PR?INITIALMPU?MAIN                             -----    -----      -----    -----      -----    -----
  +--> ?PR?INITIALUART?UART
  +--> ?PR?INITIALTIMER0?TIMER
  +--> ?PR?INITIALTIMER2?TIMER

?PR?RESETCOMMSELL?MAIN                          -----    -----      -----    -----      -----    -----
  +--> ?PR?MAIN

?PR?_POWER_ONOFF?NED                            -----    -----      -----    -----      -----    -----
  +--> ?PR?_WAIT_MS?MAIN

?PR?_WAIT_MS?MAIN                               -----    -----      -----    -----      0007H    0004H

?PR?SC16_INIT?NED                               -----    -----      -----    -----      0006H    0001H
  +--> ?PR?_WAIT_MS?MAIN
  +--> ?PR?NED
  +--> ?PR?_RESETDEVICE?NED
  +--> ?PR?_SETBAUDRATE?NED
  +--> ?PR?_SETLINE?NED
  +--> ?PR?_WRITEI2C?NED
  +--> ?PR?_GPIOSETPORTMODE?NED
  +--> ?PR?_GPIOSETPORTSTATE?NED

?PR?NED                                         -----    -----      -----    -----      -----    -----
  +--> ?PR?I2CDELAY?NED
  +--> ?PR?I2CSTART?NED
  +--> ?PR?_I2CWRITEDATA?NED

?PR?I2CSTART?NED                                -----    -----      -----    -----      -----    -----
  +--> ?PR?I2CDELAY?NED

?PR?_I2CWRITEDATA?NED                           -----    -----      -----    -----      -----    -----
  +--> ?PR?I2CSTART?NED
  +--> ?PR?I2CDELAY?NED

?PR?_RESETDEVICE?NED                            -----    -----      -----    -----      -----    -----
  +--> ?PR?_READI2C?NED
  +--> ?PR?_WRITEI2C?NED
BL51 BANKED LINKER/LOCATER V6.22                                                      02/19/2019  11:34:33  PAGE 7



?PR?_READI2C?NED                                -----    -----      -----    -----      -----    -----
  +--> ?PR?_I2CWRITEDATA?NED
  +--> ?PR?NED
  +--> ?PR?I2CREADDATA?NED
  +--> ?PR?I2CSTOP?NED

?PR?I2CREADDATA?NED                             -----    -----      -----    -----      -----    -----
  +--> ?PR?NED
  +--> ?PR?I2CDELAY?NED

?PR?I2CSTOP?NED                                 -----    -----      -----    -----      -----    -----
  +--> ?PR?I2CDELAY?NED

?PR?_WRITEI2C?NED                               -----    -----      -----    -----      -----    -----
  +--> ?PR?_I2CWRITEDATA?NED
  +--> ?PR?I2CSTOP?NED

?PR?_SETBAUDRATE?NED                            -----    -----      -----    -----      0007H    000AH
  +--> ?PR?_READI2C?NED
  +--> ?PR?_WRITEI2C?NED

?PR?_SETLINE?NED                                -----    -----      -----    -----      0007H    0004H
  +--> ?PR?_READI2C?NED
  +--> ?PR?_WRITEI2C?NED

?PR?_GPIOSETPORTMODE?NED                        -----    -----      -----    -----      -----    -----
  +--> ?PR?_WRITEI2C?NED

?PR?_GPIOSETPORTSTATE?NED                       -----    -----      -----    -----      -----    -----
  +--> ?PR?_WRITEI2C?NED

?PR?_MONITOR_SET?MAIN                           -----    -----      -----    -----      0006H    01CFH
  +--> ?CO?MAIN
  +--> ?PR?MAIN
  +--> ?PR?PCT_INITIALTW2835?TW2835_INIT
  +--> ?PR?_PCT_WRITEASICBYTE?BUSCTRL
  +--> ?PR?_PCT_RUNCOMMSHELL?COMMANDSHELL
  +--> ?PR?_BOUND_SET?NED

?PR?PCT_INITIALTW2835?TW2835_INIT               -----    -----      -----    -----      -----    -----
  +--> ?PR?PCT_TW2835RESETN?TW2835_INIT
  +--> ?PR?PCT_TW2835_INITIAL?TW2835_INIT
  +--> ?PR?PCT_INITIALOSD?OSDACTION_

?PR?PCT_TW2835_INITIAL?TW2835_INIT              -----    -----      -----    -----      01D5H    0002H
  +--> ?PR?TW2835_INIT
  +--> ?CO?TW2835_INIT
  +--> ?PR?_PCT_WRITEASICTABLE?BUSCTRL

?PR?TW2835_INIT                                 -----    -----      -----    -----      -----    -----
  +--> ?CO?TW2835_INIT

?PR?_PCT_WRITEASICTABLE?BUSCTRL                 -----    -----      -----    -----      01D7H    0007H
  +--> ?PR?BUSCTRL
  +--> ?PR?MCTRL_SET?NED

BL51 BANKED LINKER/LOCATER V6.22                                                      02/19/2019  11:34:33  PAGE 8


?PR?PCT_INITIALOSD?OSDACTION_                   -----    -----      0008H    0001H      -----    -----
  +--> ?PR?PCT_INITOSDCOLOR?OSDCTRL
  +--> ?PR?PCT_CLEARGRAPHATTR?OSD_GRAPH
  +--> ?PR?_PCT_PRESETFOREGROUNDCOLOR?OSDCTRL
  +--> ?PR?_PCT_PRESETBACKGROUNDCOLOR?OSDCTRL
  +--> ?PR?_PCT_ENSHOWOSDPAGE?OSDCTRL
  +--> ?PR?_PCT_SETOSDDRAWPAGE?OSDCTRL
  +--> ?PR?_PCT_FULLCOLORONOSD?OSDCTRL

?PR?PCT_INITOSDCOLOR?OSDCTRL                    -----    -----      -----    -----      -----    -----
  +--> ?PR?_PCT_WRITEASICBYTE?BUSCTRL
  +--> ?PR?OSDCTRL
  +--> ?PR?_PCT_SETOSDCOLOR?OSDCTRL

?PR?_PCT_WRITEASICBYTE?BUSCTRL                  -----    -----      -----    -----      020DH    0004H
  +--> ?PR?BUSCTRL
  +--> ?PR?MCTRL_SET?NED

?PR?OSDCTRL                                     -----    -----      -----    -----      -----    -----
  +--> ?CO?OSDCTRL

?PR?_PCT_SETOSDCOLOR?OSDCTRL                    -----    -----      -----    -----      01D5H    0005H
  +--> ?PR?_PCT_WRITEASICBYTE?BUSCTRL

?PR?_PCT_ENSHOWOSDPAGE?OSDCTRL                  -----    -----      -----    -----      01E3H    0001H
  +--> ?PR?OSDCTRL
  +--> ?PR?_PCT_WRITEASICBYTE?BUSCTRL
  +--> ?PR?_PCT_READASICBYTE?BUSCTRL

?PR?_PCT_READASICBYTE?BUSCTRL                   -----    -----      -----    -----      0209H    0004H
  +--> ?PR?MCTRL_SET?NED
  +--> ?PR?BUSCTRL

?PR?_PCT_SETOSDDRAWPAGE?OSDCTRL                 -----    -----      -----    -----      01E3H    0001H
  +--> ?PR?OSDCTRL
  +--> ?PR?_PCT_READASICBYTE?BUSCTRL
  +--> ?PR?_PCT_WRITEASICBYTE?BUSCTRL

?PR?_PCT_FULLCOLORONOSD?OSDCTRL                 -----    -----      -----    -----      01DDH    0006H
  +--> ?PR?OSDCTRL
  +--> ?PR?_PCT_WRITEASICBYTE?BUSCTRL
  +--> ?PR?_PCT_READASICBYTE?BUSCTRL

?PR?_PCT_RUNCOMMSHELL?COMMANDSHELL              -----    -----      -----    -----      01D5H    0008H
  +--> ?PR?COMMANDSHELL
  +--> ?PR?_PCT_GETFIRSTSTR?COMMANDSHELL
  +--> ?PR?_PCT_STRTOCOMMCODE?COMMANDSHELL
  +--> ?CO?COMMANDSHELL
  +--> ?PR?_MONIWRITEASICBYTE?COMMANDSHELL
  +--> ?PR?_MONIYVIDEOMIX?COMMANDSHELL
  +--> ?PR?_MONIHSCOMM?COMMANDSHELL
  +--> ?PR?PCT_OSDACTIONFORHS?OSDACTION_
  +--> ?PR?_PCT_FLASHOSDCTRL?MAIN
  +--> ?PR?_MONIHSCOMMSJMODE?COMMANDSHELL
  +--> ?PR?REPEAT_PWM_COM?NED
  +--> ?PR?_PWM_SET?MAIN
  +--> ?PR?_MONISHOWSODSTR?COMMANDSHELL
BL51 BANKED LINKER/LOCATER V6.22                                                      02/19/2019  11:34:33  PAGE 9



?PR?COMMANDSHELL                                -----    -----      -----    -----      -----    -----
  +--> ?PR?PCT_SENDACK?COMMANDSHELL

?PR?_PCT_GETFIRSTSTR?COMMANDSHELL               -----    -----      -----    -----      01E3H    0006H
  +--> ?PR?COMMANDSHELL

?PR?_PCT_STRTOCOMMCODE?COMMANDSHELL             -----    -----      0008H    0002H      01DDH    0003H
  +--> ?PR?COMMANDSHELL

?PR?_MONIWRITEASICBYTE?COMMANDSHELL             -----    -----      0008H    0004H      -----    -----
  +--> ?PR?COMMANDSHELL
  +--> ?CO?COMMANDSHELL
  +--> ?PR?SCANF?SCANF
  +--> ?PR?_PCT_WRITEASICBYTE?BUSCTRL

?PR?SCANF?SCANF                                 0023H.0  0000H.6    000CH    0009H      01DDH    002EH
  +--> ?PR?GETCHAR?UNGETCHAR
  +--> ?PR?_ISSPACE?ISSPACE
  +--> ?PR?GETCHAR?GETCHAR
  +--> ?PR??C?ATOF??C?ATOF

?PR?GETCHAR?GETCHAR                             -----    -----      -----    -----      -----    -----
  +--> ?PR?_GETKEY?_GETKEY
  +--> ?PR?PUTCHAR?PUTCHAR

?PR??C?ATOF??C?ATOF                             0023H.6  0000H.5    0015H    0002H      -----    -----

?PR?_MONIYVIDEOMIX?COMMANDSHELL                 -----    -----      0008H    0001H      -----    -----
  +--> ?PR?COMMANDSHELL
  +--> ?CO?COMMANDSHELL
  +--> ?PR?SCANF?SCANF
  +--> ?PR?_PCT_SETYVIDEOMIXING?TW28XX_VIDEO

?PR?_PCT_SETYVIDEOMIXING?TW28XX_VIDEO           -----    -----      -----    -----      -----    -----
  +--> ?CO?TW28XX_VIDEO
  +--> ?PR?_PCT_WRITESTABLE?BUSCTRL

?PR?_PCT_WRITESTABLE?BUSCTRL                    -----    -----      -----    -----      01E4H    0003H
  +--> ?PR?BUSCTRL
  +--> ?PR?_PCT_READASICBYTE?BUSCTRL
  +--> ?PR?_PCT_WRITEASICBYTE?BUSCTRL

?PR?_MONIHSCOMM?COMMANDSHELL                    -----    -----      0008H    0003H      -----    -----
  +--> ?PR?COMMANDSHELL
  +--> ?CO?COMMANDSHELL
  +--> ?PR?SCANF?SCANF
  +--> ?PR?_PCT_WINATTRCTRLY?TW28XX_VIDEO
  +--> ?PR?_PCT_RECOMPENSEYHDELAY?TW28XX_VIDEO
  +--> ?PR?_PCT_SETVIDEOHDELAY?TW28XX_VIDEO
  +--> ?PR?_PCT_SETXVIDEOMIXING?TW28XX_VIDEO
  +--> ?PR?_PCT_WINATTRCTRL?TW28XX_VIDEO
  +--> ?PR?_PCT_FLASHOSDCTRL?MAIN
  +--> ?PR?_PCT_CHECKVMIXTYPE?COMMANDSHELL
  +--> ?PR?_PCT_DISSHOWOSDPAGE?OSDCTRL
  +--> ?PR?_PCT_CLEAROSDPAGEX?OSDCTRL
  +--> ?PR?PCT_SHOWMODEICON?OSDACTION_
BL51 BANKED LINKER/LOCATER V6.22                                                      02/19/2019  11:34:33  PAGE 10


  +--> ?PR?_PCT_OSD_ACTIONPTHX?OSDACTION_

?PR?_PCT_WINATTRCTRLY?TW28XX_VIDEO              -----    -----      -----    -----      01DDH    0003H
  +--> ?PR?TW28XX_VIDEO
  +--> ?PR?_PCT_READASICBYTE?BUSCTRL
  +--> ?PR?_PCT_WRITEASICBYTE?BUSCTRL

?PR?TW28XX_VIDEO                                -----    -----      -----    -----      -----    -----
  +--> ?CO?TW28XX_VIDEO

?PR?_PCT_RECOMPENSEYHDELAY?TW28XX_VIDEO         -----    -----      -----    -----      01DDH    0003H
  +--> ?PR?TW28XX_VIDEO
  +--> ?PR?_PCT_READASICBYTE?BUSCTRL
  +--> ?CO?TW28XX_VIDEO
  +--> ?PR?_PCT_WRITEASICBYTE?BUSCTRL

?PR?_PCT_SETVIDEOHDELAY?TW28XX_VIDEO            -----    -----      -----    -----      01DDH    0008H
  +--> ?PR?TW28XX_VIDEO
  +--> ?PR?_PCT_READASICBYTE?BUSCTRL
  +--> ?PR?_PCT_WRITEASICBYTE?BUSCTRL
  +--> ?CO?TW28XX_VIDEO

?PR?_PCT_SETXVIDEOMIXING?TW28XX_VIDEO           -----    -----      -----    -----      01DDH    0007H
  +--> ?PR?TW28XX_VIDEO
  +--> ?PR?_PCT_WRITEASICBYTE?BUSCTRL
  +--> ?CO?TW28XX_VIDEO
  +--> ?PR?_PCT_SETCHANELSCALE?TW28XX_VIDEO
  +--> ?PR?_PCT_WRITESTABLE?BUSCTRL

?PR?_PCT_SETCHANELSCALE?TW28XX_VIDEO            -----    -----      -----    -----      01E4H    0008H
  +--> ?PR?TW28XX_VIDEO
  +--> ?CO?TW28XX_VIDEO
  +--> ?PR?_PCT_WRITEASICBYTE?BUSCTRL

?PR?_PCT_WINATTRCTRL?TW28XX_VIDEO               -----    -----      -----    -----      01DDH    0003H
  +--> ?PR?TW28XX_VIDEO
  +--> ?PR?_PCT_READASICBYTE?BUSCTRL
  +--> ?PR?_PCT_WRITEASICBYTE?BUSCTRL

?PR?_PCT_CHECKVMIXTYPE?COMMANDSHELL             -----    -----      000BH    0001H      -----    -----
  +--> ?PR?COMMANDSHELL

?PR?_PCT_DISSHOWOSDPAGE?OSDCTRL                 -----    -----      -----    -----      01DDH    0003H
  +--> ?PR?OSDCTRL
  +--> ?PR?_PCT_READASICBYTE?BUSCTRL
  +--> ?PR?_PCT_WRITEASICBYTE?BUSCTRL

?PR?_PCT_CLEAROSDPAGEX?OSDCTRL                  -----    -----      -----    -----      -----    -----
  +--> ?PR?_PCT_SETOSDDRAWPAGE?OSDCTRL
  +--> ?PR?_PCT_PRESETBACKGROUNDCOLOR?OSDCTRL
  +--> ?PR?_PCT_FULLCOLORONOSD?OSDCTRL

?PR?PCT_SHOWMODEICON?OSDACTION_                 -----    -----      -----    -----      -----    -----
  +--> ?PR?_PCT_SETOSDDRAWPAGE?OSDCTRL
  +--> ?CO?OSDACTION_
  +--> ?PR?_PCT_SHOWGRAPHSTRING?OSD_GRAPH
  +--> ?PR?_PCT_PRESETBACKGROUNDCOLOR?OSDCTRL
BL51 BANKED LINKER/LOCATER V6.22                                                      02/19/2019  11:34:33  PAGE 11


  +--> ?PR?_PCT_PRESETFOREGROUNDCOLOR?OSDCTRL

?PR?_PCT_SHOWGRAPHSTRING?OSD_GRAPH              -----    -----      -----    -----      01E0H    0007H
  +--> ?PR?OSD_GRAPH
  +--> ?PR?_STRLEN?STRLEN
  +--> ?PR?_PCT_OSD16X16GRAPHX?OSD_GRAPH
  +--> ?PR?PTC_SWITCHTOI2CMODE?BUSCTRL

?PR?_PCT_OSD16X16GRAPHX?OSD_GRAPH               -----    -----      -----    -----      01E7H    000BH
  +--> ?CO?OSD_GRAPH
  +--> ?PR?OSD_GRAPH
  +--> ?PR?_PCT_WRITEASICBYTE?BUSCTRL
  +--> ?PR?_PCT_READASICBYTE?BUSCTRL

?PR?_PCT_OSD_ACTIONPTHX?OSDACTION_              -----    -----      -----    -----      01DDH    0003H
  +--> ?PR?OSDACTION_
  +--> ?PR?_PCT_PRESETFOREGROUNDCOLOR?OSDCTRL
  +--> ?PR?_PCT_PRESETBACKGROUNDCOLOR?OSDCTRL
  +--> ?PR?_PCT_SHOWGRAPHSTRING?OSD_GRAPH

?PR?OSDACTION_                                  -----    -----      -----    -----      -----    -----
  +--> ?CO?OSDACTION_

?PR?PCT_OSDACTIONFORHS?OSDACTION_               -----    -----      -----    -----      -----    -----
  +--> ?PR?_PCT_SETOSDDRAWPAGE?OSDCTRL
  +--> ?PR?_PCT_SHOWMIRRORICON?OSDACTION_
  +--> ?PR?_PCT_SHOWINDICATEICON?OSDACTION_
  +--> ?PR?PCT_ENFALSHVLOSS?OSDACTION_
  +--> ?PR?_PCT_ENSHOWOSDPAGE?OSDCTRL

?PR?_PCT_SHOWMIRRORICON?OSDACTION_              -----    -----      -----    -----      01DDH    0003H
  +--> ?PR?OSDACTION_
  +--> ?PR?_PCT_PRESETFOREGROUNDCOLOR?OSDCTRL
  +--> ?PR?_PCT_CLEARWORDSPATHX?OSDCTRL
  +--> ?PR?_PCT_SHOWGRAPHSTRING?OSD_GRAPH

?PR?_PCT_CLEARWORDSPATHX?OSDCTRL                -----    -----      -----    -----      01E0H    0007H
  +--> ?PR?OSDCTRL
  +--> ?PR?_PCT_WRITEASICBYTE?BUSCTRL
  +--> ?PR?_PCT_READASICBYTE?BUSCTRL

?PR?_PCT_SHOWINDICATEICON?OSDACTION_            -----    -----      0008H    0001H      01DDH    0003H
  +--> ?PR?OSDACTION_
  +--> ?PR?_PCT_PRESETFOREGROUNDCOLOR?OSDCTRL
  +--> ?PR?_PCT_CLEARWORDSPATHX?OSDCTRL
  +--> ?CO?OSDACTION_
  +--> ?PR?_PCT_SHOWGRAPHSTRING?OSD_GRAPH

?PR?_MONIHSCOMMSJMODE?COMMANDSHELL              -----    -----      -----    -----      -----    -----
  +--> ?PR?COMMANDSHELL
  +--> ?CO?COMMANDSHELL
  +--> ?PR?SCANF?SCANF

?PR?REPEAT_PWM_COM?NED                          -----    -----      -----    -----      -----    -----
  +--> ?PR?_WRITEBYTE?NED

?PR?_WRITEBYTE?NED                              -----    -----      -----    -----      -----    -----
BL51 BANKED LINKER/LOCATER V6.22                                                      02/19/2019  11:34:33  PAGE 12


  +--> ?PR?_WRITEI2C?NED

?PR?_PWM_SET?MAIN                               -----    -----      -----    -----      -----    -----
  +--> ?PR?MAIN
  +--> ?PR?_SET_PWM_OUTPUT?MAIN

?PR?_SET_PWM_OUTPUT?MAIN                        -----    -----      -----    -----      01DDH    0008H
  +--> ?CO?MAIN
  +--> ?PR?MAIN

?PR?_MONISHOWSODSTR?COMMANDSHELL                -----    -----      0008H    0002H      01DDH    0006H
  +--> ?PR?COMMANDSHELL
  +--> ?PR?_ATOI?ATOI
  +--> ?PR?_PCT_PRESETFOREGROUNDCOLOR?OSDCTRL
  +--> ?PR?_PCT_PRESETBACKGROUNDCOLOR?OSDCTRL
  +--> ?PR?_PCT_SETOSDDRAWPAGE?OSDCTRL
  +--> ?PR?_PCT_SHOWOSDSTRING?OSDCTRL
  +--> ?PR?_PCT_ENSHOWOSDPAGE?OSDCTRL
  +--> ?PR?_PCT_GETFIRSTSTR?COMMANDSHELL

?PR?_ATOI?ATOI                                  0023H.0  0000H.1    -----    -----      01E3H    0005H
  +--> ?PR?_ISSPACE?ISSPACE
  +--> ?PR?_ISDIGIT?ISDIGIT

?PR?_PCT_SHOWOSDSTRING?OSDCTRL                  -----    -----      -----    -----      01E3H    0007H
  +--> ?PR?OSDCTRL
  +--> ?PR?_STRLEN?STRLEN
  +--> ?PR?_PCT_WRITEOSDFNTX?OSDCTRL
  +--> ?PR?_PCT_WRITEOSDFNTY?OSDCTRL
  +--> ?PR?PTC_SWITCHTOI2CMODE?BUSCTRL

?PR?_PCT_WRITEOSDFNTX?OSDCTRL                   -----    -----      000AH    0003H      01EAH    0013H
  +--> ?PR?OSDCTRL
  +--> ?PR?_PCT_WRITEOSDDATABUFFERX?OSDCTRL
  +--> ?PR?_PCT_WRITEASICBYTE?BUSCTRL
  +--> ?PR?_PCT_READASICBYTE?BUSCTRL

?PR?_PCT_WRITEOSDDATABUFFERX?OSDCTRL            -----    -----      -----    -----      01FDH    0004H
  +--> ?PR?OSDCTRL
  +--> ?PR?_PCT_WRITEASICBYTE?BUSCTRL

?PR?_PCT_WRITEOSDFNTY?OSDCTRL                   -----    -----      000AH    0002H      01EAH    001FH
  +--> ?PR?OSDCTRL
  +--> ?PR?_PCT_WRITEOSDDATABUFFERY?OSDCTRL
  +--> ?PR?_PCT_WRITEASICBYTE?BUSCTRL
  +--> ?PR?_PCT_READASICBYTE?BUSCTRL

?PR?_PCT_WRITEOSDDATABUFFERY?OSDCTRL            -----    -----      -----    -----      0209H    0004H
  +--> ?PR?OSDCTRL
  +--> ?PR?_PCT_WRITEASICBYTE?BUSCTRL

?PR?_BOUND_SET?NED                              -----    -----      -----    -----      01D5H    0004H
  +--> ?CO?NED
  +--> ?PR?NED
  +--> ?PR?_PCT_WRITEASICBYTE?BUSCTRL

?PR?GPIO_CHECK?NED                              -----    -----      -----    -----      0006H    0002H
BL51 BANKED LINKER/LOCATER V6.22                                                      02/19/2019  11:34:33  PAGE 13


  +--> ?PR?_GPIOGETPORTSTATE?NED

?PR?_GPIOGETPORTSTATE?NED                       -----    -----      -----    -----      -----    -----
  +--> ?PR?_READI2C?NED

?PR?COMMANDSHELL?MAIN                           -----    -----      0008H    0001H      -----    -----
  +--> ?PR?RS_RXREADY?UART
  +--> ?PR?RS_RX?UART
  +--> ?PR?MAIN
  +--> ?PR?_SC16_BCC_CHECK?NED
  +--> ?PR?RESETCOMMSELL?MAIN

?PR?RS_RX?UART                                  -----    -----      -----    -----      -----    -----
  +--> ?PR?UART

?PR?_SC16_BCC_CHECK?NED                         -----    -----      -----    -----      0006H    0006H
  +--> ?PR?NED
  +--> ?PR?_RS_TX?UART
  +--> ?PR?_WRITEBYTE?NED
  +--> ?PR?SEND_CAMERA_TEMP?NED
  +--> ?PR?SEND_CAMERA_PRESS?NED
  +--> ?PR?SENT_CAMERA_ANG?NED
  +--> ?PR?SENT_CAMERA_RANG?NED
  +--> ?PR?_SENT_CAMERA_IRD?NED
  +--> ?PR?SENT_DVR_TEMP?NED
  +--> ?PR?VERSION_CHECK?MAIN
  +--> ?PR?CAMERA_VERSION_CHECK?MAIN
  +--> ?PR?CHECK_OTHER_COM?NED
  +--> ?PR?_SC16_SENDDATA?NED

?PR?SEND_CAMERA_TEMP?NED                        -----    -----      -----    -----      000CH    0001H
  +--> ?PR?NED
  +--> ?PR?_BCC_CAL?NED
  +--> ?PR?_RS_TX?UART

?PR?_BCC_CAL?NED                                -----    -----      -----    -----      000DH    0002H

?PR?SEND_CAMERA_PRESS?NED                       -----    -----      -----    -----      000CH    0001H
  +--> ?PR?NED
  +--> ?PR?_BCC_CAL?NED
  +--> ?PR?_RS_TX?UART

?PR?SENT_CAMERA_ANG?NED                         -----    -----      -----    -----      000CH    0001H
  +--> ?PR?NED
  +--> ?PR?_BCC_CAL?NED
  +--> ?PR?_RS_TX?UART

?PR?SENT_CAMERA_RANG?NED                        -----    -----      -----    -----      000CH    0001H
  +--> ?PR?NED
  +--> ?PR?_BCC_CAL?NED
  +--> ?PR?_RS_TX?UART

?PR?_SENT_CAMERA_IRD?NED                        -----    -----      -----    -----      000CH    0003H
  +--> ?PR?_RS_TX?UART

?PR?SENT_DVR_TEMP?NED                           -----    -----      -----    -----      000CH    0001H
  +--> ?PR?NED
BL51 BANKED LINKER/LOCATER V6.22                                                      02/19/2019  11:34:33  PAGE 14


  +--> ?PR?_BCC_CAL?NED
  +--> ?PR?_RS_TX?UART

?PR?VERSION_CHECK?MAIN                          -----    -----      -----    -----      000CH    0001H
  +--> ?PR?MAIN
  +--> ?PR?_RS_TX?UART

?PR?CAMERA_VERSION_CHECK?MAIN                   -----    -----      -----    -----      000CH    0001H
  +--> ?PR?MAIN
  +--> ?PR?_RS_TX?UART

?PR?CHECK_OTHER_COM?NED                         -----    -----      -----    -----      -----    -----
  +--> ?PR?_RS_TX?UART
  +--> ?PR?_SET_VIDEO?NED

?PR?_SET_VIDEO?NED                              -----    -----      -----    -----      000CH    0001H
  +--> ?PR?NED
  +--> ?PR?_PCT_WRITEASICBYTE?BUSCTRL

?PR?_SC16_SENDDATA?NED                          -----    -----      -----    -----      000CH    0002H
  +--> ?PR?_WRITEBYTE?NED

?PR?PCT_CHECKSYSTEM?COMMANDSHELL                -----    -----      -----    -----      -----    -----
  +--> ?PR?_PCT_DETECTVIDEOFORMAT?TW28XX_VIDEO
  +--> ?PR?_PCT_ENSHOWOSDPAGE?OSDCTRL
  +--> ?PR?_PCT_CHANGESYSTEMTYPE?TW2835_INIT
  +--> ?PR?_PCT_RECOMPENSEYHDELAY?TW28XX_VIDEO
  +--> ?PR?COMMANDSHELL
  +--> ?PR?_PCT_SETVIDEOHDELAY?TW28XX_VIDEO
  +--> ?PR?_PCT_SETXVIDEOMIXING?TW28XX_VIDEO
  +--> ?PR?_PCT_CLEAROSDPAGEX?OSDCTRL
  +--> ?PR?PCT_SHOWMODEICON?OSDACTION_
  +--> ?PR?_PCT_OSD_ACTIONPTHX?OSDACTION_
  +--> ?PR?PCT_OSDACTIONFORHS?OSDACTION_

?PR?_PCT_DETECTVIDEOFORMAT?TW28XX_VIDEO         -----    -----      -----    -----      0006H    0002H
  +--> ?PR?_PCT_READASICBYTE?BUSCTRL

?PR?_PCT_CHANGESYSTEMTYPE?TW2835_INIT           -----    -----      -----    -----      0006H    0002H
  +--> ?PR?TW2835_INIT
  +--> ?CO?TW2835_INIT
  +--> ?PR?_PCT_WRITEASICTABLE?BUSCTRL

?PR?PCT_GETVIDEOSIGNALSTATUS?OSDACTION_         -----    -----      -----    -----      -----    -----
  +--> ?PR?_PCT_READASICBYTE?BUSCTRL
  +--> ?PR?_PCT_WRITEASICBYTE?BUSCTRL
  +--> ?PR?_PCT_PRESETFOREGROUNDCOLOR?OSDCTRL
  +--> ?PR?_PCT_PRESETGRAPHATTR?OSD_GRAPH
  +--> ?PR?PCT_CLEARGRAPHATTR?OSD_GRAPH

?PR?CAMERA_MOVE?NED                             -----    -----      -----    -----      0006H    000CH
  +--> ?CO?NED
  +--> ?PR?NED
  +--> ?PR?_WRITEBYTE?NED

?PR?_SC16_DATA_RESET?NED                        -----    -----      -----    -----      -----    -----
  +--> ?PR?TEMP_CHECK?MAIN
BL51 BANKED LINKER/LOCATER V6.22                                                      02/19/2019  11:34:33  PAGE 15


  +--> ?PR?PRESS_CHECK?MAIN
  +--> ?PR?GET_CAMERA_ANG?NED
  +--> ?PR?GET_CAMERA_RANG?NED
  +--> ?PR?GET_DVR_TEMP?NED
  +--> ?PR?GET_CAMERA_VER?NED

?PR?TEMP_CHECK?MAIN                             -----    -----      -----    -----      -----    -----
  +--> ?PR?_READI2CWORD?NED

?PR?_READI2CWORD?NED                            -----    -----      -----    -----      0006H    0002H
  +--> ?PR?I2CSTART?NED
  +--> ?PR?_I2CWRITEDATA?NED
  +--> ?PR?NED
  +--> ?PR?I2CREADDATAWITHACK?NED
  +--> ?PR?I2CREADDATA?NED
  +--> ?PR?I2CSTOP?NED

?PR?I2CREADDATAWITHACK?NED                      -----    -----      -----    -----      -----    -----
  +--> ?PR?NED
  +--> ?PR?I2CDELAY?NED

?PR?PRESS_CHECK?MAIN                            -----    -----      -----    -----      0006H    0007H
  +--> ?PR?MAIN
  +--> ?PR?_ADC_READ?NED

?PR?GET_CAMERA_ANG?NED                          -----    -----      -----    -----      -----    -----
  +--> ?PR?_WRITEBYTE?NED

?PR?GET_CAMERA_RANG?NED                         -----    -----      -----    -----      -----    -----
  +--> ?PR?_WRITEBYTE?NED

?PR?GET_DVR_TEMP?NED                            -----    -----      -----    -----      -----    -----
  +--> ?PR?_WRITEBYTE?NED

?PR?GET_CAMERA_VER?NED                          -----    -----      -----    -----      -----    -----
  +--> ?PR?_WRITEBYTE?NED

?PR?SC16_DATACHECK?NED                          -----    -----      -----    -----      0006H    0003H
  +--> ?PR?_SC16_SENDDATASELECT?NED

?PR?_SC16_SENDDATASELECT?NED                    -----    -----      -----    -----      0009H    0009H
  +--> ?PR?NED
  +--> ?PR?_READI2C?NED
  +--> ?PR?_READBYTE?NED
  +--> ?PR?_RS_TX?UART
  +--> ?PR?_SC16_COMCHECK?NED

?PR?_READBYTE?NED                               -----    -----      -----    -----      -----    -----
  +--> ?PR?_READI2C?NED

?PR?_SC16_COMCHECK?NED                          -----    -----      -----    -----      0012H    0002H
  +--> ?PR?NED

?PR?_SET_CAMERA_SPEED?NED                       -----    -----      -----    -----      -----    -----
  +--> ?PR?_WRITEBYTE?NED

*** NEW ROOT ***************************************************
BL51 BANKED LINKER/LOCATER V6.22                                                      02/19/2019  11:34:33  PAGE 16



?PR?RS_INTERRUPT?UART                           -----    -----      -----    -----      -----    -----
  +--> ?PR?UART



SYMBOL TABLE OF MODULE:  .\OBJ\NED_5MCMOS_v0_a_d_XXXX_20190219 (?C_STARTUP)

  VALUE           TYPE          NAME
  ----------------------------------

  -------         MODULE        ?C_STARTUP
  C:6DDDH         SEGMENT       ?C_C51STARTUP
  I:0031H         SEGMENT       ?STACK
  C:0000H         PUBLIC        ?C_STARTUP
  D:00E0H         SYMBOL        ACC
  D:00F0H         SYMBOL        B
  D:0083H         SYMBOL        DPH
  D:0082H         SYMBOL        DPL
  N:0000H         SYMBOL        IBPSTACK
  N:0100H         SYMBOL        IBPSTACKTOP
  N:0080H         SYMBOL        IDATALEN
  C:6DE0H         SYMBOL        IDATALOOP
  N:0000H         SYMBOL        PBPSTACK
  N:0100H         SYMBOL        PBPSTACKTOP
  N:0000H         SYMBOL        PDATALEN
  N:0000H         SYMBOL        PDATASTART
  N:0000H         SYMBOL        PPAGE
  N:0000H         SYMBOL        PPAGEENABLE
  D:00A0H         SYMBOL        PPAGE_SFR
  D:0081H         SYMBOL        SP
  C:6DDDH         SYMBOL        STARTUP1
  N:0000H         SYMBOL        XBPSTACK
  N:0000H         SYMBOL        XBPSTACKTOP
  N:0000H         SYMBOL        XDATALEN
  N:0000H         SYMBOL        XDATASTART
  C:0000H         LINE#         126
  C:6DDDH         LINE#         133
  C:6DDFH         LINE#         134
  C:6DE0H         LINE#         135
  C:6DE1H         LINE#         136
  C:6DE3H         LINE#         185
  C:6DE6H         LINE#         196
  -------         ENDMOD        ?C_STARTUP

  -------         MODULE        UART
  C:0000H         SYMBOL        _ICE_DUMMY_
  D:0080H         PUBLIC        P0
  D:0090H         PUBLIC        P1
  D:00A0H         PUBLIC        P2
  D:00C0H         PUBLIC        XICON
  D:00B0H         PUBLIC        P3
  D:00E8H         PUBLIC        P4
  C:81F4H         PUBLIC        InitialUART
  D:00A8H         PUBLIC        IE
  X:0294H         PUBLIC        RS_RECVBUF
  B:00A8H.4       PUBLIC        ES
BL51 BANKED LINKER/LOCATER V6.22                                                      02/19/2019  11:34:33  PAGE 17


  D:00B8H         PUBLIC        IP
  B:0098H.0       PUBLIC        RI
  B:0098H.1       PUBLIC        TI
  B:00B8H.4       PUBLIC        PS
  D:00D8H         PUBLIC        CCON
  D:0099H         PUBLIC        SBUF
  D:00C0H         PUBLIC        WDTC
  D:0098H         PUBLIC        SCON
  D:0088H         PUBLIC        TCON
  C:82BAH         PUBLIC        RS_RxReady
  D:008DH         PUBLIC        TH1
  D:008BH         PUBLIC        TL1
  X:02F8H         PUBLIC        RsRxRp
  B:0088H.6       PUBLIC        TR1
  X:02F9H         PUBLIC        RsRxWp
  D:00F8H         PUBLIC        IPA
  D:00C8H         PUBLIC        T2CON
  C:81C2H         PUBLIC        RS_rx
  C:0003H         PUBLIC        _RS_tx
  C:7F1FH         PUBLIC        RS_interrupt
  D:00D0H         PUBLIC        PSW
  C:834BH         SYMBOL        Com000E
  C:834BH         SYMBOL        L?0015
  -------         PROC          COM000E
  -------         ENDPROC       COM000E
  -------         PROC          INITIALUART
  C:81F4H         LINE#         75
  C:81F4H         LINE#         76
  C:81F4H         LINE#         79
  C:81F6H         LINE#         80
  C:81F8H         LINE#         84
  C:81FBH         LINE#         99
  C:81FEH         LINE#         103
  C:8201H         LINE#         104
  C:8203H         LINE#         106
  C:8207H         LINE#         107
  C:8209H         LINE#         108
  -------         ENDPROC       INITIALUART
  -------         PROC          RS_RXREADY
  C:82BAH         LINE#         114
  C:82BAH         LINE#         115
  C:82BAH         LINE#         116
  C:82C7H         LINE#         117
  C:82C9H         LINE#         118
  -------         ENDPROC       RS_RXREADY
  -------         PROC          RS_RX
  -------         DO            
  D:0007H         SYMBOL        ret
  -------         ENDDO         
  C:81C2H         LINE#         124
  C:81C2H         LINE#         125
  C:81C2H         LINE#         131
  C:81CAH         LINE#         132
  C:81D0H         LINE#         133
  C:81D6H         LINE#         134
  C:81D8H         LINE#         138
  C:81DAH         LINE#         140
BL51 BANKED LINKER/LOCATER V6.22                                                      02/19/2019  11:34:33  PAGE 18


  C:81DAH         LINE#         141
  -------         ENDPROC       RS_RX
  -------         PROC          _RS_TX
  D:0007H         SYMBOL        tx_buf
  C:0003H         LINE#         147
  C:0003H         LINE#         148
  C:0003H         LINE#         166
  C:0003H         LINE#         167
  C:0003H         LINE#         169
  C:0006H         LINE#         178
  C:0008H         LINE#         179
  C:000AH         LINE#         180
  C:000AH         LINE#         181
  C:000AH         LINE#         182
  C:000AH         LINE#         185
  -------         ENDPROC       _RS_TX
  -------         PROC          RS_INTERRUPT
  C:7F1FH         LINE#         193
  C:7F27H         LINE#         196
  C:7F2AH         LINE#         197
  C:7F2CH         LINE#         206
  C:7F35H         LINE#         210
  C:7F3BH         LINE#         211
  C:7F43H         LINE#         218
  C:7F43H         LINE#         221
  -------         ENDPROC       RS_INTERRUPT
  -------         ENDMOD        UART

  -------         MODULE        BUSCTRL
  C:0000H         SYMBOL        _ICE_DUMMY_
  D:0080H         PUBLIC        P0
  D:0090H         PUBLIC        P1
  D:00A0H         PUBLIC        P2
  D:00C0H         PUBLIC        XICON
  D:00B0H         PUBLIC        P3
  D:00E8H         PUBLIC        P4
  B:00A8H.7       PUBLIC        EA
  D:00A8H         PUBLIC        IE
  C:779FH         PUBLIC        _PCT_WriteSTable
  D:00B8H         PUBLIC        IP
  B:00A0H.3       PUBLIC        HALE
  B:00A0H.2       PUBLIC        HRDB
  D:00D8H         PUBLIC        CCON
  D:00C0H         PUBLIC        WDTC
  B:00A0H.1       PUBLIC        HWRB
  D:0098H         PUBLIC        SCON
  D:0088H         PUBLIC        TCON
  C:6F77H         PUBLIC        _PCT_WriteAsicTable
  C:0029H         PUBLIC        PTC_SwitchToI2CMode
  B:00B0H.6       PUBLIC        HCSB0
  B:00B0H.7       PUBLIC        HCSB1
  D:00F8H         PUBLIC        IPA
  C:6E69H         PUBLIC        _PCT_ReadAsicByte
  D:00C8H         PUBLIC        T2CON
  C:73E8H         PUBLIC        _PCT_WriteAsicByte
  D:00D0H         PUBLIC        PSW
  C:7CF6H         SYMBOL        Com0038
BL51 BANKED LINKER/LOCATER V6.22                                                      02/19/2019  11:34:33  PAGE 19


  C:7CF6H         SYMBOL        L?0057
  C:7CF9H         SYMBOL        L?0058
  C:7CFBH         SYMBOL        L?0059
  C:7D03H         SYMBOL        L?0060
  C:7D03H         SYMBOL        L?0061
  C:7D0BH         SYMBOL        L?0062
  C:7D0BH         SYMBOL        L?0063
  C:7D12H         SYMBOL        L?0064
  C:7D1EH         SYMBOL        L?0065
  C:7D28H         SYMBOL        L?0066
  -------         PROC          COM0038
  -------         ENDPROC       COM0038
  -------         PROC          _PCT_WRITEASICBYTE
  D:0007H         SYMBOL        _dvc
  X:020EH         SYMBOL        _pg
  X:020FH         SYMBOL        _addr
  X:0210H         SYMBOL        _wdat
  C:73E8H         LINE#         63
  C:73EBH         LINE#         64
  C:73EBH         LINE#         65
  C:73EBH         LINE#         67
  C:73EEH         LINE#         70
  C:73F1H         LINE#         75
  C:73FEH         LINE#         76
  C:7408H         LINE#         77
  C:7410H         LINE#         78
  C:7413H         LINE#         79
  C:7413H         LINE#         82
  C:7426H         LINE#         84
  C:7428H         LINE#         85
  C:742EH         LINE#         86
  C:7430H         LINE#         89
  C:7443H         LINE#         92
  C:7445H         LINE#         96
  C:7448H         LINE#         101
  C:7448H         LINE#         102
  C:7448H         LINE#         103
  C:7448H         LINE#         104
  C:744BH         LINE#         105
  -------         ENDPROC       _PCT_WRITEASICBYTE
  -------         PROC          _PCT_WRITEASICTABLE
  D:0007H         SYMBOL        _dvc
  X:01D8H         SYMBOL        _pg
  X:01D9H         SYMBOL        _addr
  X:01DAH         SYMBOL        _tbl_ptr
  X:01DDH         SYMBOL        _tbl_cnt
  C:6F77H         LINE#         111
  C:6F7AH         LINE#         112
  C:6F7AH         LINE#         113
  C:6F7AH         LINE#         115
  C:6F7DH         LINE#         119
  C:6F80H         LINE#         124
  C:6F8DH         LINE#         125
  C:6F97H         LINE#         126
  C:6F9FH         LINE#         128
  C:6F9FH         LINE#         129
  C:6FA8H         LINE#         130
BL51 BANKED LINKER/LOCATER V6.22                                                      02/19/2019  11:34:33  PAGE 20


  C:6FA8H         LINE#         133
  C:6FBBH         LINE#         136
  C:6FBDH         LINE#         138
  C:6FD2H         LINE#         139
  C:6FD4H         LINE#         142
  C:6FE7H         LINE#         145
  C:6FE9H         LINE#         146
  C:6FF1H         LINE#         150
  C:6FF4H         LINE#         155
  C:6FF4H         LINE#         156
  C:6FF4H         LINE#         157
  C:6FF4H         LINE#         158
  C:6FF7H         LINE#         159
  -------         ENDPROC       _PCT_WRITEASICTABLE
  -------         PROC          _PCT_READASICBYTE
  X:0209H         SYMBOL        _dvc
  X:020AH         SYMBOL        _pg
  X:020BH         SYMBOL        _addr
  -------         DO            
  X:020CH         SYMBOL        _rdat_
  -------         ENDDO         
  C:6E69H         LINE#         165
  C:6E74H         LINE#         166
  C:6E74H         LINE#         169
  C:6E76H         LINE#         173
  C:6E79H         LINE#         178
  C:6E7EH         LINE#         179
  C:6E89H         LINE#         180
  C:6E93H         LINE#         181
  C:6E9BH         LINE#         183
  C:6E9EH         LINE#         184
  C:6E9EH         LINE#         186
  C:6EB1H         LINE#         189
  C:6EB3H         LINE#         190
  C:6EB6H         LINE#         192
  C:6EC9H         LINE#         196
  C:6ECBH         LINE#         197
  C:6ED1H         LINE#         201
  C:6EE4H         LINE#         204
  C:6EE6H         LINE#         208
  C:6EE9H         LINE#         213
  C:6EEBH         LINE#         214
  C:6EEDH         LINE#         215
  C:6EEFH         LINE#         216
  C:6EF4H         LINE#         217
  -------         ENDPROC       _PCT_READASICBYTE
  -------         PROC          _PCT_WRITESTABLE
  D:0007H         SYMBOL        _dvc
  X:01E4H         SYMBOL        _tbl_ptr
  C:779FH         LINE#         224
  C:77AAH         LINE#         225
  C:77AAH         LINE#         229
  C:77AAH         LINE#         230
  C:77B8H         LINE#         231
  C:77D2H         LINE#         232
  C:77D2H         LINE#         233
  C:77E4H         LINE#         234
BL51 BANKED LINKER/LOCATER V6.22                                                      02/19/2019  11:34:33  PAGE 21


  C:77E4H         LINE#         235
  C:77EEH         LINE#         236
  C:77F0H         LINE#         237
  -------         ENDPROC       _PCT_WRITESTABLE
  -------         PROC          PTC_SWITCHTOI2CMODE
  C:0029H         LINE#         243
  C:0029H         LINE#         244
  C:0029H         LINE#         254
  -------         ENDPROC       PTC_SWITCHTOI2CMODE
  -------         ENDMOD        BUSCTRL

  -------         MODULE        COMMANDSHELL
  C:0000H         SYMBOL        _ICE_DUMMY_
  D:0080H         PUBLIC        P0
  D:0090H         PUBLIC        P1
  D:00A0H         PUBLIC        P2
  D:00C0H         PUBLIC        XICON
  D:00B0H         PUBLIC        P3
  D:00E8H         PUBLIC        P4
  C:820AH         PUBLIC        _MoniHSCommSJmode
  C:6006H         PUBLIC        _PCT_RunCommShell
  D:00A8H         PUBLIC        IE
  D:00B8H         PUBLIC        IP
  C:818EH         PUBLIC        _MoniYVideoMix
  X:033FH         PUBLIC        sysdat
  D:00D8H         PUBLIC        CCON
  C:002AH         PUBLIC        PCT_SendACK
  C:71D6H         PUBLIC        _PCT_GetFirstStr
  C:72B3H         PUBLIC        PCT_CheckSystem
  D:00C0H         PUBLIC        WDTC
  D:0098H         PUBLIC        SCON
  D:0088H         PUBLIC        TCON
  C:7841H         PUBLIC        _MoniWriteAsicByte
  C:58E5H         PUBLIC        _MoniHSComm
  X:0350H         PUBLIC        msg
  C:7CB9H         PUBLIC        _PCT_StrToCommCode
  C:7A99H         PUBLIC        _PCT_CheckVMixType
  D:00F8H         PUBLIC        IPA
  C:7383H         PUBLIC        _MoniShowSODStr
  D:00C8H         PUBLIC        T2CON
  X:035BH         PUBLIC        Original_selwintype
  D:00D0H         PUBLIC        PSW
  C:6EF5H         SYMBOL        Com0033
  C:6EF5H         SYMBOL        L?0052
  C:6EF5H         SYMBOL        L?0053
  C:6EF8H         SYMBOL        L?0054
  C:6EFBH         SYMBOL        L?0055
  C:6F04H         SYMBOL        L?0057
  C:6F05H         SYMBOL        L?0058
  C:6F0CH         SYMBOL        L?0059
  C:6F0DH         SYMBOL        L?0060
  C:6F1AH         SYMBOL        L?0061
  C:6F2AH         SYMBOL        L?0062
  C:6F31H         SYMBOL        L?0065
  C:6F31H         SYMBOL        L?0066
  C:6F32H         SYMBOL        L?0067
  C:6F3AH         SYMBOL        L?0068
BL51 BANKED LINKER/LOCATER V6.22                                                      02/19/2019  11:34:33  PAGE 22


  C:6F41H         SYMBOL        L?0069
  C:6F41H         SYMBOL        L?0070
  C:6F4BH         SYMBOL        L?0072
  C:6F4BH         SYMBOL        L?0073
  C:6F53H         SYMBOL        L?0074
  C:6F5AH         SYMBOL        L?0075
  C:6F5AH         SYMBOL        L?0076
  C:6F61H         SYMBOL        L?0077
  C:6F61H         SYMBOL        L?0078
  C:6F6AH         SYMBOL        L?0079
  C:6F6AH         SYMBOL        L?0080
  C:6F70H         SYMBOL        L?0081
  -------         PROC          COM0033
  -------         ENDPROC       COM0033
  -------         PROC          _PCT_GETFIRSTSTR
  X:01E3H         SYMBOL        tagStr
  X:01E6H         SYMBOL        sourceStr
  C:71D6H         LINE#         88
  C:71DCH         LINE#         89
  C:71DCH         LINE#         90
  C:71E7H         LINE#         91
  C:71FEH         LINE#         92
  C:7216H         LINE#         93
  C:7218H         LINE#         94
  C:7218H         LINE#         95
  C:7225H         LINE#         96
  C:7229H         LINE#         97
  C:7232H         LINE#         98
  C:7235H         LINE#         99
  C:7238H         LINE#         100
  C:723BH         LINE#         101
  C:7244H         LINE#         102
  -------         ENDPROC       _PCT_GETFIRSTSTR
  -------         PROC          _PCT_STRTOCOMMCODE
  X:01DDH         SYMBOL        Str
  -------         DO            
  D:0008H         SYMBOL        ret
  -------         ENDDO         
  C:7CB9H         LINE#         112
  C:7CBFH         LINE#         113
  C:7CBFH         LINE#         114
  C:7CC4H         LINE#         116
  C:7CF1H         LINE#         117
  C:7CF5H         LINE#         118
  -------         ENDPROC       _PCT_STRTOCOMMCODE
  -------         PROC          PCT_SENDACK
  C:002AH         LINE#         124
  C:002AH         LINE#         125
  C:002AH         LINE#         131
  -------         ENDPROC       PCT_SENDACK
  -------         PROC          _PCT_CHECKVMIXTYPE
  D:0007H         SYMBOL        _typ
  -------         DO            
  D:000BH         SYMBOL        tmplktp
  -------         ENDDO         
  C:7A99H         LINE#         143
  C:7A99H         LINE#         144
BL51 BANKED LINKER/LOCATER V6.22                                                      02/19/2019  11:34:33  PAGE 23


  C:7A99H         LINE#         145
  C:7A9CH         LINE#         147
  C:7AA2H         LINE#         148
  C:7AA9H         LINE#         149
  C:7AAFH         LINE#         150
  C:7ABBH         LINE#         152
  C:7AC9H         LINE#         153
  C:7ACFH         LINE#         155
  C:7ACFH         LINE#         156
  C:7AD5H         LINE#         157
  C:7ADBH         LINE#         158
  C:7AE0H         LINE#         159
  -------         ENDPROC       _PCT_CHECKVMIXTYPE
  -------         PROC          _MONIWRITEASICBYTE
  D:0001H         SYMBOL        szParam
  -------         DO            
  D:0008H         SYMBOL        _dev
  D:0009H         SYMBOL        _pg
  D:000AH         SYMBOL        _addr
  D:000BH         SYMBOL        _wdat
  -------         ENDDO         
  C:7841H         LINE#         212
  C:7841H         LINE#         213
  C:7841H         LINE#         214
  C:7844H         LINE#         215
  C:7846H         LINE#         216
  C:7848H         LINE#         217
  C:784AH         LINE#         219
  C:787FH         LINE#         220
  -------         ENDPROC       _MONIWRITEASICBYTE
  -------         PROC          _MONIYVIDEOMIX
  D:0001H         SYMBOL        szParam
  -------         DO            
  D:0008H         SYMBOL        chan
  -------         ENDDO         
  C:818EH         LINE#         531
  C:818EH         LINE#         532
  C:818EH         LINE#         535
  C:81A3H         LINE#         536
  -------         ENDPROC       _MONIYVIDEOMIX
  C:73CDH         SYMBOL        L?0064
  -------         PROC          _MONISHOWSODSTR
  X:01DDH         SYMBOL        szParam
  -------         DO            
  D:0008H         SYMBOL        addrx
  D:0009H         SYMBOL        addry
  X:01E0H         SYMBOL        getStr
  -------         ENDDO         
  C:7383H         LINE#         606
  C:7389H         LINE#         607
  C:7389H         LINE#         611
  C:7389H         LINE#         612
  C:7394H         LINE#         613
  C:7394H         LINE#         614
  C:739FH         LINE#         616
  C:73A4H         LINE#         617
  C:73A9H         LINE#         618
BL51 BANKED LINKER/LOCATER V6.22                                                      02/19/2019  11:34:33  PAGE 24


  C:73AEH         LINE#         619
  C:73C8H         LINE#         620
  C:73CDH         LINE#         621
  -------         ENDPROC       _MONISHOWSODSTR
  -------         PROC          _MONIHSCOMM
  D:0001H         SYMBOL        szParam
  -------         DO            
  D:0008H         SYMBOL        winid
  D:0009H         SYMBOL        chose
  D:000AH         SYMBOL        wintp
  -------         ENDDO         
  C:58E5H         LINE#         658
  C:58E5H         LINE#         662
  C:5957H         LINE#         665
  C:5973H         LINE#         669
  C:597DH         LINE#         670
  C:5987H         LINE#         671
  C:5992H         LINE#         672
  C:599DH         LINE#         674
  C:59A8H         LINE#         675
  C:59B3H         LINE#         676
  C:59BEH         LINE#         677
  C:59C9H         LINE#         684
  C:59D2H         LINE#         685
  C:59DBH         LINE#         688
  C:59E6H         LINE#         691
  C:59E9H         LINE#         692
  C:5A05H         LINE#         697
  C:5A0AH         LINE#         698
  C:5A0FH         LINE#         699
  C:5A14H         LINE#         701
  C:5A1CH         LINE#         702
  C:5A21H         LINE#         703
  C:5A26H         LINE#         704
  C:5A29H         LINE#         705
  C:5A32H         LINE#         706
  C:5A3AH         LINE#         724
  -------         ENDPROC       _MONIHSCOMM
  -------         PROC          PCT_CHECKSYSTEM
  -------         DO            
  D:0007H         SYMBOL        TempSystem
  -------         ENDDO         
  C:72B3H         LINE#         731
  C:72B3H         LINE#         732
  C:72B3H         LINE#         735
  C:72B8H         LINE#         737
  C:72BCH         LINE#         738
  C:72BEH         LINE#         739
  C:72C5H         LINE#         740
  C:72C7H         LINE#         741
  C:72CCH         LINE#         744
  C:72DCH         LINE#         746
  C:72E1H         LINE#         750
  C:72E9H         LINE#         751
  C:72F2H         LINE#         752
  C:72FBH         LINE#         754
  C:7306H         LINE#         758
BL51 BANKED LINKER/LOCATER V6.22                                                      02/19/2019  11:34:33  PAGE 25


  C:730BH         LINE#         759
  C:730EH         LINE#         760
  C:7317H         LINE#         761
  C:731AH         LINE#         764
  C:731BH         LINE#         765
  -------         ENDPROC       PCT_CHECKSYSTEM
  -------         PROC          _MONIHSCOMMSJMODE
  D:0001H         SYMBOL        szParam
  C:820AH         LINE#         772
  C:820AH         LINE#         773
  C:820AH         LINE#         774
  -------         ENDPROC       _MONIHSCOMMSJMODE
  C:60F0H         SYMBOL        L?0056
  C:60FAH         SYMBOL        L?0063
  C:6104H         SYMBOL        L?0071
  -------         PROC          _PCT_RUNCOMMSHELL
  X:01D5H         SYMBOL        strptr
  -------         DO            
  X:01D8H         SYMBOL        commcode
  X:01DAH         SYMBOL        getStr
  -------         ENDDO         
  C:6006H         LINE#         802
  C:600CH         LINE#         803
  C:600CH         LINE#         819
  C:6023H         LINE#         822
  C:6034H         LINE#         838
  C:6043H         LINE#         841
  C:6049H         LINE#         843
  C:604CH         LINE#         896
  C:605BH         LINE#         898
  C:605BH         LINE#         900
  C:6061H         LINE#         902
  C:6064H         LINE#         924
  C:6073H         LINE#         925
  C:6073H         LINE#         927
  C:6079H         LINE#         930
  C:607CH         LINE#         931
  C:6081H         LINE#         944
  C:6093H         LINE#         945
  C:6093H         LINE#         947
  C:6099H         LINE#         948
  C:609BH         LINE#         962
  C:60ABH         LINE#         963
  C:60ABH         LINE#         965
  C:60B3H         LINE#         970
  C:60B5H         LINE#         971
  C:60C5H         LINE#         972
  C:60C5H         LINE#         974
  C:60C8H         LINE#         975
  C:60D0H         LINE#         981
  C:60D2H         LINE#         982
  C:60E7H         LINE#         983
  C:60E7H         LINE#         984
  C:60EDH         LINE#         985
  C:60EDH         LINE#         1015
  C:60EDH         LINE#         1016
  C:60EDH         LINE#         1021
BL51 BANKED LINKER/LOCATER V6.22                                                      02/19/2019  11:34:33  PAGE 26


  C:60EFH         LINE#         1022
  -------         ENDPROC       _PCT_RUNCOMMSHELL
  -------         ENDMOD        COMMANDSHELL

  -------         MODULE        MAIN
  C:0000H         SYMBOL        _ICE_DUMMY_
  D:0094H         PUBLIC        P0M1
  D:0091H         PUBLIC        P1M0
  D:00F6H         PUBLIC        PCAPWM4
  D:0095H         PUBLIC        P2M0
  D:0092H         PUBLIC        P1M1
  D:00F7H         PUBLIC        PCAPWM5
  D:0080H         PUBLIC        P0
  D:00B1H         PUBLIC        P3M0
  D:0096H         PUBLIC        P2M1
  D:0090H         PUBLIC        P1
  X:02FBH         PUBLIC        CB_flag
  D:00B2H         PUBLIC        P3M1
  D:00B3H         PUBLIC        P4M0
  D:00A0H         PUBLIC        P2
  D:00B4H         PUBLIC        P4M1
  D:00C0H         PUBLIC        XICON
  D:00B0H         PUBLIC        P3
  D:00E8H         PUBLIC        P4
  X:02FCH         PUBLIC        Temp_timeout
  D:00E1H         PUBLIC        WDTCR
  B:00A8H.7       PUBLIC        EA
  X:02FDH         PUBLIC        RScommand
  D:00F9H         PUBLIC        CH
  C:82DAH         PUBLIC        PWM_init
  D:00A8H         PUBLIC        IE
  D:00E9H         PUBLIC        CL
  D:00FAH         PUBLIC        CCAP0H
  B:0090H.1       PUBLIC        P1_1
  D:00FBH         PUBLIC        CCAP1H
  B:0090H.2       PUBLIC        P1_2
  D:00FCH         PUBLIC        CCAP2H
  B:0090H.3       PUBLIC        P1_3
  D:00FDH         PUBLIC        CCAP3H
  B:00E8H.1       PUBLIC        P4_1
  B:0090H.4       PUBLIC        P1_4
  D:00FEH         PUBLIC        CCAP4H
  D:00EAH         PUBLIC        CCAP0L
  B:0090H.5       PUBLIC        P1_5
  D:00FFH         PUBLIC        CCAP5H
  D:00EBH         PUBLIC        CCAP1L
  D:00DAH         PUBLIC        CCAPM0
  B:0024H.3       PUBLIC        VlossFlag
  B:0090H.6       PUBLIC        P1_6
  D:00ECH         PUBLIC        CCAP2L
  D:00DBH         PUBLIC        CCAPM1
  B:0090H.7       PUBLIC        P1_7
  D:00EDH         PUBLIC        CCAP3L
  D:00DCH         PUBLIC        CCAPM2
  D:00EEH         PUBLIC        CCAP4L
  D:00DDH         PUBLIC        CCAPM3
  D:00B8H         PUBLIC        IP
BL51 BANKED LINKER/LOCATER V6.22                                                      02/19/2019  11:34:33  PAGE 27


  D:00EFH         PUBLIC        CCAP5L
  D:00DEH         PUBLIC        CCAPM4
  C:3B8FH         PUBLIC        _Monitor_set
  D:00DFH         PUBLIC        CCAPM5
  B:0098H.1       PUBLIC        TI
  C:7F4CH         PUBLIC        _PWM_set
  X:0328H         PUBLIC        SC16_com_state
  D:00D9H         PUBLIC        CMOD
  D:00D8H         PUBLIC        CCON
  C:5339H         PUBLIC        main
  C:80A3H         PUBLIC        ResetCommSell
  D:0020H         PUBLIC        commFlag
  X:0329H         PUBLIC        timerout1
  B:0024H.4       PUBLIC        data_chk_flag
  X:032BH         PUBLIC        timerout2
  D:0087H         PUBLIC        PCON
  X:032DH         PUBLIC        timerout3
  X:032FH         PUBLIC        timerout4
  X:0331H         PUBLIC        boot_flag
  D:00C0H         PUBLIC        WDTC
  D:0098H         PUBLIC        SCON
  D:0089H         PUBLIC        TMOD
  D:0088H         PUBLIC        TCON
  C:8360H         PUBLIC        _PCT_FlashOSDCtrl
  C:6684H         PUBLIC        CommandShell
  D:008EH         PUBLIC        AUXR
  X:0332H         PUBLIC        work_flag
  X:0333H         PUBLIC        Small_f
  C:79BBH         PUBLIC        InitialMPU
  C:4CA5H         SYMBOL        _?ix1000
  B:0020H.0       PUBLIC        comm_chk_flag
  C:4D94H         SYMBOL        _?ix1010
  C:4CABH         SYMBOL        _?ix1001
  C:4DBAH         SYMBOL        _?ix1011
  C:4CB9H         SYMBOL        _?ix1002
  C:4DE0H         SYMBOL        _?ix1012
  C:4CC7H         SYMBOL        _?ix1003
  C:4E06H         SYMBOL        _?ix1013
  C:4CCFH         SYMBOL        _?ix1004
  C:4E2CH         SYMBOL        _?ix1014
  C:4CD6H         SYMBOL        _?ix1005
  C:4E52H         SYMBOL        _?ix1015
  C:4CFCH         SYMBOL        _?ix1006
  C:4D22H         SYMBOL        _?ix1007
  C:4D48H         SYMBOL        _?ix1008
  C:4D6EH         SYMBOL        _?ix1009
  C:774AH         PUBLIC        Version_check
  X:0334H         PUBLIC        Main_f
  X:0335H         PUBLIC        ADC_Val
  X:0339H         PUBLIC        m_current
  C:77F1H         PUBLIC        _Wait_ms
  C:833FH         PUBLIC        InitialCommShell
  D:00F8H         PUBLIC        IPA
  B:0020H.1       PUBLIC        osd_chk_flag
  X:033AH         PUBLIC        PIP_flag
  D:00C8H         PUBLIC        T2CON
  X:033BH         PUBLIC        CB_timeout
BL51 BANKED LINKER/LOCATER V6.22                                                      02/19/2019  11:34:33  PAGE 28


  C:62FAH         PUBLIC        Press_check
  X:033CH         PUBLIC        _delay
  D:00A2H         PUBLIC        AUXR1
  X:033EH         PUBLIC        timer2_loop
  D:00A6H         PUBLIC        AUXR2
  C:682AH         PUBLIC        _Set_PWM_Output
  C:7577H         PUBLIC        Camera_Version_check
  C:7697H         PUBLIC        Temp_check
  D:00F2H         PUBLIC        PCAPWM0
  D:00D0H         PUBLIC        PSW
  D:00F3H         PUBLIC        PCAPWM1
  D:00F4H         PUBLIC        PCAPWM2
  D:0093H         PUBLIC        P0M0
  D:00F5H         PUBLIC        PCAPWM3
  C:68F8H         SYMBOL        Com00B7
  C:68F8H         SYMBOL        L?0184
  C:68FCH         SYMBOL        L?0185
  C:6903H         SYMBOL        L?0186
  C:6903H         SYMBOL        L?0187
  C:690CH         SYMBOL        L?0188
  C:6911H         SYMBOL        L?0189
  C:6914H         SYMBOL        L?0190
  C:691CH         SYMBOL        L?0191
  C:691CH         SYMBOL        L?0192
  C:6928H         SYMBOL        L?0193
  C:6932H         SYMBOL        L?0194
  C:6938H         SYMBOL        L?0195
  C:693AH         SYMBOL        L?0196
  C:6941H         SYMBOL        L?0197
  C:694AH         SYMBOL        L?0198
  C:6955H         SYMBOL        L?0199
  C:6956H         SYMBOL        L?0200
  C:695DH         SYMBOL        L?0201
  C:695DH         SYMBOL        L?0202
  C:6967H         SYMBOL        L?0203
  C:6970H         SYMBOL        L?0204
  C:697FH         SYMBOL        L?0205
  C:6983H         SYMBOL        L?0206
  C:6989H         SYMBOL        L?0207
  C:6996H         SYMBOL        L?0208
  C:69A2H         SYMBOL        L?0210
  C:69AAH         SYMBOL        L?0211
  C:69B4H         SYMBOL        L?0212
  C:69B4H         SYMBOL        L?0213
  -------         PROC          COM00B7
  -------         ENDPROC       COM00B7
  -------         PROC          COMMANDSHELL
  -------         DO            
  D:0008H         SYMBOL        ch
  X:02FAH         SYMBOL        etx_flag
  -------         ENDDO         
  C:6684H         LINE#         139
  C:6684H         LINE#         140
  C:6684H         LINE#         145
  C:668FH         LINE#         146
  C:668FH         LINE#         148
  C:6692H         LINE#         149
BL51 BANKED LINKER/LOCATER V6.22                                                      02/19/2019  11:34:33  PAGE 29


  C:6697H         LINE#         157
  C:66A2H         LINE#         158
  C:66A2H         LINE#         159
  C:66A7H         LINE#         161
  C:66ADH         LINE#         166
  C:66B3H         LINE#         167
  C:66B4H         LINE#         169
  C:66D7H         LINE#         170
  C:66D7H         LINE#         171
  C:66DDH         LINE#         172
  C:66E0H         LINE#         173
  C:66E3H         LINE#         174
  C:66E4H         LINE#         175
  C:66EFH         LINE#         176
  C:66EFH         LINE#         178
  C:66F5H         LINE#         179
  C:66F8H         LINE#         180
  C:66FEH         LINE#         181
  C:6703H         LINE#         186
  C:6704H         LINE#         187
  C:670CH         LINE#         188
  C:670CH         LINE#         190
  C:6715H         LINE#         200
  C:6721H         LINE#         201
  C:6721H         LINE#         202
  C:6727H         LINE#         204
  C:672FH         LINE#         205
  C:6732H         LINE#         207
  C:673AH         LINE#         209
  C:6740H         LINE#         210
  C:6741H         LINE#         218
  C:6741H         LINE#         219
  C:6747H         LINE#         220
  C:674AH         LINE#         221
  C:6753H         LINE#         226
  C:6753H         LINE#         267
  C:6753H         LINE#         269
  C:6753H         LINE#         270
  C:675AH         LINE#         271
  C:675AH         LINE#         275
  -------         ENDPROC       COMMANDSHELL
  -------         PROC          RESETCOMMSELL
  C:80A3H         LINE#         307
  C:80A3H         LINE#         308
  C:80A3H         LINE#         311
  C:80A8H         LINE#         312
  C:80ACH         LINE#         313
  C:80B0H         LINE#         314
  C:80B3H         LINE#         315
  C:80B3H         LINE#         316
  C:80B3H         LINE#         317
  C:80B6H         LINE#         318
  C:80B6H         LINE#         319
  C:80B6H         LINE#         320
  C:80BAH         LINE#         321
  C:80BCH         LINE#         322
  C:80BEH         LINE#         324
BL51 BANKED LINKER/LOCATER V6.22                                                      02/19/2019  11:34:33  PAGE 30


  C:80C2H         LINE#         325
  C:80C4H         LINE#         326
  C:80C8H         LINE#         327
  -------         ENDPROC       RESETCOMMSELL
  -------         PROC          _PCT_FLASHOSDCTRL
  D:0007H         SYMBOL        _on
  C:8360H         LINE#         333
  C:8360H         LINE#         334
  C:8360H         LINE#         335
  C:8366H         LINE#         336
  C:8368H         LINE#         337
  -------         ENDPROC       _PCT_FLASHOSDCTRL
  -------         PROC          INITIALCOMMSHELL
  C:833FH         LINE#         344
  C:833FH         LINE#         345
  C:833FH         LINE#         346
  C:8341H         LINE#         347
  C:8343H         LINE#         350
  C:8345H         LINE#         351
  C:834AH         LINE#         352
  -------         ENDPROC       INITIALCOMMSHELL
  -------         PROC          _WAIT_MS
  X:0007H         SYMBOL        Tms
  -------         DO            
  X:0009H         SYMBOL        count
  -------         ENDDO         
  C:77F1H         LINE#         365
  C:77F9H         LINE#         367
  C:77F9H         LINE#         376
  C:7803H         LINE#         378
  C:7803H         LINE#         380
  C:7830H         LINE#         382
  C:783EH         LINE#         384
  C:7840H         LINE#         385
  -------         ENDPROC       _WAIT_MS
  -------         PROC          MAIN
  -------         DO            
  X:0000H         SYMBOL        Counter
  X:0001H         SYMBOL        readtemp
  X:0003H         SYMBOL        OsdCount1
  X:0004H         SYMBOL        OsdCount2
  X:0005H         SYMBOL        Camera_speed
  -------         ENDDO         
  C:5339H         LINE#         393
  C:5339H         LINE#         394
  C:5339H         LINE#         395
  C:533CH         LINE#         396
  C:533CH         LINE#         397
  C:5342H         LINE#         398
  C:5346H         LINE#         399
  C:5349H         LINE#         413
  C:534CH         LINE#         414
  C:534FH         LINE#         467
  C:5352H         LINE#         468
  C:5355H         LINE#         480
  C:535AH         LINE#         481
  C:535DH         LINE#         483
BL51 BANKED LINKER/LOCATER V6.22                                                      02/19/2019  11:34:33  PAGE 31


  C:5362H         LINE#         503
  C:5365H         LINE#         506
  C:536BH         LINE#         507
  C:5371H         LINE#         508
  C:537BH         LINE#         510
  C:5381H         LINE#         511
  C:5388H         LINE#         513
  C:5398H         LINE#         515
  C:5398H         LINE#         517
  C:539BH         LINE#         518
  C:53ABH         LINE#         519
  C:53B5H         LINE#         521
  C:53B8H         LINE#         522
  C:53B8H         LINE#         523
  C:53BDH         LINE#         524
  C:53BFH         LINE#         525
  C:53BFH         LINE#         529
  C:53CEH         LINE#         533
  C:53D6H         LINE#         534
  C:53D6H         LINE#         538
  C:53DAH         LINE#         539
  C:53E3H         LINE#         540
  C:53E3H         LINE#         542
  C:53F1H         LINE#         543
  C:53F1H         LINE#         546
  C:53F4H         LINE#         549
  C:5400H         LINE#         550
  C:5400H         LINE#         551
  C:5403H         LINE#         552
  C:5403H         LINE#         559
  C:5409H         LINE#         561
  C:5409H         LINE#         563
  C:5421H         LINE#         564
  C:5421H         LINE#         565
  C:5427H         LINE#         566
  C:542AH         LINE#         568
  C:542AH         LINE#         579
  C:543FH         LINE#         580
  C:543FH         LINE#         585
  C:5458H         LINE#         586
  C:545EH         LINE#         587
  C:5464H         LINE#         588
  C:546CH         LINE#         590
  C:546EH         LINE#         592
  C:5471H         LINE#         595
  C:547DH         LINE#         596
  C:547DH         LINE#         597
  C:5483H         LINE#         598
  C:548CH         LINE#         602
  C:548CH         LINE#         609
  C:549FH         LINE#         610
  C:549FH         LINE#         611
  C:54A7H         LINE#         612
  C:54AEH         LINE#         613
  C:54AEH         LINE#         615
  C:54B1H         LINE#         636
  -------         ENDPROC       MAIN
BL51 BANKED LINKER/LOCATER V6.22                                                      02/19/2019  11:34:33  PAGE 32


  -------         PROC          INITIALMPU
  C:79BBH         LINE#         652
  C:79BBH         LINE#         654
  C:79BEH         LINE#         655
  C:79C0H         LINE#         659
  C:79C2H         LINE#         662
  C:79C5H         LINE#         664
  C:79C7H         LINE#         665
  C:79CAH         LINE#         670
  C:79CCH         LINE#         678
  C:79CFH         LINE#         679
  C:79D2H         LINE#         680
  C:79D5H         LINE#         685
  C:79D8H         LINE#         686
  C:79DAH         LINE#         687
  C:79DCH         LINE#         688
  C:79DEH         LINE#         689
  C:79DFH         LINE#         745
  C:79E1H         LINE#         746
  C:79E3H         LINE#         748
  C:79E6H         LINE#         749
  C:79E9H         LINE#         751
  C:79EBH         LINE#         752
  C:79EDH         LINE#         754
  C:79EFH         LINE#         755
  C:79F1H         LINE#         757
  C:79F3H         LINE#         758
  C:79F6H         LINE#         759
  C:79F8H         LINE#         762
  C:79FAH         LINE#         763
  C:79FCH         LINE#         764
  C:79FEH         LINE#         765
  C:7A00H         LINE#         766
  C:7A02H         LINE#         767
  C:7A04H         LINE#         771
  -------         ENDPROC       INITIALMPU
  -------         PROC          _SET_PWM_OUTPUT
  X:01DDH         SYMBOL        addr
  X:01DEH         SYMBOL        val
  -------         DO            
  X:01DFH         SYMBOL        num
  -------         ENDDO         
  C:682AH         LINE#         774
  C:6832H         LINE#         775
  C:6832H         LINE#         778
  C:683FH         LINE#         794
  C:685CH         LINE#         795
  C:685CH         LINE#         796
  C:685CH         LINE#         797
  C:685FH         LINE#         798
  C:686AH         LINE#         799
  C:686DH         LINE#         801
  C:6872H         LINE#         802
  C:6875H         LINE#         803
  C:6876H         LINE#         804
  C:6876H         LINE#         805
  C:6879H         LINE#         806
BL51 BANKED LINKER/LOCATER V6.22                                                      02/19/2019  11:34:33  PAGE 33


  C:6884H         LINE#         807
  C:6887H         LINE#         809
  C:688CH         LINE#         810
  C:688FH         LINE#         811
  C:6890H         LINE#         812
  C:6890H         LINE#         813
  C:6893H         LINE#         814
  C:689EH         LINE#         815
  C:68A1H         LINE#         817
  C:68A6H         LINE#         818
  C:68A9H         LINE#         819
  C:68AAH         LINE#         820
  C:68AAH         LINE#         821
  C:68ADH         LINE#         822
  C:68B8H         LINE#         823
  C:68BBH         LINE#         825
  C:68C0H         LINE#         826
  C:68C3H         LINE#         827
  C:68C4H         LINE#         828
  C:68C4H         LINE#         829
  C:68C7H         LINE#         830
  C:68D2H         LINE#         831
  C:68D5H         LINE#         833
  C:68DAH         LINE#         834
  C:68DDH         LINE#         835
  C:68DEH         LINE#         836
  C:68DEH         LINE#         837
  C:68E1H         LINE#         838
  C:68ECH         LINE#         839
  C:68EFH         LINE#         841
  C:68F4H         LINE#         842
  C:68F7H         LINE#         843
  C:68F7H         LINE#         844
  C:68F7H         LINE#         845
  C:68F7H         LINE#         846
  C:68F7H         LINE#         849
  -------         ENDPROC       _SET_PWM_OUTPUT
  -------         PROC          PWM_INIT
  C:82DAH         LINE#         852
  C:82DAH         LINE#         853
  C:82DAH         LINE#         855
  C:82DDH         LINE#         856
  C:82DFH         LINE#         857
  C:82E2H         LINE#         860
  C:82E5H         LINE#         868
  C:82E8H         LINE#         905
  -------         ENDPROC       PWM_INIT
  C:3F0CH         SYMBOL        L?0209
  -------         PROC          _MONITOR_SET
  X:0006H         SYMBOL        val
  -------         DO            
  X:0007H         SYMBOL        busw1
  X:0015H         SYMBOL        busw2
  X:0023H         SYMBOL        yvmix
  X:002BH         SYMBOL        mode
  X:0032H         SYMBOL        conf1
  X:0058H         SYMBOL        conf2
BL51 BANKED LINKER/LOCATER V6.22                                                      02/19/2019  11:34:33  PAGE 34


  X:007EH         SYMBOL        conf3
  X:00A4H         SYMBOL        conf4
  X:00CAH         SYMBOL        conf5
  X:00F0H         SYMBOL        conf6
  X:0116H         SYMBOL        conf7
  X:013CH         SYMBOL        conf8
  X:0162H         SYMBOL        conf9
  X:0188H         SYMBOL        conf10
  X:01AEH         SYMBOL        conf11
  X:01D4H         SYMBOL        Error
  D:0007H         SYMBOL        ch
  -------         ENDDO         
  C:3B8FH         LINE#         908
  C:3B94H         LINE#         909
  C:3B94H         LINE#         910
  C:3B9FH         LINE#         911
  C:3BAAH         LINE#         912
  C:3BB7H         LINE#         913
  C:3BCAH         LINE#         925
  C:3BD5H         LINE#         926
  C:3BE0H         LINE#         927
  C:3BEFH         LINE#         929
  C:3BFEH         LINE#         930
  C:3C0DH         LINE#         932
  C:3C1CH         LINE#         934
  C:3C2BH         LINE#         939
  C:3C3AH         LINE#         940
  C:3C49H         LINE#         942
  C:3C58H         LINE#         962
  C:3C67H         LINE#         965
  C:3C6CH         LINE#         966
  C:3C6CH         LINE#         968
  C:3C74H         LINE#         971
  C:3C79H         LINE#         972
  C:3C7FH         LINE#         974
  C:3C7FH         LINE#         975
  C:3C84H         LINE#         976
  C:3C84H         LINE#         979
  C:3C89H         LINE#         981
  C:3CAEH         LINE#         982
  C:3CAEH         LINE#         983
  C:3CB1H         LINE#         984
  C:3CB3H         LINE#         985
  C:3CB8H         LINE#         986
  C:3CBAH         LINE#         987
  C:3CBAH         LINE#         988
  C:3CBEH         LINE#         989
  C:3CBEH         LINE#         990
  C:3CC0H         LINE#         991
  C:3CC0H         LINE#         992
  C:3CC6H         LINE#         993
  C:3CCBH         LINE#         994
  C:3CCDH         LINE#         995
  C:3CD3H         LINE#         996
  C:3CD8H         LINE#         997
  C:3CD8H         LINE#         998
  C:3CDAH         LINE#         999
BL51 BANKED LINKER/LOCATER V6.22                                                      02/19/2019  11:34:33  PAGE 35


  C:3CDFH         LINE#         1000
  C:3CE3H         LINE#         1001
  C:3CE3H         LINE#         1002
  C:3CE5H         LINE#         1004
  C:3CE5H         LINE#         1005
  C:3CEBH         LINE#         1006
  C:3CF0H         LINE#         1007
  C:3CF2H         LINE#         1008
  C:3CF2H         LINE#         1009
  C:3CF8H         LINE#         1010
  C:3CFEH         LINE#         1011
  C:3D03H         LINE#         1012
  C:3D05H         LINE#         1014
  C:3D0BH         LINE#         1015
  C:3D0BH         LINE#         1018
  C:3D15H         LINE#         1019
  C:3D15H         LINE#         1020
  C:3D1AH         LINE#         1021
  C:3D1DH         LINE#         1022
  C:3D25H         LINE#         1023
  C:3D25H         LINE#         1024
  C:3D2DH         LINE#         1025
  C:3D2DH         LINE#         1027
  C:3D34H         LINE#         1028
  C:3D34H         LINE#         1029
  C:3D37H         LINE#         1030
  C:3D37H         LINE#         1031
  C:3D39H         LINE#         1033
  C:3D39H         LINE#         1035
  C:3D43H         LINE#         1036
  C:3D43H         LINE#         1037
  C:3D46H         LINE#         1038
  C:3D4CH         LINE#         1039
  C:3D4EH         LINE#         1041
  C:3D4EH         LINE#         1042
  C:3D51H         LINE#         1043
  C:3D56H         LINE#         1044
  C:3D56H         LINE#         1045
  C:3D56H         LINE#         1046
  C:3D58H         LINE#         1048
  C:3D58H         LINE#         1049
  C:3D5FH         LINE#         1050
  C:3D5FH         LINE#         1051
  C:3D62H         LINE#         1052
  C:3D62H         LINE#         1053
  C:3D64H         LINE#         1055
  C:3D64H         LINE#         1056
  C:3D6EH         LINE#         1057
  C:3D6EH         LINE#         1058
  C:3D71H         LINE#         1059
  C:3D77H         LINE#         1060
  C:3D79H         LINE#         1062
  C:3D79H         LINE#         1063
  C:3D7CH         LINE#         1064
  C:3D81H         LINE#         1065
  C:3D81H         LINE#         1066
  C:3D81H         LINE#         1067
BL51 BANKED LINKER/LOCATER V6.22                                                      02/19/2019  11:34:33  PAGE 36


  C:3D81H         LINE#         1069
  C:3D8EH         LINE#         1071
  C:3D90H         LINE#         1073
  C:3D90H         LINE#         1075
  C:3D96H         LINE#         1076
  C:3D96H         LINE#         1077
  C:3D9CH         LINE#         1078
  C:3DA1H         LINE#         1080
  C:3DA3H         LINE#         1082
  C:3DA3H         LINE#         1084
  C:3DAAH         LINE#         1085
  C:3DAAH         LINE#         1086
  C:3DACH         LINE#         1087
  C:3DB2H         LINE#         1088
  C:3DB8H         LINE#         1089
  C:3DBAH         LINE#         1091
  C:3DBAH         LINE#         1093
  C:3DC0H         LINE#         1094
  C:3DC0H         LINE#         1095
  C:3DC6H         LINE#         1096
  C:3DC8H         LINE#         1098
  C:3DC8H         LINE#         1099
  C:3DCAH         LINE#         1100
  C:3DCFH         LINE#         1101
  C:3DD9H         LINE#         1102
  C:3DD9H         LINE#         1103
  C:3DD9H         LINE#         1105
  C:3DD9H         LINE#         1109
  C:3DD9H         LINE#         1132
  C:3DDFH         LINE#         1133
  C:3DDFH         LINE#         1136
  C:3DE2H         LINE#         1154
  C:3DEDH         LINE#         1155
  C:3DF8H         LINE#         1162
  C:3DF8H         LINE#         1164
  C:3DF8H         LINE#         1182
  C:3DF8H         LINE#         1189
  C:3E1EH         LINE#         1190
  C:3E1EH         LINE#         1193
  C:3E20H         LINE#         1194
  C:3E29H         LINE#         1195
  C:3E45H         LINE#         1196
  C:3E4FH         LINE#         1197
  C:3E58H         LINE#         1198
  C:3E61H         LINE#         1199
  C:3E6AH         LINE#         1200
  C:3E74H         LINE#         1202
  C:3E7AH         LINE#         1203
  C:3E81H         LINE#         1204
  C:3E83H         LINE#         1206
  C:3E8DH         LINE#         1208
  C:3E93H         LINE#         1209
  C:3E9AH         LINE#         1210
  C:3E9CH         LINE#         1227
  C:3E9CH         LINE#         1228
  C:3EA6H         LINE#         1241
  C:3EA6H         LINE#         1250
BL51 BANKED LINKER/LOCATER V6.22                                                      02/19/2019  11:34:33  PAGE 37


  C:3EABH         LINE#         1252
  C:3EB4H         LINE#         1255
  C:3EDAH         LINE#         1256
  C:3EDAH         LINE#         1258
  C:3EDCH         LINE#         1259
  C:3EE0H         LINE#         1260
  C:3EE4H         LINE#         1261
  C:3EE8H         LINE#         1262
  C:3EECH         LINE#         1263
  C:3EF0H         LINE#         1264
  C:3EF7H         LINE#         1265
  C:3EFBH         LINE#         1266
  C:3F06H         LINE#         1268
  C:3F06H         LINE#         1269
  C:3F06H         LINE#         1270
  C:3F06H         LINE#         1299
  C:3F0BH         LINE#         1301
  -------         ENDPROC       _MONITOR_SET
  -------         PROC          _PWM_SET
  D:0003H         SYMBOL        val
  -------         DO            
  D:0007H         SYMBOL        Error
  D:0002H         SYMBOL        ch
  D:0006H         SYMBOL        set_val
  -------         ENDDO         
  C:7F4CH         LINE#         1305
  C:7F4EH         LINE#         1306
  C:7F4EH         LINE#         1308
  C:7F51H         LINE#         1310
  C:7F5DH         LINE#         1311
  C:7F5DH         LINE#         1312
  C:7F67H         LINE#         1313
  C:7F71H         LINE#         1316
  C:7F76H         LINE#         1322
  C:7F78H         LINE#         1323
  C:7F78H         LINE#         1325
  C:7F78H         LINE#         1326
  -------         ENDPROC       _PWM_SET
  -------         PROC          TEMP_CHECK
  -------         DO            
  D:0002H         SYMBOL        val
  -------         ENDDO         
  C:7697H         LINE#         1330
  C:7697H         LINE#         1331
  C:7697H         LINE#         1332
  C:769AH         LINE#         1336
  C:76BCH         LINE#         1337
  C:76BFH         LINE#         1338
  C:76C3H         LINE#         1345
  C:76D7H         LINE#         1347
  C:76DEH         LINE#         1349
  C:76F0H         LINE#         1384
  -------         ENDPROC       TEMP_CHECK
  -------         PROC          PRESS_CHECK
  -------         DO            
  X:0006H         SYMBOL        val
  X:0008H         SYMBOL        loop
BL51 BANKED LINKER/LOCATER V6.22                                                      02/19/2019  11:34:33  PAGE 38


  X:0009H         SYMBOL        temp_val
  -------         ENDDO         
  C:62FAH         LINE#         1389
  C:62FAH         LINE#         1390
  C:62FAH         LINE#         1399
  C:62FDH         LINE#         1400
  C:62FDH         LINE#         1411
  C:6307H         LINE#         1412
  C:6314H         LINE#         1414
  C:631FH         LINE#         1415
  C:6327H         LINE#         1427
  C:634EH         LINE#         1482
  C:6365H         LINE#         1483
  C:6368H         LINE#         1489
  C:6381H         LINE#         1490
  C:6381H         LINE#         1491
  C:638BH         LINE#         1492
  C:638DH         LINE#         1493
  C:63A0H         LINE#         1497
  C:63BDH         LINE#         1498
  C:63CEH         LINE#         1499
  C:63DFH         LINE#         1500
  C:63E5H         LINE#         1550
  -------         ENDPROC       PRESS_CHECK
  -------         PROC          VERSION_CHECK
  -------         DO            
  X:000CH         SYMBOL        loop
  -------         ENDDO         
  C:774AH         LINE#         1553
  C:774AH         LINE#         1554
  C:774AH         LINE#         1559
  C:774AH         LINE#         1560
  C:774AH         LINE#         1561
  C:7750H         LINE#         1562
  C:7754H         LINE#         1563
  C:7758H         LINE#         1565
  C:775BH         LINE#         1566
  C:775BH         LINE#         1567
  C:775BH         LINE#         1568
  C:775EH         LINE#         1574
  C:776CH         LINE#         1575
  C:777FH         LINE#         1580
  C:778EH         LINE#         1581
  C:778EH         LINE#         1582
  C:7796H         LINE#         1584
  C:779EH         LINE#         1586
  -------         ENDPROC       VERSION_CHECK
  -------         PROC          CAMERA_VERSION_CHECK
  -------         DO            
  X:000CH         SYMBOL        loop
  -------         ENDDO         
  C:7577H         LINE#         1588
  C:7577H         LINE#         1589
  C:7577H         LINE#         1593
  C:7577H         LINE#         1594
  C:7577H         LINE#         1595
  C:757DH         LINE#         1596
BL51 BANKED LINKER/LOCATER V6.22                                                      02/19/2019  11:34:33  PAGE 39


  C:7585H         LINE#         1597
  C:758DH         LINE#         1599
  C:7594H         LINE#         1600
  C:7594H         LINE#         1601
  C:7594H         LINE#         1602
  C:7597H         LINE#         1608
  C:75A5H         LINE#         1609
  C:75B8H         LINE#         1614
  C:75C7H         LINE#         1615
  C:75C7H         LINE#         1616
  C:75CFH         LINE#         1618
  C:75D7H         LINE#         1620
  -------         ENDPROC       CAMERA_VERSION_CHECK
  -------         ENDMOD        MAIN

  -------         MODULE        OSD_GRAPH
  C:0000H         SYMBOL        _ICE_DUMMY_
  D:0080H         PUBLIC        P0
  D:0090H         PUBLIC        P1
  D:00A0H         PUBLIC        P2
  D:00C0H         PUBLIC        XICON
  D:00B0H         PUBLIC        P3
  D:00E8H         PUBLIC        P4
  D:00A8H         PUBLIC        IE
  D:00B8H         PUBLIC        IP
  D:00D8H         PUBLIC        CCON
  C:1354H         PUBLIC        GRAPH16_TABLE
  C:83ACH         PUBLIC        _PCT_PreSetGraphAttr
  D:00C0H         PUBLIC        WDTC
  D:0098H         PUBLIC        SCON
  D:0088H         PUBLIC        TCON
  C:002EH         PUBLIC        GRAPH_TABLE
  C:501BH         PUBLIC        _PCT_OSD16x16GraphX
  C:83A6H         PUBLIC        PCT_ClearGraphAttr
  X:035CH         PUBLIC        graphattr
  D:00F8H         PUBLIC        IPA
  C:75D8H         PUBLIC        _PCT_ShowGraphString
  D:00C8H         PUBLIC        T2CON
  D:00D0H         PUBLIC        PSW
  C:7DE3H         SYMBOL        Com001D
  C:7DE3H         SYMBOL        L?0030
  C:7DE3H         SYMBOL        L?0031
  C:7DE6H         SYMBOL        L?0032
  C:7DF1H         SYMBOL        L?0033
  C:7DF4H         SYMBOL        L?0034
  C:7DFDH         SYMBOL        L?0035
  C:7E11H         SYMBOL        L?0039
  -------         PROC          COM001D
  -------         ENDPROC       COM001D
  -------         PROC          PCT_CLEARGRAPHATTR
  C:83A6H         LINE#         73
  C:83A6H         LINE#         74
  C:83A6H         LINE#         75
  C:83ABH         LINE#         76
  -------         ENDPROC       PCT_CLEARGRAPHATTR
  -------         PROC          _PCT_PRESETGRAPHATTR
  D:0007H         SYMBOL        _attribute
BL51 BANKED LINKER/LOCATER V6.22                                                      02/19/2019  11:34:33  PAGE 40


  C:83ACH         LINE#         82
  C:83ACH         LINE#         83
  C:83ACH         LINE#         84
  C:83B1H         LINE#         86
  -------         ENDPROC       _PCT_PRESETGRAPHATTR
  C:5163H         SYMBOL        L?0027
  C:518CH         SYMBOL        L?0028
  C:519FH         SYMBOL        L?0036
  C:51A7H         SYMBOL        L?0037
  C:51B2H         SYMBOL        L?0038
  -------         PROC          _PCT_OSD16X16GRAPHX
  X:01E7H         SYMBOL        _posx
  X:01E8H         SYMBOL        _posy
  D:0003H         SYMBOL        _indx
  -------         DO            
  X:01EAH         SYMBOL        row
  X:01EBH         SYMBOL        column
  X:01ECH         SYMBOL        cntr
  X:01EDH         SYMBOL        cntc
  X:01EEH         SYMBOL        posx
  X:01EFH         SYMBOL        graph
  -------         ENDDO         
  C:501BH         LINE#         92
  C:5026H         LINE#         93
  C:5026H         LINE#         97
  C:502EH         LINE#         98
  C:5036H         LINE#         99
  C:504CH         LINE#         100
  C:5058H         LINE#         101
  C:5076H         LINE#         102
  C:507CH         LINE#         103
  C:5083H         LINE#         105
  C:5096H         LINE#         106
  C:50A9H         LINE#         107
  C:50BAH         LINE#         108
  C:50C5H         LINE#         109
  C:50D0H         LINE#         110
  C:50DEH         LINE#         111
  C:50E9H         LINE#         112
  C:50F3H         LINE#         114
  C:50FDH         LINE#         115
  C:5108H         LINE#         117
  C:5117H         LINE#         118
  C:511AH         LINE#         119
  C:5120H         LINE#         121
  C:512AH         LINE#         122
  C:512DH         LINE#         123
  C:5133H         LINE#         125
  C:5139H         LINE#         126
  C:5143H         LINE#         127
  C:514BH         LINE#         128
  C:5159H         LINE#         129
  C:5162H         LINE#         130
  -------         ENDPROC       _PCT_OSD16X16GRAPHX
  -------         PROC          _PCT_SHOWGRAPHSTRING
  X:01E0H         SYMBOL        _path
  X:01E1H         SYMBOL        _addrx
BL51 BANKED LINKER/LOCATER V6.22                                                      02/19/2019  11:34:33  PAGE 41


  X:01E2H         SYMBOL        _addry
  X:01E3H         SYMBOL        _strptr
  -------         DO            
  X:01E6H         SYMBOL        slen
  -------         ENDDO         
  C:75D8H         LINE#         136
  C:75E3H         LINE#         137
  C:75E3H         LINE#         140
  C:75EFH         LINE#         141
  C:75F6H         LINE#         142
  C:75FDH         LINE#         143
  C:75FDH         LINE#         144
  C:7612H         LINE#         145
  C:7618H         LINE#         146
  C:7622H         LINE#         147
  C:7629H         LINE#         148
  C:762EH         LINE#         149
  C:7630H         LINE#         150
  C:7630H         LINE#         151
  C:7635H         LINE#         152
  C:7635H         LINE#         153
  C:7638H         LINE#         155
  -------         ENDPROC       _PCT_SHOWGRAPHSTRING
  -------         ENDMOD        OSD_GRAPH

  -------         MODULE        OSDACTION_
  C:0000H         SYMBOL        _ICE_DUMMY_
  C:788EH         PUBLIC        PCT_InitialOSD
  C:7B70H         PUBLIC        PCT_ShowModeIcon
  D:0080H         PUBLIC        P0
  D:0090H         PUBLIC        P1
  D:00A0H         PUBLIC        P2
  D:00C0H         PUBLIC        XICON
  D:00B0H         PUBLIC        P3
  D:00E8H         PUBLIC        P4
  C:8396H         PUBLIC        PCT_EnfalshVLoss
  C:8112H         PUBLIC        camstr
  D:00A8H         PUBLIC        IE
  D:00B8H         PUBLIC        IP
  C:5785H         PUBLIC        _PCT_ShowIndicateIcon
  C:812FH         PUBLIC        SPEAKICON
  D:00D8H         PUBLIC        CCON
  X:035DH         PUBLIC        VlossCount
  D:00C0H         PUBLIC        WDTC
  D:0098H         PUBLIC        SCON
  D:0088H         PUBLIC        TCON
  B:0021H.0       PUBLIC        OSDPAGE2
  B:0021H.1       PUBLIC        OSDPAGE3
  B:0021H.2       PUBLIC        OSDPAGE4
  B:0021H.3       PUBLIC        OSDPAGE5
  D:0021H         PUBLIC        osdflage
  C:7B29H         PUBLIC        PCT_GetVideoSignalStatus
  C:8127H         PUBLIC        indicate_icon
  C:80C9H         PUBLIC        PCT_OSDActionForHS
  D:00F8H         PUBLIC        IPA
  C:8131H         PUBLIC        msgVLOSS
  D:00C8H         PUBLIC        T2CON
BL51 BANKED LINKER/LOCATER V6.22                                                      02/19/2019  11:34:33  PAGE 42


  C:2EB1H         PUBLIC        _PCT_ShowMirrorIcon
  C:3F14H         PUBLIC        _PCT_OSD_ActionPthX
  D:00D0H         PUBLIC        PSW
  C:7246H         SYMBOL        Com00F6
  C:7246H         SYMBOL        L?0247
  C:7246H         SYMBOL        L?0248
  C:7249H         SYMBOL        L?0249
  C:7255H         SYMBOL        L?0250
  C:725BH         SYMBOL        L?0251
  C:7263H         SYMBOL        L?0252
  C:7263H         SYMBOL        L?0253
  C:7266H         SYMBOL        L?0254
  C:726FH         SYMBOL        L?0255
  C:726FH         SYMBOL        L?0256
  C:727EH         SYMBOL        L?0264
  C:727EH         SYMBOL        L?0265
  C:7284H         SYMBOL        L?0273
  C:7284H         SYMBOL        L?0274
  C:7287H         SYMBOL        L?0275
  C:7290H         SYMBOL        L?0277
  C:7290H         SYMBOL        L?0278
  C:7296H         SYMBOL        L?0295
  C:7296H         SYMBOL        L?0296
  C:729CH         SYMBOL        L?0297
  C:729CH         SYMBOL        L?0298
  C:72A3H         SYMBOL        L?0299
  C:72A3H         SYMBOL        L?0300
  C:72ABH         SYMBOL        L?0301
  C:72ABH         SYMBOL        L?0302
  -------         PROC          COM00F6
  -------         ENDPROC       COM00F6
  C:78C4H         SYMBOL        L?0288
  -------         PROC          PCT_INITIALOSD
  -------         DO            
  D:0008H         SYMBOL        page
  -------         ENDDO         
  C:788EH         LINE#         101
  C:788EH         LINE#         102
  C:788EH         LINE#         105
  C:7891H         LINE#         106
  C:7894H         LINE#         108
  C:7899H         LINE#         109
  C:789EH         LINE#         110
  C:78A1H         LINE#         111
  C:78A3H         LINE#         112
  C:78A6H         LINE#         113
  C:78AFH         LINE#         114
  C:78B4H         LINE#         115
  C:78B9H         LINE#         116
  C:78BBH         LINE#         117
  C:78BEH         LINE#         119
  C:78C3H         LINE#         120
  -------         ENDPROC       PCT_INITIALOSD
  C:4220H         SYMBOL        L?0259
  C:422AH         SYMBOL        L?0263
  C:4234H         SYMBOL        L?0268
  C:423EH         SYMBOL        L?0271
BL51 BANKED LINKER/LOCATER V6.22                                                      02/19/2019  11:34:33  PAGE 43


  C:4246H         SYMBOL        L?0279
  C:4250H         SYMBOL        L?0283
  C:425AH         SYMBOL        L?0286
  C:4264H         SYMBOL        L?0290
  C:426EH         SYMBOL        L?0294
  C:4278H         SYMBOL        L?0303
  -------         PROC          _PCT_OSD_ACTIONPTHX
  X:01DDH         SYMBOL        _attr
  C:3F14H         LINE#         127
  C:3F1BH         LINE#         128
  C:3F1BH         LINE#         129
  C:3F20H         LINE#         130
  C:3F25H         LINE#         132
  C:3F5AH         LINE#         134
  C:3F5AH         LINE#         135
  C:3F66H         LINE#         136
  C:3F69H         LINE#         138
  C:3F69H         LINE#         139
  C:3F7AH         LINE#         140
  C:3F90H         LINE#         141
  C:3F93H         LINE#         143
  C:3F93H         LINE#         144
  C:3FA8H         LINE#         145
  C:3FBEH         LINE#         146
  C:3FC1H         LINE#         148
  C:3FC1H         LINE#         149
  C:3FD0H         LINE#         150
  C:3FE2H         LINE#         151
  C:3FF8H         LINE#         152
  C:3FFBH         LINE#         154
  C:3FFBH         LINE#         155
  C:3FFBH         LINE#         157
  C:3FFBH         LINE#         158
  C:400AH         LINE#         159
  C:401CH         LINE#         160
  C:4032H         LINE#         161
  C:4035H         LINE#         163
  C:4035H         LINE#         164
  C:4044H         LINE#         165
  C:4056H         LINE#         166
  C:406CH         LINE#         167
  C:406FH         LINE#         169
  C:406FH         LINE#         170
  C:407EH         LINE#         171
  C:4090H         LINE#         172
  C:40A2H         LINE#         173
  C:40B8H         LINE#         174
  C:40BBH         LINE#         177
  C:40BBH         LINE#         178
  C:40CEH         LINE#         179
  C:40D1H         LINE#         181
  C:40D1H         LINE#         182
  C:40E0H         LINE#         183
  C:40F6H         LINE#         184
  C:40F9H         LINE#         186
  C:40F9H         LINE#         187
  C:4108H         LINE#         188
BL51 BANKED LINKER/LOCATER V6.22                                                      02/19/2019  11:34:33  PAGE 44


  C:411EH         LINE#         189
  C:4121H         LINE#         191
  C:4121H         LINE#         192
  C:4136H         LINE#         193
  C:4148H         LINE#         194
  C:415EH         LINE#         195
  C:4161H         LINE#         197
  C:4161H         LINE#         198
  C:4161H         LINE#         200
  C:4161H         LINE#         201
  C:4170H         LINE#         202
  C:4182H         LINE#         203
  C:4198H         LINE#         204
  C:419BH         LINE#         206
  C:419BH         LINE#         207
  C:41AAH         LINE#         208
  C:41BCH         LINE#         209
  C:41CFH         LINE#         210
  C:41D2H         LINE#         212
  C:41D2H         LINE#         213
  C:41E3H         LINE#         214
  C:41F5H         LINE#         215
  C:4207H         LINE#         216
  C:421FH         LINE#         217
  C:421FH         LINE#         219
  C:421FH         LINE#         220
  C:421FH         LINE#         221
  C:421FH         LINE#         222
  -------         ENDPROC       _PCT_OSD_ACTIONPTHX
  -------         PROC          PCT_ENFALSHVLOSS
  C:8396H         LINE#         228
  C:8396H         LINE#         229
  C:8396H         LINE#         230
  C:839DH         LINE#         231
  -------         ENDPROC       PCT_ENFALSHVLOSS
  -------         PROC          PCT_GETVIDEOSIGNALSTATUS
  C:7B29H         LINE#         237
  C:7B29H         LINE#         238
  C:7B29H         LINE#         239
  C:7B3AH         LINE#         241
  C:7B41H         LINE#         247
  C:7B43H         LINE#         248
  C:7B5AH         LINE#         250
  C:7B5FH         LINE#         251
  C:7B64H         LINE#         253
  C:7B67H         LINE#         255
  C:7B6FH         LINE#         256
  -------         ENDPROC       PCT_GETVIDEOSIGNALSTATUS
  C:58A9H         SYMBOL        L?0262
  C:58C2H         SYMBOL        L?0280
  C:58DBH         SYMBOL        L?0304
  -------         PROC          _PCT_SHOWINDICATEICON
  X:01DDH         SYMBOL        _attr
  -------         DO            
  D:0008H         SYMBOL        iconid
  -------         ENDDO         
  C:5785H         LINE#         274
BL51 BANKED LINKER/LOCATER V6.22                                                      02/19/2019  11:34:33  PAGE 45


  C:578CH         LINE#         275
  C:578CH         LINE#         279
  C:5791H         LINE#         280
  C:57C0H         LINE#         282
  C:57C0H         LINE#         283
  C:57C0H         LINE#         284
  C:57C9H         LINE#         285
  C:57CBH         LINE#         286
  C:57CBH         LINE#         287
  C:57CBH         LINE#         288
  C:57CEH         LINE#         289
  C:57CEH         LINE#         290
  C:57CEH         LINE#         291
  C:57D1H         LINE#         293
  C:57D1H         LINE#         294
  C:57D1H         LINE#         296
  C:57DAH         LINE#         297
  C:57DCH         LINE#         298
  C:57DCH         LINE#         299
  C:57E5H         LINE#         300
  C:57E7H         LINE#         301
  C:57EDH         LINE#         302
  C:57EDH         LINE#         305
  C:57F9H         LINE#         306
  C:57FBH         LINE#         307
  C:57FBH         LINE#         308
  C:57FBH         LINE#         309
  C:57FEH         LINE#         314
  C:57FEH         LINE#         315
  C:57FEH         LINE#         317
  C:5807H         LINE#         318
  C:5809H         LINE#         319
  C:5809H         LINE#         320
  C:5812H         LINE#         321
  C:5814H         LINE#         322
  C:581AH         LINE#         323
  C:581AH         LINE#         326
  C:5826H         LINE#         327
  C:5828H         LINE#         328
  C:5828H         LINE#         329
  C:5828H         LINE#         330
  C:582BH         LINE#         331
  C:582BH         LINE#         332
  C:582BH         LINE#         333
  C:582EH         LINE#         335
  C:582EH         LINE#         336
  C:582EH         LINE#         338
  C:5837H         LINE#         339
  C:5839H         LINE#         340
  C:5839H         LINE#         341
  C:5843H         LINE#         342
  C:5846H         LINE#         343
  C:584DH         LINE#         344
  C:584DH         LINE#         345
  C:5850H         LINE#         347
  C:5850H         LINE#         348
  C:5850H         LINE#         349
BL51 BANKED LINKER/LOCATER V6.22                                                      02/19/2019  11:34:33  PAGE 46


  C:5850H         LINE#         351
  C:5850H         LINE#         352
  C:5850H         LINE#         354
  C:5859H         LINE#         355
  C:585BH         LINE#         356
  C:585BH         LINE#         357
  C:5865H         LINE#         358
  C:5867H         LINE#         359
  C:586AH         LINE#         360
  C:586AH         LINE#         362
  C:586CH         LINE#         364
  C:586CH         LINE#         365
  C:586CH         LINE#         367
  C:5878H         LINE#         368
  C:587AH         LINE#         369
  C:5883H         LINE#         370
  C:589EH         LINE#         371
  C:589EH         LINE#         372
  C:58A8H         LINE#         373
  C:58A8H         LINE#         374
  C:58A8H         LINE#         376
  C:58A8H         LINE#         377
  C:58A8H         LINE#         378
  C:58A8H         LINE#         380
  C:58A8H         LINE#         381
  C:58A8H         LINE#         382
  C:58A8H         LINE#         383
  -------         ENDPROC       _PCT_SHOWINDICATEICON
  C:3264H         SYMBOL        L?0257
  C:326FH         SYMBOL        L?0258
  C:3279H         SYMBOL        L?0260
  C:3283H         SYMBOL        L?0261
  C:328EH         SYMBOL        L?0266
  C:3299H         SYMBOL        L?0267
  C:32A3H         SYMBOL        L?0269
  C:32ADH         SYMBOL        L?0270
  C:32B8H         SYMBOL        L?0272
  C:32C3H         SYMBOL        L?0276
  C:32CDH         SYMBOL        L?0281
  C:32D8H         SYMBOL        L?0282
  C:32E2H         SYMBOL        L?0284
  C:32EDH         SYMBOL        L?0285
  C:32F7H         SYMBOL        L?0287
  C:3303H         SYMBOL        L?0289
  C:330EH         SYMBOL        L?0291
  C:3318H         SYMBOL        L?0292
  C:3322H         SYMBOL        L?0305
  C:332CH         SYMBOL        L?0306
  -------         PROC          _PCT_SHOWMIRRORICON
  X:01DDH         SYMBOL        _attr
  C:2EB1H         LINE#         393
  C:2EB8H         LINE#         394
  C:2EB8H         LINE#         395
  C:2EBDH         LINE#         396
  C:2EF2H         LINE#         398
  C:2EF2H         LINE#         400
  C:2EFEH         LINE#         401
BL51 BANKED LINKER/LOCATER V6.22                                                      02/19/2019  11:34:33  PAGE 47


  C:2EFEH         LINE#         402
  C:2F01H         LINE#         403
  C:2F01H         LINE#         404
  C:2F01H         LINE#         405
  C:2F04H         LINE#         407
  C:2F04H         LINE#         409
  C:2F10H         LINE#         410
  C:2F16H         LINE#         411
  C:2F18H         LINE#         412
  C:2F1BH         LINE#         413
  C:2F1BH         LINE#         415
  C:2F27H         LINE#         416
  C:2F27H         LINE#         417
  C:2F2AH         LINE#         418
  C:2F2AH         LINE#         419
  C:2F2AH         LINE#         420
  C:2F2DH         LINE#         422
  C:2F2DH         LINE#         424
  C:2F39H         LINE#         425
  C:2F3FH         LINE#         426
  C:2F41H         LINE#         427
  C:2F44H         LINE#         428
  C:2F44H         LINE#         431
  C:2F50H         LINE#         432
  C:2F50H         LINE#         433
  C:2F53H         LINE#         434
  C:2F53H         LINE#         435
  C:2F53H         LINE#         437
  C:2F56H         LINE#         439
  C:2F56H         LINE#         441
  C:2F62H         LINE#         442
  C:2F68H         LINE#         443
  C:2F6AH         LINE#         444
  C:2F6DH         LINE#         445
  C:2F6DH         LINE#         448
  C:2F79H         LINE#         449
  C:2F7FH         LINE#         450
  C:2F81H         LINE#         451
  C:2F84H         LINE#         452
  C:2F84H         LINE#         455
  C:2F90H         LINE#         456
  C:2F90H         LINE#         457
  C:2F93H         LINE#         458
  C:2F93H         LINE#         459
  C:2F93H         LINE#         460
  C:2F96H         LINE#         462
  C:2F96H         LINE#         463
  C:2F96H         LINE#         465
  C:2F96H         LINE#         467
  C:2FA2H         LINE#         468
  C:2FA8H         LINE#         469
  C:2FAAH         LINE#         470
  C:2FADH         LINE#         471
  C:2FADH         LINE#         474
  C:2FB9H         LINE#         475
  C:2FBFH         LINE#         476
  C:2FC1H         LINE#         477
BL51 BANKED LINKER/LOCATER V6.22                                                      02/19/2019  11:34:33  PAGE 48


  C:2FC4H         LINE#         478
  C:2FC4H         LINE#         481
  C:2FD0H         LINE#         482
  C:2FD0H         LINE#         483
  C:2FD3H         LINE#         484
  C:2FD3H         LINE#         485
  C:2FD3H         LINE#         486
  C:2FD6H         LINE#         488
  C:2FD6H         LINE#         490
  C:2FE2H         LINE#         491
  C:2FE8H         LINE#         492
  C:2FEAH         LINE#         493
  C:2FEDH         LINE#         494
  C:2FEDH         LINE#         497
  C:2FF9H         LINE#         498
  C:2FFFH         LINE#         499
  C:3001H         LINE#         500
  C:3004H         LINE#         501
  C:3004H         LINE#         504
  C:3010H         LINE#         505
  C:3015H         LINE#         506
  C:3018H         LINE#         507
  C:301CH         LINE#         508
  C:301CH         LINE#         509
  C:301FH         LINE#         511
  C:301FH         LINE#         513
  C:302BH         LINE#         514
  C:3031H         LINE#         515
  C:3033H         LINE#         516
  C:3036H         LINE#         517
  C:3036H         LINE#         520
  C:3042H         LINE#         521
  C:3048H         LINE#         522
  C:304AH         LINE#         523
  C:304DH         LINE#         524
  C:304DH         LINE#         527
  C:3059H         LINE#         528
  C:305FH         LINE#         529
  C:3061H         LINE#         530
  C:3064H         LINE#         531
  C:3064H         LINE#         534
  C:3070H         LINE#         535
  C:3075H         LINE#         536
  C:3078H         LINE#         537
  C:307CH         LINE#         538
  C:307CH         LINE#         539
  C:307FH         LINE#         542
  C:307FH         LINE#         544
  C:308BH         LINE#         545
  C:3090H         LINE#         546
  C:3092H         LINE#         547
  C:3097H         LINE#         548
  C:3097H         LINE#         549
  C:3099H         LINE#         551
  C:3099H         LINE#         553
  C:30A5H         LINE#         554
  C:30ABH         LINE#         555
BL51 BANKED LINKER/LOCATER V6.22                                                      02/19/2019  11:34:33  PAGE 49


  C:30ADH         LINE#         556
  C:30B0H         LINE#         557
  C:30B0H         LINE#         559
  C:30BCH         LINE#         560
  C:30C3H         LINE#         561
  C:30C6H         LINE#         562
  C:30CEH         LINE#         563
  C:30CEH         LINE#         564
  C:30D1H         LINE#         566
  C:30D1H         LINE#         568
  C:30DDH         LINE#         569
  C:30E3H         LINE#         570
  C:30E5H         LINE#         571
  C:30E8H         LINE#         572
  C:30E8H         LINE#         575
  C:30F4H         LINE#         576
  C:30FBH         LINE#         577
  C:30FEH         LINE#         578
  C:3101H         LINE#         579
  C:3101H         LINE#         581
  C:3104H         LINE#         583
  C:3104H         LINE#         585
  C:3110H         LINE#         586
  C:3116H         LINE#         587
  C:3118H         LINE#         588
  C:311BH         LINE#         589
  C:311BH         LINE#         592
  C:3127H         LINE#         593
  C:312DH         LINE#         594
  C:312FH         LINE#         595
  C:3137H         LINE#         596
  C:3137H         LINE#         599
  C:3143H         LINE#         600
  C:314AH         LINE#         601
  C:314DH         LINE#         602
  C:3155H         LINE#         603
  C:3155H         LINE#         604
  C:3158H         LINE#         606
  C:3158H         LINE#         607
  C:3158H         LINE#         609
  C:3158H         LINE#         611
  C:3164H         LINE#         612
  C:316AH         LINE#         613
  C:316CH         LINE#         614
  C:316FH         LINE#         615
  C:316FH         LINE#         618
  C:317BH         LINE#         619
  C:3181H         LINE#         620
  C:3183H         LINE#         621
  C:3186H         LINE#         622
  C:3186H         LINE#         625
  C:3192H         LINE#         626
  C:3199H         LINE#         627
  C:319CH         LINE#         628
  C:31A1H         LINE#         629
  C:31A1H         LINE#         630
  C:31A4H         LINE#         632
BL51 BANKED LINKER/LOCATER V6.22                                                      02/19/2019  11:34:33  PAGE 50


  C:31A4H         LINE#         634
  C:31B0H         LINE#         635
  C:31B6H         LINE#         636
  C:31B8H         LINE#         637
  C:31BBH         LINE#         638
  C:31BBH         LINE#         641
  C:31C7H         LINE#         642
  C:31CDH         LINE#         643
  C:31CFH         LINE#         644
  C:31D5H         LINE#         645
  C:31D5H         LINE#         648
  C:31E1H         LINE#         649
  C:31E8H         LINE#         650
  C:31EBH         LINE#         651
  C:31F3H         LINE#         652
  C:31F3H         LINE#         653
  C:31F6H         LINE#         655
  C:31F6H         LINE#         657
  C:3202H         LINE#         658
  C:3208H         LINE#         659
  C:320AH         LINE#         660
  C:320DH         LINE#         661
  C:320DH         LINE#         664
  C:3219H         LINE#         665
  C:321FH         LINE#         666
  C:3221H         LINE#         667
  C:3227H         LINE#         668
  C:3227H         LINE#         671
  C:3233H         LINE#         672
  C:3239H         LINE#         673
  C:323BH         LINE#         674
  C:3243H         LINE#         675
  C:3243H         LINE#         678
  C:324FH         LINE#         679
  C:325BH         LINE#         680
  C:325BH         LINE#         681
  C:3263H         LINE#         682
  C:3263H         LINE#         683
  C:3263H         LINE#         685
  C:3263H         LINE#         686
  C:3263H         LINE#         687
  C:3263H         LINE#         688
  -------         ENDPROC       _PCT_SHOWMIRRORICON
  C:7BA4H         SYMBOL        L?0293
  -------         PROC          PCT_SHOWMODEICON
  C:7B70H         LINE#         1142
  C:7B70H         LINE#         1143
  C:7B70H         LINE#         1144
  C:7B75H         LINE#         1146
  C:7B80H         LINE#         1147
  C:7B80H         LINE#         1148
  C:7B80H         LINE#         1149
  C:7B80H         LINE#         1150
  C:7B80H         LINE#         1151
  C:7B89H         LINE#         1152
  C:7B89H         LINE#         1153
  C:7B8BH         LINE#         1155
BL51 BANKED LINKER/LOCATER V6.22                                                      02/19/2019  11:34:33  PAGE 51


  C:7B8BH         LINE#         1156
  C:7B8BH         LINE#         1157
  C:7B8BH         LINE#         1158
  C:7B9EH         LINE#         1159
  C:7BA3H         LINE#         1160
  C:7BA3H         LINE#         1162
  C:7BA3H         LINE#         1163
  C:7BA3H         LINE#         1164
  C:7BA3H         LINE#         1165
  -------         ENDPROC       PCT_SHOWMODEICON
  -------         PROC          PCT_OSDACTIONFORHS
  C:80C9H         LINE#         1171
  C:80C9H         LINE#         1172
  C:80C9H         LINE#         1173
  C:80CEH         LINE#         1174
  C:80D5H         LINE#         1176
  C:80DEH         LINE#         1178
  C:80E7H         LINE#         1181
  C:80E7H         LINE#         1182
  C:80EAH         LINE#         1183
  -------         ENDPROC       PCT_OSDACTIONFORHS
  -------         ENDMOD        OSDACTION_

  -------         MODULE        OSDCTRL
  C:0000H         SYMBOL        _ICE_DUMMY_
  D:0080H         PUBLIC        P0
  D:0090H         PUBLIC        P1
  D:00A0H         PUBLIC        P2
  C:16F8H         PUBLIC        FONT_TABLE
  D:00C0H         PUBLIC        XICON
  D:00B0H         PUBLIC        P3
  D:00E8H         PUBLIC        P4
  C:6C9AH         PUBLIC        _PCT_FullColorOnOSD
  C:7E1BH         PUBLIC        _PCT_EnShowOSDPage
  D:00A8H         PUBLIC        IE
  D:0017H         PUBLIC        backColor
  D:00B8H         PUBLIC        IP
  D:00D8H         PUBLIC        CCON
  C:83BEH         PUBLIC        _PCT_PreSetBackgroundColor
  C:6B34H         PUBLIC        _PCT_ClearWordsPathX
  D:0018H         PUBLIC        foreColor
  D:00C0H         PUBLIC        WDTC
  D:0098H         PUBLIC        SCON
  D:0088H         PUBLIC        TCON
  C:5CB6H         PUBLIC        _PCT_WriteOSDFntX
  C:6208H         PUBLIC        _PCT_WriteOSDFntY
  C:0026H         PUBLIC        _PCT_PreSetForegroundColor
  C:5B7CH         PUBLIC        PCT_InitOSDColor
  B:0022H.0       PUBLIC        DAT_BIT0
  B:0022H.1       PUBLIC        DAT_BIT1
  B:0022H.2       PUBLIC        DAT_BIT2
  B:0022H.3       PUBLIC        DAT_BIT3
  B:0022H.4       PUBLIC        DAT_BIT4
  B:0022H.5       PUBLIC        DAT_BIT5
  C:7639H         PUBLIC        _PCT_ShowOSDString
  B:0022H.6       PUBLIC        DAT_BIT6
  B:0022H.7       PUBLIC        DAT_BIT7
BL51 BANKED LINKER/LOCATER V6.22                                                      02/19/2019  11:34:33  PAGE 52


  D:00F8H         PUBLIC        IPA
  C:76F1H         PUBLIC        _PCT_SetOSDColor
  D:00C8H         PUBLIC        T2CON
  C:8152H         PUBLIC        _PCT_SetOSDDrawPage
  C:51BDH         PUBLIC        _PCT_WriteOSDDataBufferX
  C:81A8H         PUBLIC        _PCT_ClearOSDPageX
  C:5DDAH         PUBLIC        _PCT_WriteOSDDataBufferY
  C:7E87H         PUBLIC        _PCT_DisShowOSDPage
  D:00D0H         PUBLIC        PSW
  D:0022H         PUBLIC        bitdat
  C:54B4H         SYMBOL        Com0082
  C:54B4H         SYMBOL        L?0131
  C:54B4H         SYMBOL        L?0132
  C:54B9H         SYMBOL        L?0133
  C:54BCH         SYMBOL        L?0134
  C:54BDH         SYMBOL        L?0135
  C:54C4H         SYMBOL        L?0136
  C:54D0H         SYMBOL        L?0137
  C:54D2H         SYMBOL        L?0138
  C:54DAH         SYMBOL        L?0144
  C:54E7H         SYMBOL        L?0145
  C:54EAH         SYMBOL        L?0146
  C:54F1H         SYMBOL        L?0147
  C:54F2H         SYMBOL        L?0148
  C:54F3H         SYMBOL        L?0149
  C:54F5H         SYMBOL        L?0150
  C:54FCH         SYMBOL        L?0152
  C:5505H         SYMBOL        L?0153
  C:5510H         SYMBOL        L?0154
  C:5518H         SYMBOL        L?0155
  C:5525H         SYMBOL        L?0156
  C:5527H         SYMBOL        L?0157
  C:552AH         SYMBOL        L?0158
  C:5532H         SYMBOL        L?0159
  C:5534H         SYMBOL        L?0160
  C:5537H         SYMBOL        L?0161
  C:553FH         SYMBOL        L?0162
  C:5541H         SYMBOL        L?0163
  C:5544H         SYMBOL        L?0164
  C:554CH         SYMBOL        L?0166
  C:554CH         SYMBOL        L?0167
  C:5559H         SYMBOL        L?0168
  C:5559H         SYMBOL        L?0169
  C:5569H         SYMBOL        L?0170
  C:5584H         SYMBOL        L?0171
  C:559CH         SYMBOL        L?0172
  C:55B4H         SYMBOL        L?0174
  C:55B4H         SYMBOL        L?0175
  C:55B6H         SYMBOL        L?0176
  C:55BDH         SYMBOL        L?0177
  C:55BDH         SYMBOL        L?0178
  C:55C0H         SYMBOL        L?0179
  C:55C8H         SYMBOL        L?0181
  C:55CCH         SYMBOL        L?0182
  C:55D4H         SYMBOL        L?0184
  C:55D7H         SYMBOL        L?0185
  C:55DFH         SYMBOL        L?0186
BL51 BANKED LINKER/LOCATER V6.22                                                      02/19/2019  11:34:33  PAGE 53


  C:55EDH         SYMBOL        L?0187
  C:55FAH         SYMBOL        L?0188
  C:5606H         SYMBOL        L?0190
  C:5607H         SYMBOL        L?0191
  C:560EH         SYMBOL        L?0192
  C:560EH         SYMBOL        L?0193
  C:5614H         SYMBOL        L?0194
  -------         PROC          COM0082
  -------         ENDPROC       COM0082
  -------         PROC          _PCT_PRESETFOREGROUNDCOLOR
  D:0007H         SYMBOL        _color
  C:0026H         LINE#         84
  C:0026H         LINE#         85
  C:0026H         LINE#         86
  C:0028H         LINE#         88
  -------         ENDPROC       _PCT_PRESETFOREGROUNDCOLOR
  -------         PROC          _PCT_PRESETBACKGROUNDCOLOR
  D:0007H         SYMBOL        _color
  C:83BEH         LINE#         94
  C:83BEH         LINE#         95
  C:83BEH         LINE#         96
  C:83C0H         LINE#         98
  -------         ENDPROC       _PCT_PRESETBACKGROUNDCOLOR
  C:7742H         SYMBOL        L?0183
  -------         PROC          _PCT_SETOSDCOLOR
  X:01D5H         SYMBOL        _pth
  X:01D6H         SYMBOL        _col_num
  D:0003H         SYMBOL        _y
  X:01D8H         SYMBOL        _cb
  X:01D9H         SYMBOL        _cr
  C:76F1H         LINE#         104
  C:76F9H         LINE#         105
  C:76F9H         LINE#         106
  C:7703H         LINE#         107
  C:7710H         LINE#         108
  C:7721H         LINE#         109
  C:7728H         LINE#         110
  C:772EH         LINE#         112
  C:7741H         LINE#         113
  -------         ENDPROC       _PCT_SETOSDCOLOR
  C:5C7CH         SYMBOL        L?0139
  C:5C87H         SYMBOL        L?0141
  C:5C92H         SYMBOL        L?0143
  C:5C9BH         SYMBOL        L?0151
  C:5CA4H         SYMBOL        L?0165
  C:5CADH         SYMBOL        L?0173
  -------         PROC          PCT_INITOSDCOLOR
  C:5B7CH         LINE#         119
  C:5B7CH         LINE#         120
  C:5B7CH         LINE#         121
  C:5B8BH         LINE#         122
  C:5B96H         LINE#         123
  C:5B9BH         LINE#         124
  C:5BA9H         LINE#         125
  C:5BB5H         LINE#         127
  C:5BC0H         LINE#         128
  C:5BC8H         LINE#         129
BL51 BANKED LINKER/LOCATER V6.22                                                      02/19/2019  11:34:33  PAGE 54


  C:5BD6H         LINE#         130
  C:5BE2H         LINE#         131
  C:5BEEH         LINE#         132
  C:5BFAH         LINE#         133
  C:5C06H         LINE#         134
  C:5C12H         LINE#         135
  C:5C20H         LINE#         136
  C:5C32H         LINE#         137
  C:5C45H         LINE#         138
  C:5C58H         LINE#         139
  C:5C6AH         LINE#         140
  C:5C76H         LINE#         142
  C:5C79H         LINE#         143
  C:5C7BH         LINE#         144
  -------         ENDPROC       PCT_INITOSDCOLOR
  -------         PROC          _PCT_SETOSDDRAWPAGE
  X:01E3H         SYMBOL        _page
  C:8152H         LINE#         150
  C:8156H         LINE#         151
  C:8156H         LINE#         152
  C:816BH         LINE#         153
  -------         ENDPROC       _PCT_SETOSDDRAWPAGE
  C:7E3CH         SYMBOL        L?0180
  -------         PROC          _PCT_ENSHOWOSDPAGE
  X:01E3H         SYMBOL        _page
  C:7E1BH         LINE#         160
  C:7E20H         LINE#         161
  C:7E20H         LINE#         162
  C:7E28H         LINE#         163
  C:7E2BH         LINE#         164
  C:7E2DH         LINE#         165
  C:7E2FH         LINE#         166
  C:7E33H         LINE#         167
  C:7E3BH         LINE#         168
  C:7E3BH         LINE#         169
  -------         ENDPROC       _PCT_ENSHOWOSDPAGE
  -------         PROC          _PCT_DISSHOWOSDPAGE
  X:01DDH         SYMBOL        _bit
  -------         DO            
  X:01DEH         SYMBOL        dat
  -------         ENDDO         
  C:7E87H         LINE#         175
  C:7E8BH         LINE#         176
  C:7E8BH         LINE#         178
  C:7E9DH         LINE#         179
  -------         ENDPROC       _PCT_DISSHOWOSDPAGE
  -------         PROC          _PCT_FULLCOLORONOSD
  X:01DDH         SYMBOL        _posx
  X:01DEH         SYMBOL        _posy
  X:01E0H         SYMBOL        _wide
  X:01E1H         SYMBOL        _high
  C:6C9AH         LINE#         188
  C:6C9DH         LINE#         189
  C:6C9DH         LINE#         190
  C:6CA3H         LINE#         191
  C:6CA9H         LINE#         192
  C:6CAFH         LINE#         193
BL51 BANKED LINKER/LOCATER V6.22                                                      02/19/2019  11:34:33  PAGE 55


  C:6CB5H         LINE#         195
  C:6CBCH         LINE#         196
  C:6CD1H         LINE#         197
  C:6CE0H         LINE#         198
  C:6CFBH         LINE#         200
  C:6D02H         LINE#         201
  C:6D0BH         LINE#         202
  C:6D14H         LINE#         203
  C:6D1DH         LINE#         204
  C:6D2AH         LINE#         206
  C:6D39H         LINE#         207
  C:6D43H         LINE#         208
  -------         ENDPROC       _PCT_FULLCOLORONOSD
  -------         PROC          _PCT_CLEAROSDPAGEX
  D:0007H         SYMBOL        _page
  C:81A8H         LINE#         210
  C:81A8H         LINE#         211
  C:81A8H         LINE#         212
  C:81ABH         LINE#         214
  C:81B0H         LINE#         215
  -------         ENDPROC       _PCT_CLEAROSDPAGEX
  C:52F1H         SYMBOL        L?0129
  C:5313H         SYMBOL        L?0140
  C:5322H         SYMBOL        L?0142
  C:5331H         SYMBOL        L?0189
  -------         PROC          _PCT_WRITEOSDDATABUFFERX
  X:01FDH         SYMBOL        _index
  X:01FEH         SYMBOL        _dat
  C:51BDH         LINE#         228
  C:51C7H         LINE#         229
  C:51C7H         LINE#         230
  C:51D2H         LINE#         231
  C:51E2H         LINE#         232
  C:51EEH         LINE#         233
  C:51FAH         LINE#         234
  C:5203H         LINE#         235
  C:5206H         LINE#         236
  C:520CH         LINE#         238
  C:521FH         LINE#         239
  C:522BH         LINE#         240
  C:5237H         LINE#         241
  C:5240H         LINE#         242
  C:5243H         LINE#         243
  C:5248H         LINE#         245
  C:5250H         LINE#         246
  C:5263H         LINE#         247
  C:5273H         LINE#         248
  C:5283H         LINE#         249
  C:5290H         LINE#         250
  C:5296H         LINE#         251
  C:529BH         LINE#         253
  C:52AEH         LINE#         254
  C:52C1H         LINE#         255
  C:52D4H         LINE#         256
  C:52E7H         LINE#         257
  C:52F1H         LINE#         258
  -------         ENDPROC       _PCT_WRITEOSDDATABUFFERX
BL51 BANKED LINKER/LOCATER V6.22                                                      02/19/2019  11:34:33  PAGE 56


  -------         PROC          _PCT_WRITEOSDFNTX
  D:0007H         SYMBOL        _posx
  X:01EBH         SYMBOL        _posy
  X:01EDH         SYMBOL        _len
  X:01EEH         SYMBOL        _indx
  -------         DO            
  D:000AH         SYMBOL        i
  D:000BH         SYMBOL        j
  D:000CH         SYMBOL        posx
  X:01F1H         SYMBOL        charPtr
  -------         ENDDO         
  C:5CB6H         LINE#         269
  C:5CBDH         LINE#         270
  C:5CBDH         LINE#         274
  C:5CC0H         LINE#         275
  C:5CC5H         LINE#         276
  C:5CD8H         LINE#         277
  C:5CE4H         LINE#         278
  C:5CF3H         LINE#         279
  C:5D02H         LINE#         280
  C:5D14H         LINE#         281
  C:5D26H         LINE#         283
  C:5D32H         LINE#         284
  C:5D3FH         LINE#         285
  C:5D73H         LINE#         286
  C:5D7BH         LINE#         287
  C:5D84H         LINE#         289
  C:5D8DH         LINE#         290
  C:5D99H         LINE#         291
  C:5DA3H         LINE#         293
  C:5DAEH         LINE#         294
  C:5DBAH         LINE#         295
  C:5DC4H         LINE#         297
  C:5DD2H         LINE#         298
  C:5DD9H         LINE#         299
  -------         ENDPROC       _PCT_WRITEOSDFNTX
  -------         PROC          _PCT_CLEARWORDSPATHX
  X:01E0H         SYMBOL        _posx
  X:01E1H         SYMBOL        _posy
  X:01E3H         SYMBOL        _len
  -------         DO            
  X:01E4H         SYMBOL        wide
  X:01E5H         SYMBOL        high
  -------         ENDDO         
  C:6B34H         LINE#         308
  C:6B37H         LINE#         309
  C:6B37H         LINE#         313
  C:6B3DH         LINE#         314
  C:6B43H         LINE#         315
  C:6B49H         LINE#         316
  C:6B4FH         LINE#         318
  C:6B57H         LINE#         319
  C:6B5AH         LINE#         320
  C:6B6AH         LINE#         321
  C:6B76H         LINE#         323
  C:6B8AH         LINE#         324
  C:6B9EH         LINE#         326
BL51 BANKED LINKER/LOCATER V6.22                                                      02/19/2019  11:34:33  PAGE 57


  C:6BA8H         LINE#         327
  C:6BB1H         LINE#         328
  C:6BBAH         LINE#         329
  C:6BC3H         LINE#         330
  C:6BD0H         LINE#         332
  C:6BDFH         LINE#         333
  C:6BE9H         LINE#         334
  -------         ENDPROC       _PCT_CLEARWORDSPATHX
  -------         PROC          _PCT_WRITEOSDDATABUFFERY
  X:0209H         SYMBOL        _index
  X:020AH         SYMBOL        _dat
  C:5DDAH         LINE#         341
  C:5DE4H         LINE#         342
  C:5DE4H         LINE#         343
  C:5DEFH         LINE#         344
  C:5E0EH         LINE#         345
  C:5E2DH         LINE#         346
  C:5E4CH         LINE#         347
  C:5E6BH         LINE#         348
  C:5E71H         LINE#         350
  C:5E7CH         LINE#         351
  C:5E9BH         LINE#         352
  C:5EBAH         LINE#         353
  C:5ED9H         LINE#         354
  C:5EF8H         LINE#         355
  -------         ENDPROC       _PCT_WRITEOSDDATABUFFERY
  -------         PROC          _PCT_WRITEOSDFNTY
  X:01EAH         SYMBOL        _posx
  X:01EBH         SYMBOL        _posy
  X:01EDH         SYMBOL        _len
  X:01EEH         SYMBOL        _indx
  -------         DO            
  D:000AH         SYMBOL        i
  D:000BH         SYMBOL        j
  X:01F1H         SYMBOL        charPtr
  -------         ENDDO         
  C:6208H         LINE#         368
  C:6212H         LINE#         369
  C:6212H         LINE#         373
  C:621AH         LINE#         374
  C:621DH         LINE#         375
  C:622DH         LINE#         376
  C:6239H         LINE#         378
  C:6245H         LINE#         379
  C:6253H         LINE#         380
  C:626BH         LINE#         382
  C:6278H         LINE#         383
  C:62A0H         LINE#         384
  C:62AAH         LINE#         385
  C:62B3H         LINE#         386
  C:62CEH         LINE#         387
  C:62DAH         LINE#         388
  C:62E4H         LINE#         389
  C:62F2H         LINE#         390
  C:62F9H         LINE#         391
  -------         ENDPROC       _PCT_WRITEOSDFNTY
  -------         PROC          _PCT_SHOWOSDSTRING
BL51 BANKED LINKER/LOCATER V6.22                                                      02/19/2019  11:34:33  PAGE 58


  X:01E3H         SYMBOL        _path
  X:01E4H         SYMBOL        _addrx
  X:01E5H         SYMBOL        _addry
  X:01E6H         SYMBOL        _strptr
  -------         DO            
  X:01E9H         SYMBOL        slen
  -------         ENDDO         
  C:7639H         LINE#         398
  C:7640H         LINE#         399
  C:7640H         LINE#         402
  C:764BH         LINE#         403
  C:7652H         LINE#         404
  C:7659H         LINE#         405
  C:7659H         LINE#         406
  C:7666H         LINE#         407
  C:766DH         LINE#         408
  C:7670H         LINE#         409
  C:7670H         LINE#         410
  C:7675H         LINE#         411
  C:7677H         LINE#         412
  C:7677H         LINE#         413
  C:7684H         LINE#         414
  C:768BH         LINE#         415
  C:768EH         LINE#         416
  C:768EH         LINE#         417
  C:7693H         LINE#         418
  C:7693H         LINE#         419
  C:7696H         LINE#         420
  -------         ENDPROC       _PCT_SHOWOSDSTRING
  -------         ENDMOD        OSDCTRL

  -------         MODULE        TIMER
  C:0000H         SYMBOL        _ICE_DUMMY_
  D:0080H         PUBLIC        P0
  D:0090H         PUBLIC        P1
  D:00A0H         PUBLIC        P2
  D:00C0H         PUBLIC        XICON
  D:00B0H         PUBLIC        P3
  C:8369H         PUBLIC        InitialTimer0
  D:00E8H         PUBLIC        P4
  C:8171H         PUBLIC        InitialTimer2
  B:00A8H.7       PUBLIC        EA
  C:8325H         PUBLIC        Timer0_interrupt
  C:64CCH         PUBLIC        Timer2_interrupt
  D:00A8H         PUBLIC        IE
  D:00B8H         PUBLIC        IP
  D:00D8H         PUBLIC        CCON
  D:00C0H         PUBLIC        WDTC
  D:0098H         PUBLIC        SCON
  D:0088H         PUBLIC        TCON
  D:0025H         PUBLIC        user_timer
  B:0088H.5       PUBLIC        TF0
  B:00A8H.5       PUBLIC        ET2
  B:00C8H.7       PUBLIC        TF2
  D:008CH         PUBLIC        TH0
  D:00CDH         PUBLIC        TH2
  D:008AH         PUBLIC        TL0
BL51 BANKED LINKER/LOCATER V6.22                                                      02/19/2019  11:34:33  PAGE 59


  D:00CCH         PUBLIC        TL2
  B:00B8H.5       PUBLIC        PT2
  B:0088H.4       PUBLIC        TR0
  B:00C8H.2       PUBLIC        TR2
  D:00F8H         PUBLIC        IPA
  D:00C9H         PUBLIC        T2MOD
  D:00C8H         PUBLIC        T2CON
  D:00D0H         PUBLIC        PSW
  -------         PROC          INITIALTIMER0
  C:8369H         LINE#         70
  C:8369H         LINE#         82
  C:836BH         LINE#         89
  C:836EH         LINE#         101
  C:8371H         LINE#         109
  -------         ENDPROC       INITIALTIMER0
  -------         PROC          INITIALTIMER2
  -------         DO            
  D:0007H         SYMBOL        i
  -------         ENDDO         
  C:8171H         LINE#         113
  C:8171H         LINE#         114
  C:8171H         LINE#         117
  C:8173H         LINE#         118
  C:8175H         LINE#         119
  C:8177H         LINE#         120
  C:817AH         LINE#         121
  C:817DH         LINE#         123
  C:817FH         LINE#         124
  C:8182H         LINE#         125
  C:8184H         LINE#         127
  C:8184H         LINE#         128
  C:818DH         LINE#         130
  -------         ENDPROC       INITIALTIMER2
  -------         PROC          TIMER0_INTERRUPT
  C:8325H         LINE#         141
  C:8325H         LINE#         144
  C:8327H         LINE#         145
  C:832AH         LINE#         146
  C:832DH         LINE#         147
  C:832FH         LINE#         155
  C:8331H         LINE#         156
  -------         ENDPROC       TIMER0_INTERRUPT
  -------         PROC          TIMER2_INTERRUPT
  C:64CCH         LINE#         160
  C:64D4H         LINE#         163
  C:64D6H         LINE#         164
  C:64D9H         LINE#         165
  C:64DCH         LINE#         170
  C:64DEH         LINE#         174
  C:64F3H         LINE#         175
  C:6508H         LINE#         176
  C:651DH         LINE#         178
  C:6532H         LINE#         180
  C:6547H         LINE#         181
  C:655CH         LINE#         183
  C:6577H         LINE#         184
  C:6592H         LINE#         190
BL51 BANKED LINKER/LOCATER V6.22                                                      02/19/2019  11:34:33  PAGE 60


  C:659EH         LINE#         191
  C:65A0H         LINE#         192
  -------         ENDPROC       TIMER2_INTERRUPT
  -------         ENDMOD        TIMER

  -------         MODULE        TW28XX_AUDIO
  C:0000H         SYMBOL        _ICE_DUMMY_
  D:0080H         PUBLIC        P0
  D:0090H         PUBLIC        P1
  D:00A0H         PUBLIC        P2
  D:00C0H         PUBLIC        XICON
  D:00B0H         PUBLIC        P3
  D:00E8H         PUBLIC        P4
  D:00A8H         PUBLIC        IE
  D:00B8H         PUBLIC        IP
  D:00D8H         PUBLIC        CCON
  D:00C0H         PUBLIC        WDTC
  D:0098H         PUBLIC        SCON
  D:0088H         PUBLIC        TCON
  D:00F8H         PUBLIC        IPA
  D:00C8H         PUBLIC        T2CON
  D:00D0H         PUBLIC        PSW
  -------         ENDMOD        TW28XX_AUDIO

  -------         MODULE        TW28XX_VIDEO
  C:0000H         SYMBOL        _ICE_DUMMY_
  D:0080H         PUBLIC        P0
  D:0090H         PUBLIC        P1
  D:00A0H         PUBLIC        P2
  D:00C0H         PUBLIC        XICON
  D:00B0H         PUBLIC        P3
  D:00E8H         PUBLIC        P4
  C:36A6H         PUBLIC        VidoW2_ModifyACHM
  C:7BFAH         PUBLIC        _PCT_WinAttrCtrlY
  C:369AH         PUBLIC        VidoW2_ModifyACNM
  C:78DAH         PUBLIC        _PCT_DetectVideoFormat
  D:00A8H         PUBLIC        IE
  C:368AH         PUBLIC        Video_HDelay
  C:36BEH         PUBLIC        VidoW2_ModifyRBHM
  C:5A3BH         PUBLIC        _PCT_RecompenseYHdelay
  D:00B8H         PUBLIC        IP
  C:36B2H         PUBLIC        VidoW2_ModifyRBNM
  C:3757H         PUBLIC        XWinAttr_RegAddr
  D:00D8H         PUBLIC        CCON
  C:3777H         PUBLIC        YWinAttr_RegAddr
  C:366CH         PUBLIC        Video_HDelayInit
  C:45DCH         PUBLIC        _PCT_SetVideoHDelay
  C:7DA9H         PUBLIC        _PCT_WinAttrCtrl
  C:6D44H         PUBLIC        _PCT_SetChanelScale
  D:00C0H         PUBLIC        WDTC
  D:0098H         PUBLIC        SCON
  D:0088H         PUBLIC        TCON
  C:4E78H         PUBLIC        _PCT_SetXVideoMixing
  C:8235H         PUBLIC        _PCT_SetYVideoMixing
  C:36D6H         PUBLIC        Init_Vido_Y
  C:36CAH         PUBLIC        VidoW2_ModifyACHM_PAL
  D:00F8H         PUBLIC        IPA
BL51 BANKED LINKER/LOCATER V6.22                                                      02/19/2019  11:34:33  PAGE 61


  D:00C8H         PUBLIC        T2CON
  C:3336H         PUBLIC        Init_Vido_W1
  C:33A8H         PUBLIC        Init_Vido_W2
  C:3432H         PUBLIC        Init_Vido_W3
  C:3767H         PUBLIC        XWinPOP_RegAddr
  C:35FAH         PUBLIC        Init_Vido_W4
  D:00D0H         PUBLIC        PSW
  C:5EFEH         SYMBOL        Com0060
  C:5EFEH         SYMBOL        L?0097
  C:5EFEH         SYMBOL        L?0098
  C:5F16H         SYMBOL        L?0099
  C:5F17H         SYMBOL        L?0100
  C:5F1AH         SYMBOL        L?0101
  C:5F20H         SYMBOL        L?0102
  C:5F24H         SYMBOL        L?0103
  C:5F27H         SYMBOL        L?0104
  C:5F30H         SYMBOL        L?0112
  C:5F30H         SYMBOL        L?0113
  C:5F33H         SYMBOL        L?0114
  C:5F36H         SYMBOL        L?0115
  C:5F3DH         SYMBOL        L?0116
  C:5F3DH         SYMBOL        L?0117
  C:5F41H         SYMBOL        L?0118
  C:5F4AH         SYMBOL        L?0119
  C:5F4DH         SYMBOL        L?0120
  C:5F50H         SYMBOL        L?0121
  C:5F5CH         SYMBOL        L?0122
  C:5F5CH         SYMBOL        L?0123
  C:5F61H         SYMBOL        L?0124
  C:5F64H         SYMBOL        L?0125
  C:5F6CH         SYMBOL        L?0127
  C:5F6FH         SYMBOL        L?0128
  C:5F73H         SYMBOL        L?0129
  C:5F76H         SYMBOL        L?0130
  C:5F7EH         SYMBOL        L?0133
  C:5F7EH         SYMBOL        L?0134
  C:5F81H         SYMBOL        L?0135
  C:5F89H         SYMBOL        L?0136
  C:5F92H         SYMBOL        L?0137
  C:5F9EH         SYMBOL        L?0139
  C:5FBDH         SYMBOL        L?0142
  C:5FBDH         SYMBOL        L?0143
  C:5FC0H         SYMBOL        L?0144
  C:5FC9H         SYMBOL        L?0150
  C:5FC9H         SYMBOL        L?0151
  C:5FD0H         SYMBOL        L?0153
  C:5FD0H         SYMBOL        L?0154
  C:5FD8H         SYMBOL        L?0156
  C:5FE2H         SYMBOL        L?0157
  C:5FE2H         SYMBOL        L?0158
  C:5FE8H         SYMBOL        L?0159
  C:5FE8H         SYMBOL        L?0160
  C:5FEFH         SYMBOL        L?0161
  C:5FEFH         SYMBOL        L?0162
  C:5FF5H         SYMBOL        L?0163
  C:5FF5H         SYMBOL        L?0164
  C:5FFCH         SYMBOL        L?0165
BL51 BANKED LINKER/LOCATER V6.22                                                      02/19/2019  11:34:33  PAGE 62


  -------         PROC          COM0060
  -------         ENDPROC       COM0060
  -------         PROC          _PCT_DETECTVIDEOFORMAT
  X:0006H         SYMBOL        _ch
  -------         DO            
  X:0007H         SYMBOL        tmpSta
  -------         ENDDO         
  C:78DAH         LINE#         77
  C:78DFH         LINE#         78
  C:78DFH         LINE#         84
  C:78E2H         LINE#         86
  C:78EFH         LINE#         87
  C:7902H         LINE#         90
  C:7909H         LINE#         91
  C:790CH         LINE#         92
  C:7913H         LINE#         93
  C:7919H         LINE#         94
  C:7924H         LINE#         105
  -------         ENDPROC       _PCT_DETECTVIDEOFORMAT
  C:6DA3H         SYMBOL        L?0111
  -------         PROC          _PCT_SETCHANELSCALE
  D:0007H         SYMBOL        _ch
  X:01E4H         SYMBOL        datptr
  -------         DO            
  C:377FH         SYMBOL        ScaleRgeAddr
  X:01E7H         SYMBOL        addrptr
  X:01EAH         SYMBOL        value
  -------         ENDDO         
  C:6D44H         LINE#         133
  C:6D4BH         LINE#         134
  C:6D4BH         LINE#         146
  C:6D5BH         LINE#         147
  C:6D6FH         LINE#         148
  C:6D74H         LINE#         149
  C:6D74H         LINE#         150
  C:6D7DH         LINE#         151
  C:6D87H         LINE#         152
  C:6D9AH         LINE#         153
  C:6D9AH         LINE#         154
  C:6DA3H         LINE#         155
  -------         ENDPROC       _PCT_SETCHANELSCALE
  C:47F1H         SYMBOL        L?0105
  C:480EH         SYMBOL        L?0106
  C:482BH         SYMBOL        L?0107
  C:4848H         SYMBOL        L?0108
  C:4860H         SYMBOL        L?0109
  C:487AH         SYMBOL        L?0110
  C:488FH         SYMBOL        L?0126
  C:48A0H         SYMBOL        L?0132
  C:48ACH         SYMBOL        L?0140
  C:48B8H         SYMBOL        L?0141
  C:48C9H         SYMBOL        L?0148
  -------         PROC          _PCT_SETVIDEOHDELAY
  D:0007H         SYMBOL        _typ
  X:01DEH         SYMBOL        _winch
  X:01E1H         SYMBOL        _cattr
  -------         DO            
BL51 BANKED LINKER/LOCATER V6.22                                                      02/19/2019  11:34:33  PAGE 63


  X:01E4H         SYMBOL        hdelay
  -------         ENDDO         
  C:45DCH         LINE#         158
  C:45E3H         LINE#         159
  C:45E3H         LINE#         167
  C:460FH         LINE#         168
  C:460FH         LINE#         169
  C:460FH         LINE#         175
  C:4615H         LINE#         176
  C:461EH         LINE#         177
  C:462BH         LINE#         178
  C:4631H         LINE#         180
  C:4633H         LINE#         184
  C:4634H         LINE#         192
  C:4636H         LINE#         194
  C:4636H         LINE#         195
  C:4636H         LINE#         209
  C:4636H         LINE#         211
  C:4636H         LINE#         212
  C:4636H         LINE#         214
  C:4636H         LINE#         215
  C:463FH         LINE#         223
  C:464DH         LINE#         227
  C:464DH         LINE#         228
  C:464DH         LINE#         233
  C:465BH         LINE#         235
  C:465EH         LINE#         237
  C:465EH         LINE#         238
  C:465EH         LINE#         240
  C:4664H         LINE#         241
  C:466DH         LINE#         242
  C:4675H         LINE#         243
  C:467BH         LINE#         245
  C:467BH         LINE#         246
  C:4687H         LINE#         247
  C:468FH         LINE#         248
  C:4695H         LINE#         250
  C:4698H         LINE#         251
  C:46A1H         LINE#         252
  C:46ACH         LINE#         253
  C:46B6H         LINE#         254
  C:46B9H         LINE#         256
  C:46B9H         LINE#         257
  C:46B9H         LINE#         258
  C:46B9H         LINE#         260
  C:46B9H         LINE#         261
  C:46B9H         LINE#         264
  C:46B9H         LINE#         265
  C:46C2H         LINE#         266
  C:46CAH         LINE#         267
  C:46D0H         LINE#         269
  C:46D0H         LINE#         270
  C:46D0H         LINE#         271
  C:46D8H         LINE#         272
  C:46DEH         LINE#         274
  C:46E1H         LINE#         275
  C:46EAH         LINE#         276
BL51 BANKED LINKER/LOCATER V6.22                                                      02/19/2019  11:34:33  PAGE 64


  C:46F5H         LINE#         277
  C:46FFH         LINE#         278
  C:4702H         LINE#         280
  C:4702H         LINE#         281
  C:4702H         LINE#         284
  C:4702H         LINE#         285
  C:470BH         LINE#         286
  C:4719H         LINE#         287
  C:4725H         LINE#         289
  C:4725H         LINE#         290
  C:4725H         LINE#         291
  C:472DH         LINE#         292
  C:4739H         LINE#         294
  C:4739H         LINE#         295
  C:4745H         LINE#         296
  C:4753H         LINE#         297
  C:475DH         LINE#         298
  C:4760H         LINE#         300
  C:4760H         LINE#         301
  C:4760H         LINE#         304
  C:4760H         LINE#         305
  C:4769H         LINE#         306
  C:4777H         LINE#         307
  C:4783H         LINE#         309
  C:4783H         LINE#         310
  C:4783H         LINE#         311
  C:478BH         LINE#         312
  C:4797H         LINE#         314
  C:4797H         LINE#         315
  C:47A3H         LINE#         316
  C:47AEH         LINE#         317
  C:47B8H         LINE#         319
  C:47BBH         LINE#         320
  C:47C4H         LINE#         321
  C:47DCH         LINE#         322
  C:47F0H         LINE#         323
  C:47F0H         LINE#         325
  C:47F0H         LINE#         326
  C:47F0H         LINE#         327
  C:47F0H         LINE#         328
  -------         ENDPROC       _PCT_SETVIDEOHDELAY
  C:4FF8H         SYMBOL        L?0146
  C:4FFFH         SYMBOL        L?0147
  C:500AH         SYMBOL        L?0149
  C:5014H         SYMBOL        L?0166
  -------         PROC          _PCT_SETXVIDEOMIXING
  X:01DDH         SYMBOL        _typ
  X:01DEH         SYMBOL        _winch
  -------         DO            
  X:01E1H         SYMBOL        wregptr
  -------         ENDDO         
  C:4E78H         LINE#         331
  C:4E82H         LINE#         332
  C:4E82H         LINE#         336
  C:4E90H         LINE#         337
  C:4E9EH         LINE#         338
  C:4EB3H         LINE#         339
BL51 BANKED LINKER/LOCATER V6.22                                                      02/19/2019  11:34:33  PAGE 65


  C:4EC8H         LINE#         348
  C:4EFFH         LINE#         349
  C:4EFFH         LINE#         350
  C:4EFFH         LINE#         354
  C:4F0FH         LINE#         355
  C:4F18H         LINE#         356
  C:4F18H         LINE#         357
  C:4F1BH         LINE#         359
  C:4F1BH         LINE#         360
  C:4F1BH         LINE#         361
  C:4F1BH         LINE#         362
  C:4F1BH         LINE#         363
  C:4F2BH         LINE#         364
  C:4F2DH         LINE#         366
  C:4F39H         LINE#         368
  C:4F45H         LINE#         370
  C:4F4AH         LINE#         371
  C:4F4DH         LINE#         373
  C:4F4DH         LINE#         374
  C:4F4DH         LINE#         375
  C:4F4DH         LINE#         376
  C:4F4DH         LINE#         377
  C:4F4DH         LINE#         378
  C:4F4DH         LINE#         379
  C:4F4DH         LINE#         380
  C:4F4DH         LINE#         381
  C:4F5DH         LINE#         382
  C:4F5FH         LINE#         384
  C:4F6BH         LINE#         385
  C:4F77H         LINE#         386
  C:4F8CH         LINE#         387
  C:4F91H         LINE#         388
  C:4F94H         LINE#         390
  C:4F94H         LINE#         391
  C:4F94H         LINE#         392
  C:4FA4H         LINE#         393
  C:4FB0H         LINE#         394
  C:4FC0H         LINE#         395
  C:4FD3H         LINE#         396
  C:4FE9H         LINE#         397
  C:4FF7H         LINE#         398
  C:4FF7H         LINE#         400
  C:4FF7H         LINE#         401
  C:4FF7H         LINE#         402
  C:4FF7H         LINE#         403
  -------         ENDPROC       _PCT_SETXVIDEOMIXING
  -------         PROC          _PCT_SETYVIDEOMIXING
  D:0007H         SYMBOL        _typ
  C:8235H         LINE#         409
  C:8235H         LINE#         410
  C:8235H         LINE#         411
  -------         ENDPROC       _PCT_SETYVIDEOMIXING
  C:5B45H         SYMBOL        L?0131
  C:5B51H         SYMBOL        L?0138
  C:5B5DH         SYMBOL        L?0145
  C:5B69H         SYMBOL        L?0152
  C:5B70H         SYMBOL        L?0155
BL51 BANKED LINKER/LOCATER V6.22                                                      02/19/2019  11:34:33  PAGE 66


  -------         PROC          _PCT_RECOMPENSEYHDELAY
  X:01DDH         SYMBOL        _chmiro
  C:5A3BH         LINE#         415
  C:5A42H         LINE#         416
  C:5A42H         LINE#         417
  C:5A6FH         LINE#         418
  C:5A6FH         LINE#         420
  C:5A80H         LINE#         421
  C:5A8AH         LINE#         422
  C:5A9BH         LINE#         423
  C:5AA5H         LINE#         424
  C:5AB6H         LINE#         425
  C:5AC3H         LINE#         426
  C:5AD7H         LINE#         427
  C:5AD7H         LINE#         428
  C:5ADAH         LINE#         430
  C:5ADAH         LINE#         431
  C:5AEBH         LINE#         432
  C:5AF2H         LINE#         433
  C:5AF5H         LINE#         435
  C:5AF5H         LINE#         436
  C:5B03H         LINE#         437
  C:5B0AH         LINE#         438
  C:5B0CH         LINE#         440
  C:5B0CH         LINE#         441
  C:5B1DH         LINE#         442
  C:5B24H         LINE#         443
  C:5B26H         LINE#         445
  C:5B26H         LINE#         446
  C:5B37H         LINE#         447
  C:5B44H         LINE#         448
  C:5B44H         LINE#         449
  C:5B44H         LINE#         450
  -------         ENDPROC       _PCT_RECOMPENSEYHDELAY
  -------         PROC          _PCT_WINATTRCTRL
  X:01DDH         SYMBOL        _wid
  X:01DEH         SYMBOL        _attrsel
  X:01DFH         SYMBOL        _setval
  -------         DO            
  D:0004H         SYMBOL        dat
  -------         ENDDO         
  C:7DA9H         LINE#         501
  C:7DB6H         LINE#         502
  C:7DB6H         LINE#         508
  C:7DC0H         LINE#         509
  C:7DD2H         LINE#         510
  -------         ENDPROC       _PCT_WINATTRCTRL
  -------         PROC          _PCT_WINATTRCTRLY
  X:01DDH         SYMBOL        _wid
  X:01DEH         SYMBOL        _attrsel
  X:01DFH         SYMBOL        _setval
  -------         DO            
  D:0004H         SYMBOL        dat
  -------         ENDDO         
  C:7BFAH         LINE#         519
  C:7C07H         LINE#         520
  C:7C07H         LINE#         525
BL51 BANKED LINKER/LOCATER V6.22                                                      02/19/2019  11:34:33  PAGE 67


  C:7C14H         LINE#         526
  C:7C26H         LINE#         527
  -------         ENDPROC       _PCT_WINATTRCTRLY
  -------         ENDMOD        TW28XX_VIDEO

  -------         MODULE        TW2835_INIT
  C:0000H         SYMBOL        _ICE_DUMMY_
  D:0080H         PUBLIC        P0
  D:0090H         PUBLIC        P1
  D:00A0H         PUBLIC        P2
  D:00C0H         PUBLIC        XICON
  D:00B0H         PUBLIC        P3
  D:00E8H         PUBLIC        P4
  D:00A8H         PUBLIC        IE
  C:378FH         PUBLIC        TW2835_Page0
  C:398FH         PUBLIC        TW2835_Page1
  C:8284H         PUBLIC        PCT_InitialTW2835
  D:00B8H         PUBLIC        IP
  C:8271H         PUBLIC        PCT_TW2835ResetN
  D:00D8H         PUBLIC        CCON
  D:00C0H         PUBLIC        WDTC
  D:0098H         PUBLIC        SCON
  D:0088H         PUBLIC        TCON
  C:744CH         PUBLIC        _PCT_ChangeSystemType
  D:00F8H         PUBLIC        IPA
  D:00C8H         PUBLIC        T2CON
  B:00E8H.0       PUBLIC        RSTn
  C:731CH         PUBLIC        PCT_TW2835_Initial
  D:00D0H         PUBLIC        PSW
  C:81DBH         SYMBOL        Com0009
  C:81DBH         SYMBOL        L?0010
  C:81E4H         SYMBOL        L?0011
  -------         PROC          COM0009
  -------         ENDPROC       COM0009
  -------         PROC          PCT_INITIALTW2835
  C:8284H         LINE#         77
  C:8284H         LINE#         78
  C:8284H         LINE#         79
  C:8287H         LINE#         81
  C:828CH         LINE#         101
  C:8290H         LINE#         103
  C:8293H         LINE#         105
  -------         ENDPROC       PCT_INITIALTW2835
  -------         PROC          PCT_TW2835RESETN
  -------         DO            
  D:0006H         SYMBOL        _delay
  -------         ENDDO         
  C:8271H         LINE#         113
  C:8271H         LINE#         114
  C:8271H         LINE#         129
  C:8273H         LINE#         132
  C:8281H         LINE#         134
  C:8283H         LINE#         138
  -------         ENDPROC       PCT_TW2835RESETN
  C:7377H         SYMBOL        L?0012
  -------         PROC          PCT_TW2835_INITIAL
  -------         DO            
BL51 BANKED LINKER/LOCATER V6.22                                                      02/19/2019  11:34:33  PAGE 68


  X:01D5H         SYMBOL        offset
  -------         ENDDO         
  C:731CH         LINE#         144
  C:731CH         LINE#         145
  C:731CH         LINE#         148
  C:7327H         LINE#         149
  C:7333H         LINE#         150
  C:7345H         LINE#         152
  C:735CH         LINE#         154
  C:7377H         LINE#         155
  -------         ENDPROC       PCT_TW2835_INITIAL
  C:74A4H         SYMBOL        L?0013
  -------         PROC          _PCT_CHANGESYSTEMTYPE
  D:0007H         SYMBOL        _sys
  -------         DO            
  X:0006H         SYMBOL        offset
  -------         ENDDO         
  C:744CH         LINE#         161
  C:744CH         LINE#         162
  C:744CH         LINE#         165
  C:7454H         LINE#         166
  C:7460H         LINE#         168
  C:7473H         LINE#         170
  C:7489H         LINE#         171
  C:74A4H         LINE#         172
  -------         ENDPROC       _PCT_CHANGESYSTEMTYPE
  -------         ENDMOD        TW2835_INIT

  -------         MODULE        NED
  C:0000H         SYMBOL        _ICE_DUMMY_
  X:0211H         PUBLIC        SC16_Com
  C:83B2H         PUBLIC        _GPIOGetPortState
  D:0080H         PUBLIC        P0
  D:0090H         PUBLIC        P1
  C:7D6EH         PUBLIC        _SC16_data_reset
  D:00A0H         PUBLIC        P2
  C:7C7AH         PUBLIC        Sent_DVR_temp
  D:00C0H         PUBLIC        XICON
  D:00B0H         PUBLIC        P3
  X:021AH         PUBLIC        Camera_move_loop
  D:00E8H         PUBLIC        P4
  X:021BH         PUBLIC        DVR_temp
  X:021DH         PUBLIC        Cam_startup_flag
  C:7AE1H         PUBLIC        _Set_Video
  C:7FFDH         PUBLIC        Get_DVR_temp
  C:70F1H         PUBLIC        _Bound_Set
  C:82F8H         PUBLIC        _Sent_Camera_IRD
  C:837BH         PUBLIC        _GPIOSetPortState
  C:82CAH         PUBLIC        _Power_onoff
  X:021EH         PUBLIC        Camera_press0
  D:00A8H         PUBLIC        IE
  X:021FH         PUBLIC        Camera_press1
  C:8372H         PUBLIC        _GPIOSetPortMode
  X:0220H         PUBLIC        Camera_press2
  X:0221H         PUBLIC        Camera_press3
  C:7514H         PUBLIC        GPIO_check
  B:00A0H.0       PUBLIC        P2_0
BL51 BANKED LINKER/LOCATER V6.22                                                      02/19/2019  11:34:33  PAGE 69


  X:0222H         PUBLIC        Cam_Com
  B:00A0H.1       PUBLIC        P2_1
  C:7970H         PUBLIC        Sent_Camera_RAng
  B:00A0H.2       PUBLIC        P2_2
  C:83B8H         PUBLIC        _ReadByte
  C:6FF8H         PUBLIC        SC16_init
  B:00E8H.1       PUBLIC        P4_1
  B:00A0H.3       PUBLIC        P2_3
  X:0227H         PUBLIC        Camera_temp0
  B:00E8H.2       PUBLIC        P4_2
  X:0228H         PUBLIC        Camera_RAng
  X:022CH         PUBLIC        Camera_temp1
  B:00B0H.4       PUBLIC        P3_4
  B:00A0H.5       PUBLIC        P2_5
  B:00B0H.5       PUBLIC        P3_5
  B:00A0H.6       PUBLIC        P2_6
  X:022DH         PUBLIC        data_flag
  X:022EH         PUBLIC        GPIO_current
  C:7FD1H         PUBLIC        Get_Camera_RAng
  D:00B8H         PUBLIC        IP
  X:022FH         PUBLIC        DVR_ver
  X:0232H         PUBLIC        Com_flag
  X:0233H         PUBLIC        Com_addr
  D:00C6H         PUBLIC        ADCV
  X:0234H         PUBLIC        SC16_busy_flag
  X:0236H         PUBLIC        peek_flag
  D:00D8H         PUBLIC        CCON
  X:0237H         PUBLIC        SC16_com_buff
  C:8384H         PUBLIC        _WriteByte
  X:0240H         PUBLIC        Cam_boot_flag
  X:0241H         PUBLIC        DVR_Y
  C:8053H         PUBLIC        I2CReadDataWithACK
  C:7A05H         PUBLIC        Send_Camera_Press
  X:0245H         PUBLIC        Camera_ver0
  X:0246H         PUBLIC        Camera_ver1
  X:0247H         PUBLIC        Camera_ver2
  D:0087H         PUBLIC        PCON
  X:0248H         PUBLIC        Com_start
  C:838DH         PUBLIC        MCTRL_set
  C:7E51H         PUBLIC        Send_Camera_Temp
  D:00C0H         PUBLIC        WDTC
  D:0098H         PUBLIC        SCON
  D:0088H         PUBLIC        TCON
  C:74B0H         PUBLIC        _SetLine
  X:0249H         PUBLIC        Com_temp
  X:024AH         PUBLIC        Shrink_f
  X:024BH         PUBLIC        Back_f
  X:024CH         PUBLIC        Com_end
  C:8029H         PUBLIC        _BCC_Cal
  C:80EFH         PUBLIC        I2CReadData
  C:7EBBH         PUBLIC        Repeat_PWM_Com
  X:024DH         PUBLIC        get_data_addr
  C:7EEDH         PUBLIC        SC16_DataCheck
  C:82E9H         PUBLIC        _ReadI2C
  X:024EH         PUBLIC        DVR_Com_p
  C:7925H         PUBLIC        Sent_Camera_Ang
  C:8307H         SYMBOL        _?ix1000
BL51 BANKED LINKER/LOCATER V6.22                                                      02/19/2019  11:34:33  PAGE 70


  C:830AH         SYMBOL        _?ix1001
  X:024FH         PUBLIC        Camera_Ang
  C:830EH         SYMBOL        _?ix1002
  C:8312H         SYMBOL        _?ix1003
  X:0253H         PUBLIC        peek_buf
  C:7FA5H         PUBLIC        Get_Camera_Ang
  C:8132H         PUBLIC        _ADC_read
  X:0254H         PUBLIC        Camera_flag
  C:7087H         PUBLIC        _I2CWriteData
  C:48D4H         PUBLIC        _SC16_SendDataSelect
  C:82AFH         PUBLIC        _WriteI2C
  D:008DH         PUBLIC        TH1
  X:0255H         PUBLIC        Camera_IRDA
  C:7A4FH         PUBLIC        _Set_Camera_speed
  C:8296H         PUBLIC        I2CStart
  C:83C1H         PUBLIC        I2Cdelay
  X:0271H         PUBLIC        DRP_ID
  X:027AH         PUBLIC        Com_pos
  X:027BH         PUBLIC        Monitor_current
  X:027CH         PUBLIC        Com_run
  C:000EH         PUBLIC        _ResetDevice
  D:00F8H         PUBLIC        IPA
  C:6A7CH         PUBLIC        _SetBaudrate
  X:027DH         PUBLIC        Crop_f
  C:7F79H         PUBLIC        Get_Camera_Ver
  X:027EH         PUBLIC        DVR_MD
  X:0282H         PUBLIC        Shrink_only_f
  C:6BEAH         PUBLIC        _SC16_ComCheck
  X:0283H         PUBLIC        DVR_MH
  X:0287H         PUBLIC        DVR_startup_flag
  X:0288H         PUBLIC        get_data_val
  X:0289H         PUBLIC        Cam_Com_p
  C:610DH         PUBLIC        Camera_move
  C:7D32H         PUBLIC        _SC16_SendData
  C:69BBH         PUBLIC        Check_other_Com
  C:8332H         PUBLIC        I2CStop
  D:00C8H         PUBLIC        T2CON
  X:028AH         PUBLIC        INT_flag
  C:4AC1H         PUBLIC        _SC16_BCC_Check
  D:00C5H         PUBLIC        ADCTL
  D:00BEH         PUBLIC        ADCVL
  X:028BH         PUBLIC        DVR_Com
  X:0290H         PUBLIC        Monitor_state
  X:0291H         PUBLIC        OUTPUT
  X:0292H         PUBLIC        Monitor_mode
  D:00D0H         PUBLIC        PSW
  C:7C3AH         PUBLIC        _ReadI2CWORD
  X:0293H         PUBLIC        SC16_ComAddr
  C:675BH         SYMBOL        Com0127
  C:675BH         SYMBOL        L?0296
  C:675CH         SYMBOL        L?0297
  C:675DH         SYMBOL        L?0298
  C:675EH         SYMBOL        L?0299
  C:6761H         SYMBOL        L?0300
  C:6762H         SYMBOL        L?0301
  C:6764H         SYMBOL        L?0302
  C:676CH         SYMBOL        L?0305
BL51 BANKED LINKER/LOCATER V6.22                                                      02/19/2019  11:34:33  PAGE 71


  C:676DH         SYMBOL        L?0306
  C:6770H         SYMBOL        L?0307
  C:6773H         SYMBOL        L?0308
  C:677DH         SYMBOL        L?0310
  C:677DH         SYMBOL        L?0311
  C:6782H         SYMBOL        L?0312
  C:678AH         SYMBOL        L?0314
  C:6794H         SYMBOL        L?0315
  C:67A2H         SYMBOL        L?0316
  C:67A2H         SYMBOL        L?0317
  C:67A5H         SYMBOL        L?0318
  C:67AFH         SYMBOL        L?0319
  C:67AFH         SYMBOL        L?0320
  C:67B2H         SYMBOL        L?0321
  C:67BAH         SYMBOL        L?0323
  C:67BAH         SYMBOL        L?0324
  C:67C3H         SYMBOL        L?0329
  C:67C3H         SYMBOL        L?0330
  C:67CFH         SYMBOL        L?0331
  C:67D3H         SYMBOL        L?0332
  C:67DAH         SYMBOL        L?0336
  C:67DAH         SYMBOL        L?0337
  C:67E1H         SYMBOL        L?0340
  C:67EDH         SYMBOL        L?0343
  C:67F7H         SYMBOL        L?0346
  C:6801H         SYMBOL        L?0347
  C:680BH         SYMBOL        L?0348
  C:680BH         SYMBOL        L?0349
  C:6812H         SYMBOL        L?0350
  C:6812H         SYMBOL        L?0351
  C:6819H         SYMBOL        L?0352
  C:6819H         SYMBOL        L?0353
  C:6820H         SYMBOL        L?0354
  -------         PROC          COM0127
  -------         ENDPROC       COM0127
  -------         PROC          I2CDELAY
  C:83C1H         LINE#         122
  C:83C1H         LINE#         123
  C:83C1H         LINE#         137
  -------         ENDPROC       I2CDELAY
  -------         PROC          I2CSTART
  C:8296H         LINE#         154
  C:8296H         LINE#         155
  C:8296H         LINE#         157
  C:829BH         LINE#         158
  C:82A0H         LINE#         159
  C:82A5H         LINE#         160
  C:82A7H         LINE#         176
  -------         ENDPROC       I2CSTART
  -------         PROC          I2CSTOP
  C:8332H         LINE#         187
  C:8332H         LINE#         188
  C:8332H         LINE#         190
  C:8337H         LINE#         191
  C:833CH         LINE#         192
  C:833EH         LINE#         207
  -------         ENDPROC       I2CSTOP
BL51 BANKED LINKER/LOCATER V6.22                                                      02/19/2019  11:34:33  PAGE 72


  -------         PROC          L?0334
  -------         ENDPROC       L?0334
  -------         PROC          _I2CWRITEDATA
  D:0007H         SYMBOL        value
  C:7087H         LINE#         217
  C:7087H         LINE#         218
  C:7087H         LINE#         220
  C:7091H         LINE#         221
  C:709CH         LINE#         222
  C:70A7H         LINE#         223
  C:70B2H         LINE#         225
  C:70BDH         LINE#         226
  C:70C8H         LINE#         227
  C:70D3H         LINE#         228
  C:70DEH         LINE#         231
  C:70E1H         LINE#         232
  C:70E3H         LINE#         233
  C:70E5H         LINE#         234
  C:70E7H         LINE#         236
  C:70E9H         LINE#         237
  C:70EBH         LINE#         238
  C:70EBH         LINE#         239
  C:70EBH         LINE#         240
  C:70EEH         LINE#         241
  -------         ENDPROC       _I2CWRITEDATA
  -------         PROC          I2CREADDATA
  -------         DO            
  D:0004H         SYMBOL        i
  D:0007H         SYMBOL        value
  -------         ENDDO         
  C:80EFH         LINE#         315
  C:80EFH         LINE#         316
  C:80EFH         LINE#         319
  C:80EFH         LINE#         321
  C:80EFH         LINE#         322
  C:80EFH         LINE#         324
  C:80F2H         LINE#         325
  C:80F2H         LINE#         326
  C:80F2H         LINE#         327
  C:80F5H         LINE#         328
  C:80FBH         LINE#         329
  C:80FBH         LINE#         330
  C:80FBH         LINE#         331
  C:80FBH         LINE#         332
  C:8108H         LINE#         334
  C:810BH         LINE#         338
  C:810EH         LINE#         340
  C:8111H         LINE#         341
  C:8111H         LINE#         401
  -------         ENDPROC       I2CREADDATA
  -------         PROC          I2CREADDATAWITHACK
  -------         DO            
  D:0004H         SYMBOL        i
  D:0007H         SYMBOL        value
  -------         ENDDO         
  C:8053H         LINE#         432
  C:8053H         LINE#         433
BL51 BANKED LINKER/LOCATER V6.22                                                      02/19/2019  11:34:33  PAGE 73


  C:8053H         LINE#         436
  C:8053H         LINE#         438
  C:8053H         LINE#         439
  C:8053H         LINE#         441
  C:8056H         LINE#         442
  C:8056H         LINE#         443
  C:8056H         LINE#         444
  C:8059H         LINE#         445
  C:805FH         LINE#         446
  C:805FH         LINE#         447
  C:805FH         LINE#         448
  C:805FH         LINE#         449
  C:806CH         LINE#         451
  C:806EH         LINE#         455
  C:8071H         LINE#         456
  C:8073H         LINE#         457
  C:8075H         LINE#         458
  C:8075H         LINE#         459
  C:8075H         LINE#         460
  C:8078H         LINE#         461
  C:807BH         LINE#         463
  C:807BH         LINE#         499
  -------         ENDPROC       I2CREADDATAWITHACK
  -------         PROC          L?0344
  -------         ENDPROC       L?0344
  -------         PROC          _WRITEI2C
  D:0007H         SYMBOL        addr
  D:0005H         SYMBOL        index
  D:0003H         SYMBOL        val
  C:82AFH         LINE#         535
  C:82AFH         LINE#         536
  C:82AFH         LINE#         539
  C:82AFH         LINE#         540
  C:82AFH         LINE#         541
  C:82B2H         LINE#         542
  C:82B7H         LINE#         543
  -------         ENDPROC       _WRITEI2C
  -------         PROC          _READI2C
  D:0006H         SYMBOL        addr
  D:0005H         SYMBOL        index
  -------         DO            
  D:0007H         SYMBOL        val
  -------         ENDDO         
  C:82E9H         LINE#         557
  C:82EBH         LINE#         558
  C:82EBH         LINE#         562
  C:82EBH         LINE#         563
  C:82EBH         LINE#         564
  C:82EEH         LINE#         565
  C:82EEH         LINE#         566
  C:82F1H         LINE#         567
  C:82F4H         LINE#         570
  C:82F7H         LINE#         615
  C:82F7H         LINE#         616
  -------         ENDPROC       _READI2C
  -------         PROC          _READI2CWORD
  D:0006H         SYMBOL        addr
BL51 BANKED LINKER/LOCATER V6.22                                                      02/19/2019  11:34:33  PAGE 74


  D:0005H         SYMBOL        index
  -------         DO            
  X:0006H         SYMBOL        val
  -------         ENDDO         
  C:7C3AH         LINE#         679
  C:7C3CH         LINE#         680
  C:7C3CH         LINE#         681
  C:7C43H         LINE#         683
  C:7C46H         LINE#         684
  C:7C49H         LINE#         686
  C:7C4EH         LINE#         689
  C:7C4EH         LINE#         690
  C:7C51H         LINE#         692
  C:7C5CH         LINE#         693
  C:7C65H         LINE#         694
  C:7C6EH         LINE#         695
  C:7C71H         LINE#         697
  C:7C79H         LINE#         698
  -------         ENDPROC       _READI2CWORD
  C:7158H         SYMBOL        L?0341
  -------         PROC          _BOUND_SET
  X:01D5H         SYMBOL        val
  -------         DO            
  X:01D6H         SYMBOL        Mask
  -------         ENDDO         
  C:70F1H         LINE#         717
  C:70F6H         LINE#         718
  C:70F6H         LINE#         722
  C:7109H         LINE#         745
  C:7119H         LINE#         746
  C:7119H         LINE#         747
  C:711EH         LINE#         748
  C:711EH         LINE#         749
  C:7120H         LINE#         750
  C:7125H         LINE#         751
  C:7125H         LINE#         752
  C:7127H         LINE#         753
  C:7133H         LINE#         754
  C:713EH         LINE#         755
  C:7140H         LINE#         756
  C:7140H         LINE#         759
  C:7147H         LINE#         760
  C:714CH         LINE#         761
  C:7157H         LINE#         762
  C:7157H         LINE#         763
  C:7157H         LINE#         782
  -------         ENDPROC       _BOUND_SET
  -------         PROC          _ADC_READ
  D:0007H         SYMBOL        sel
  C:8132H         LINE#         815
  C:8132H         LINE#         816
  C:8132H         LINE#         818
  C:8137H         LINE#         820
  C:813CH         LINE#         822
  C:8151H         LINE#         824
  -------         ENDPROC       _ADC_READ
  -------         PROC          _SET_VIDEO
BL51 BANKED LINKER/LOCATER V6.22                                                      02/19/2019  11:34:33  PAGE 75


  D:0007H         SYMBOL        addr
  X:000CH         SYMBOL        val
  C:7AE1H         LINE#         828
  C:7AE6H         LINE#         829
  C:7AE6H         LINE#         830
  C:7AFAH         LINE#         831
  C:7AFAH         LINE#         832
  C:7AFFH         LINE#         833
  C:7B01H         LINE#         834
  C:7B06H         LINE#         835
  C:7B08H         LINE#         836
  C:7B0DH         LINE#         837
  C:7B0FH         LINE#         838
  C:7B14H         LINE#         839
  C:7B16H         LINE#         840
  C:7B1BH         LINE#         841
  C:7B1DH         LINE#         842
  C:7B28H         LINE#         843
  C:7B28H         LINE#         844
  C:7B28H         LINE#         845
  C:7B28H         LINE#         847
  C:7B28H         LINE#         850
  -------         ENDPROC       _SET_VIDEO
  C:7F97H         SYMBOL        L?0325
  -------         PROC          GET_CAMERA_VER
  C:7F79H         LINE#         875
  C:7F79H         LINE#         876
  C:7F79H         LINE#         877
  C:7F7BH         LINE#         878
  C:7F83H         LINE#         879
  C:7F85H         LINE#         880
  C:7F8DH         LINE#         881
  C:7F97H         LINE#         882
  -------         ENDPROC       GET_CAMERA_VER
  -------         PROC          SEND_CAMERA_TEMP
  -------         DO            
  X:000CH         SYMBOL        loop
  -------         ENDDO         
  C:7E51H         LINE#         885
  C:7E51H         LINE#         886
  C:7E51H         LINE#         890
  C:7E51H         LINE#         891
  C:7E51H         LINE#         892
  C:7E56H         LINE#         893
  C:7E5EH         LINE#         894
  C:7E61H         LINE#         895
  C:7E61H         LINE#         896
  C:7E61H         LINE#         897
  C:7E61H         LINE#         898
  C:7E67H         LINE#         900
  C:7E78H         LINE#         901
  C:7E78H         LINE#         902
  C:7E7EH         LINE#         903
  C:7E86H         LINE#         906
  -------         ENDPROC       SEND_CAMERA_TEMP
  -------         PROC          SEND_CAMERA_PRESS
  -------         DO            
BL51 BANKED LINKER/LOCATER V6.22                                                      02/19/2019  11:34:33  PAGE 76


  X:000CH         SYMBOL        loop
  -------         ENDDO         
  C:7A05H         LINE#         910
  C:7A05H         LINE#         911
  C:7A05H         LINE#         914
  C:7A05H         LINE#         915
  C:7A05H         LINE#         916
  C:7A0AH         LINE#         923
  C:7A12H         LINE#         924
  C:7A1AH         LINE#         925
  C:7A22H         LINE#         926
  C:7A29H         LINE#         928
  C:7A29H         LINE#         929
  C:7A2FH         LINE#         931
  C:7A40H         LINE#         932
  C:7A40H         LINE#         933
  C:7A46H         LINE#         934
  C:7A4EH         LINE#         938
  -------         ENDPROC       SEND_CAMERA_PRESS
  C:7FC3H         SYMBOL        L?0326
  -------         PROC          GET_CAMERA_ANG
  C:7FA5H         LINE#         941
  C:7FA5H         LINE#         942
  C:7FA5H         LINE#         943
  C:7FA7H         LINE#         944
  C:7FAFH         LINE#         945
  C:7FB1H         LINE#         946
  C:7FB9H         LINE#         947
  C:7FC3H         LINE#         949
  -------         ENDPROC       GET_CAMERA_ANG
  -------         PROC          SENT_CAMERA_ANG
  -------         DO            
  X:000CH         SYMBOL        loop
  -------         ENDDO         
  C:7925H         LINE#         951
  C:7925H         LINE#         952
  C:7925H         LINE#         956
  C:7925H         LINE#         957
  C:7925H         LINE#         958
  C:792BH         LINE#         959
  C:7933H         LINE#         960
  C:793BH         LINE#         961
  C:7943H         LINE#         962
  C:794AH         LINE#         963
  C:794AH         LINE#         964
  C:7950H         LINE#         966
  C:7961H         LINE#         967
  C:7961H         LINE#         968
  C:7967H         LINE#         969
  C:796FH         LINE#         971
  -------         ENDPROC       SENT_CAMERA_ANG
  C:7FEFH         SYMBOL        L?0327
  -------         PROC          GET_CAMERA_RANG
  C:7FD1H         LINE#         973
  C:7FD1H         LINE#         974
  C:7FD1H         LINE#         975
  C:7FD3H         LINE#         976
BL51 BANKED LINKER/LOCATER V6.22                                                      02/19/2019  11:34:33  PAGE 77


  C:7FDBH         LINE#         977
  C:7FDDH         LINE#         978
  C:7FE5H         LINE#         979
  C:7FEFH         LINE#         980
  -------         ENDPROC       GET_CAMERA_RANG
  -------         PROC          SENT_CAMERA_RANG
  -------         DO            
  X:000CH         SYMBOL        loop
  -------         ENDDO         
  C:7970H         LINE#         982
  C:7970H         LINE#         983
  C:7970H         LINE#         987
  C:7970H         LINE#         988
  C:7970H         LINE#         989
  C:7976H         LINE#         990
  C:797EH         LINE#         991
  C:7986H         LINE#         992
  C:798EH         LINE#         993
  C:7995H         LINE#         994
  C:7995H         LINE#         995
  C:799BH         LINE#         997
  C:79ACH         LINE#         998
  C:79ACH         LINE#         999
  C:79B2H         LINE#         1000
  C:79BAH         LINE#         1002
  -------         ENDPROC       SENT_CAMERA_RANG
  -------         PROC          _SENT_CAMERA_IRD
  X:000CH         SYMBOL        sel
  -------         DO            
  X:000DH         SYMBOL        loop
  X:000EH         SYMBOL        temp
  -------         ENDDO         
  C:82F8H         LINE#         1025
  C:82FDH         LINE#         1026
  C:82FDH         LINE#         1029
  C:8302H         LINE#         1031
  -------         ENDPROC       _SENT_CAMERA_IRD
  C:801BH         SYMBOL        L?0328
  -------         PROC          GET_DVR_TEMP
  C:7FFDH         LINE#         1055
  C:7FFDH         LINE#         1056
  C:7FFDH         LINE#         1057
  C:7FFFH         LINE#         1058
  C:8007H         LINE#         1059
  C:8009H         LINE#         1060
  C:8011H         LINE#         1061
  C:801BH         LINE#         1062
  -------         ENDPROC       GET_DVR_TEMP
  -------         PROC          SENT_DVR_TEMP
  -------         DO            
  X:000CH         SYMBOL        loop
  -------         ENDDO         
  C:7C7AH         LINE#         1065
  C:7C7AH         LINE#         1066
  C:7C7AH         LINE#         1069
  C:7C80H         LINE#         1070
  C:7C84H         LINE#         1071
BL51 BANKED LINKER/LOCATER V6.22                                                      02/19/2019  11:34:33  PAGE 78


  C:7C88H         LINE#         1072
  C:7C90H         LINE#         1073
  C:7C93H         LINE#         1074
  C:7C93H         LINE#         1075
  C:7C93H         LINE#         1076
  C:7C93H         LINE#         1077
  C:7C99H         LINE#         1079
  C:7CAAH         LINE#         1080
  C:7CAAH         LINE#         1081
  C:7CB0H         LINE#         1082
  C:7CB8H         LINE#         1085
  -------         ENDPROC       SENT_DVR_TEMP
  C:7A6FH         SYMBOL        L?0313
  C:7A87H         SYMBOL        L?0335
  -------         PROC          _SET_CAMERA_SPEED
  D:0007H         SYMBOL        val
  C:7A4FH         LINE#         1170
  C:7A4FH         LINE#         1171
  C:7A4FH         LINE#         1172
  C:7A55H         LINE#         1173
  C:7A55H         LINE#         1174
  C:7A55H         LINE#         1175
  C:7A58H         LINE#         1176
  C:7A5AH         LINE#         1177
  C:7A5AH         LINE#         1178
  C:7A5FH         LINE#         1179
  C:7A61H         LINE#         1181
  C:7A61H         LINE#         1182
  C:7A61H         LINE#         1183
  C:7A64H         LINE#         1184
  C:7A66H         LINE#         1185
  C:7A66H         LINE#         1186
  C:7A6EH         LINE#         1187
  C:7A6EH         LINE#         1193
  -------         ENDPROC       _SET_CAMERA_SPEED
  -------         PROC          GPIO_CHECK
  -------         DO            
  D:0007H         SYMBOL        GPIO_state
  X:0006H         SYMBOL        IO_flag
  X:0007H         SYMBOL        count
  -------         ENDDO         
  C:7514H         LINE#         1197
  C:7514H         LINE#         1198
  C:7514H         LINE#         1199
  C:751DH         LINE#         1201
  C:7526H         LINE#         1203
  C:752EH         LINE#         1206
  C:752EH         LINE#         1207
  C:7533H         LINE#         1208
  C:753AH         LINE#         1209
  C:753AH         LINE#         1210
  C:753DH         LINE#         1211
  C:7541H         LINE#         1212
  C:7543H         LINE#         1213
  C:7543H         LINE#         1214
  C:7554H         LINE#         1215
  C:7554H         LINE#         1217
BL51 BANKED LINKER/LOCATER V6.22                                                      02/19/2019  11:34:33  PAGE 79


  C:7554H         LINE#         1218
  C:7554H         LINE#         1219
  C:7554H         LINE#         1220
  C:7556H         LINE#         1221
  C:7559H         LINE#         1222
  C:7559H         LINE#         1223
  C:755BH         LINE#         1224
  C:755BH         LINE#         1225
  C:755EH         LINE#         1226
  C:7561H         LINE#         1227
  C:7563H         LINE#         1228
  C:7563H         LINE#         1229
  C:7566H         LINE#         1230
  C:7569H         LINE#         1231
  C:756BH         LINE#         1232
  C:756EH         LINE#         1233
  C:7571H         LINE#         1234
  C:7571H         LINE#         1235
  C:7571H         LINE#         1238
  C:7576H         LINE#         1244
  -------         ENDPROC       GPIO_CHECK
  -------         PROC          _POWER_ONOFF
  D:0007H         SYMBOL        sel
  C:82CAH         LINE#         1247
  C:82CAH         LINE#         1248
  C:82CAH         LINE#         1250
  C:82CFH         LINE#         1251
  C:82D1H         LINE#         1252
  C:82D3H         LINE#         1253
  -------         ENDPROC       _POWER_ONOFF
  -------         PROC          SC16_INIT
  -------         DO            
  X:0006H         SYMBOL        Dev_ID
  -------         ENDDO         
  C:6FF8H         LINE#         1261
  C:6FF8H         LINE#         1262
  C:6FF8H         LINE#         1266
  C:6FFAH         LINE#         1267
  C:7001H         LINE#         1268
  C:7003H         LINE#         1269
  C:700AH         LINE#         1272
  C:7019H         LINE#         1273
  C:7019H         LINE#         1274
  C:7022H         LINE#         1275
  C:7039H         LINE#         1276
  C:704CH         LINE#         1277
  C:7059H         LINE#         1278
  C:7061H         LINE#         1285
  C:706BH         LINE#         1286
  C:7075H         LINE#         1287
  C:7077H         LINE#         1288
  -------         ENDPROC       SC16_INIT
  C:7D63H         SYMBOL        L?0345
  -------         PROC          _SC16_SENDDATA
  X:000CH         SYMBOL        val
  -------         DO            
  X:000DH         SYMBOL        error
BL51 BANKED LINKER/LOCATER V6.22                                                      02/19/2019  11:34:33  PAGE 80


  -------         ENDDO         
  C:7D32H         LINE#         1292
  C:7D37H         LINE#         1293
  C:7D37H         LINE#         1294
  C:7D3AH         LINE#         1308
  C:7D52H         LINE#         1309
  C:7D52H         LINE#         1310
  C:7D52H         LINE#         1311
  C:7D54H         LINE#         1313
  C:7D54H         LINE#         1314
  C:7D5AH         LINE#         1315
  C:7D60H         LINE#         1316
  C:7D60H         LINE#         1329
  C:7D62H         LINE#         1331
  -------         ENDPROC       _SC16_SENDDATA
  C:4AB5H         SYMBOL        L?0333
  -------         PROC          _SC16_SENDDATASELECT
  X:0009H         SYMBOL        addr
  -------         DO            
  X:000AH         SYMBOL        loop
  X:000BH         SYMBOL        Error
  X:000CH         SYMBOL        count
  X:000DH         SYMBOL        data_temp
  X:000EH         SYMBOL        buff_flag
  X:000FH         SYMBOL        loop_temp
  X:0010H         SYMBOL        error_flag
  X:0011H         SYMBOL        etx_flag
  -------         ENDDO         
  C:48D4H         LINE#         1334
  C:48D9H         LINE#         1335
  C:48D9H         LINE#         1337
  C:48E2H         LINE#         1339
  C:48E8H         LINE#         1340
  C:48EBH         LINE#         1341
  C:48EDH         LINE#         1377
  C:48FCH         LINE#         1378
  C:48FCH         LINE#         1379
  C:4909H         LINE#         1382
  C:490DH         LINE#         1394
  C:4918H         LINE#         1396
  C:4920H         LINE#         1397
  C:4920H         LINE#         1398
  C:4932H         LINE#         1400
  C:493AH         LINE#         1413
  C:493DH         LINE#         1414
  C:4948H         LINE#         1416
  C:495CH         LINE#         1417
  C:495CH         LINE#         1419
  C:4962H         LINE#         1421
  C:4968H         LINE#         1422
  C:4979H         LINE#         1423
  C:4979H         LINE#         1426
  C:498BH         LINE#         1430
  C:49ABH         LINE#         1431
  C:49ABH         LINE#         1432
  C:49AEH         LINE#         1437
  C:49B0H         LINE#         1438
BL51 BANKED LINKER/LOCATER V6.22                                                      02/19/2019  11:34:33  PAGE 81


  C:49B4H         LINE#         1439
  C:49B4H         LINE#         1440
  C:49B9H         LINE#         1441
  C:49CAH         LINE#         1442
  C:49CFH         LINE#         1444
  C:49CFH         LINE#         1457
  C:49D2H         LINE#         1459
  C:49D5H         LINE#         1462
  C:49E1H         LINE#         1463
  C:49E1H         LINE#         1466
  C:49E7H         LINE#         1474
  C:49E7H         LINE#         1476
  C:49F0H         LINE#         1478
  C:49F9H         LINE#         1479
  C:49F9H         LINE#         1482
  C:4A04H         LINE#         1483
  C:4A04H         LINE#         1486
  C:4A07H         LINE#         1491
  C:4A0CH         LINE#         1493
  C:4A0FH         LINE#         1494
  C:4A0FH         LINE#         1495
  C:4A1CH         LINE#         1496
  C:4A1CH         LINE#         1500
  C:4A27H         LINE#         1501
  C:4A27H         LINE#         1504
  C:4A2AH         LINE#         1509
  C:4A2FH         LINE#         1510
  C:4A32H         LINE#         1511
  C:4A32H         LINE#         1515
  C:4A44H         LINE#         1516
  C:4A44H         LINE#         1517
  C:4A47H         LINE#         1518
  C:4A47H         LINE#         1520
  C:4A4DH         LINE#         1521
  C:4A4DH         LINE#         1523
  C:4A55H         LINE#         1525
  C:4A62H         LINE#         1526
  C:4A77H         LINE#         1528
  C:4A83H         LINE#         1529
  C:4A83H         LINE#         1532
  C:4A96H         LINE#         1533
  C:4A96H         LINE#         1536
  C:4AA1H         LINE#         1544
  C:4AA7H         LINE#         1545
  C:4AACH         LINE#         1546
  C:4AACH         LINE#         1550
  C:4AAFH         LINE#         1551
  C:4AAFH         LINE#         1553
  C:4AB2H         LINE#         1554
  C:4AB2H         LINE#         1556
  C:4AB2H         LINE#         1582
  C:4AB2H         LINE#         1607
  C:4AB2H         LINE#         1643
  C:4AB4H         LINE#         1645
  -------         ENDPROC       _SC16_SENDDATASELECT
  C:7EE5H         SYMBOL        L?0338
  -------         PROC          REPEAT_PWM_COM
BL51 BANKED LINKER/LOCATER V6.22                                                      02/19/2019  11:34:33  PAGE 82


  C:7EBBH         LINE#         1655
  C:7EBBH         LINE#         1656
  C:7EBBH         LINE#         1657
  C:7EC1H         LINE#         1658
  C:7EC7H         LINE#         1659
  C:7ED1H         LINE#         1660
  C:7EDBH         LINE#         1661
  C:7EE5H         LINE#         1664
  -------         ENDPROC       REPEAT_PWM_COM
  -------         PROC          SC16_DATACHECK
  -------         DO            
  X:0006H         SYMBOL        Dev_ID
  X:0007H         SYMBOL        Error
  X:0008H         SYMBOL        count
  -------         ENDDO         
  C:7EEDH         LINE#         1668
  C:7EEDH         LINE#         1669
  C:7EEDH         LINE#         1671
  C:7EF6H         LINE#         1729
  C:7EFCH         LINE#         1730
  C:7EFCH         LINE#         1731
  C:7F00H         LINE#         1733
  C:7F06H         LINE#         1734
  C:7F08H         LINE#         1735
  C:7F0FH         LINE#         1736
  C:7F0FH         LINE#         1737
  C:7F14H         LINE#         1739
  C:7F19H         LINE#         1740
  C:7F19H         LINE#         1748
  C:7F1EH         LINE#         1749
  -------         ENDPROC       SC16_DATACHECK
  -------         PROC          _SC16_DATA_RESET
  D:0006H         SYMBOL        sel
  C:7D6EH         LINE#         1752
  C:7D6EH         LINE#         1753
  C:7D6EH         LINE#         1767
  C:7D7AH         LINE#         1769
  C:7D96H         LINE#         1770
  C:7D96H         LINE#         1771
  C:7D99H         LINE#         1772
  C:7D9CH         LINE#         1773
  C:7D9FH         LINE#         1774
  C:7DA2H         LINE#         1784
  C:7DA5H         LINE#         1785
  C:7DA8H         LINE#         1791
  C:7DA8H         LINE#         1792
  C:7DA8H         LINE#         1795
  -------         ENDPROC       _SC16_DATA_RESET
  C:619DH         SYMBOL        L?0303
  C:61B7H         SYMBOL        L?0304
  C:61CAH         SYMBOL        L?0309
  C:61E2H         SYMBOL        L?0322
  C:61F7H         SYMBOL        L?0339
  C:61FEH         SYMBOL        L?0355
  -------         PROC          CAMERA_MOVE
  -------         DO            
  X:0006H         SYMBOL        mask
BL51 BANKED LINKER/LOCATER V6.22                                                      02/19/2019  11:34:33  PAGE 83


  X:000AH         SYMBOL        cam
  X:000EH         SYMBOL        BCC
  -------         ENDDO         
  C:610DH         LINE#         1799
  C:610DH         LINE#         1800
  C:610DH         LINE#         1802
  C:6118H         LINE#         1803
  C:6123H         LINE#         1804
  C:6132H         LINE#         1808
  C:613AH         LINE#         1809
  C:613AH         LINE#         1810
  C:6141H         LINE#         1811
  C:6141H         LINE#         1812
  C:6141H         LINE#         1813
  C:6141H         LINE#         1814
  C:6146H         LINE#         1815
  C:6146H         LINE#         1816
  C:614BH         LINE#         1817
  C:6151H         LINE#         1818
  C:6151H         LINE#         1820
  C:6158H         LINE#         1821
  C:6158H         LINE#         1822
  C:6158H         LINE#         1823
  C:6158H         LINE#         1824
  C:615DH         LINE#         1825
  C:615DH         LINE#         1826
  C:6162H         LINE#         1827
  C:6168H         LINE#         1828
  C:6168H         LINE#         1829
  C:616DH         LINE#         1830
  C:616EH         LINE#         1832
  C:616EH         LINE#         1833
  C:6175H         LINE#         1834
  C:6175H         LINE#         1835
  C:6175H         LINE#         1836
  C:6178H         LINE#         1837
  C:617AH         LINE#         1838
  C:617AH         LINE#         1839
  C:617FH         LINE#         1840
  C:6182H         LINE#         1841
  C:6182H         LINE#         1843
  C:6189H         LINE#         1844
  C:6189H         LINE#         1845
  C:6189H         LINE#         1846
  C:618CH         LINE#         1847
  C:618EH         LINE#         1848
  C:618EH         LINE#         1849
  C:6193H         LINE#         1850
  C:6196H         LINE#         1851
  C:6196H         LINE#         1853
  C:619CH         LINE#         1854
  C:619CH         LINE#         1869
  -------         ENDPROC       CAMERA_MOVE
  -------         PROC          _SC16_COMCHECK
  D:0001H         SYMBOL        addr
  -------         DO            
  X:0012H         SYMBOL        pos
BL51 BANKED LINKER/LOCATER V6.22                                                      02/19/2019  11:34:33  PAGE 84


  X:0013H         SYMBOL        temp
  -------         ENDDO         
  C:6BEAH         LINE#         1926
  C:6BEAH         LINE#         1927
  C:6BEAH         LINE#         1930
  C:6BF1H         LINE#         1931
  C:6BF2H         LINE#         1932
  C:6C00H         LINE#         1933
  C:6C00H         LINE#         1934
  C:6C00H         LINE#         1935
  C:6C00H         LINE#         1936
  C:6C08H         LINE#         1937
  C:6C08H         LINE#         1938
  C:6C09H         LINE#         1939
  C:6C0FH         LINE#         1940
  C:6C0FH         LINE#         1941
  C:6C15H         LINE#         1942
  C:6C15H         LINE#         1943
  C:6C1BH         LINE#         1944
  C:6C1BH         LINE#         1945
  C:6C22H         LINE#         1946
  C:6C28H         LINE#         1947
  C:6C2BH         LINE#         1948
  C:6C2BH         LINE#         1949
  C:6C30H         LINE#         1950
  C:6C30H         LINE#         1951
  C:6C31H         LINE#         1952
  C:6C37H         LINE#         1953
  C:6C37H         LINE#         1954
  C:6C3DH         LINE#         1955
  C:6C3DH         LINE#         1956
  C:6C43H         LINE#         1957
  C:6C43H         LINE#         1958
  C:6C4AH         LINE#         1959
  C:6C50H         LINE#         1960
  C:6C52H         LINE#         1961
  C:6C52H         LINE#         1980
  C:6C59H         LINE#         1981
  C:6C59H         LINE#         1982
  C:6C5AH         LINE#         1983
  C:6C60H         LINE#         1984
  C:6C60H         LINE#         1985
  C:6C66H         LINE#         1986
  C:6C66H         LINE#         1987
  C:6C6DH         LINE#         1988
  C:6C73H         LINE#         1989
  C:6C75H         LINE#         1990
  C:6C75H         LINE#         1993
  C:6C75H         LINE#         1994
  C:6C75H         LINE#         1995
  C:6C75H         LINE#         1996
  C:6C7CH         LINE#         1997
  C:6C7CH         LINE#         1998
  C:6C7DH         LINE#         1999
  C:6C83H         LINE#         2000
  C:6C83H         LINE#         2001
  C:6C8AH         LINE#         2002
BL51 BANKED LINKER/LOCATER V6.22                                                      02/19/2019  11:34:33  PAGE 85


  C:6C91H         LINE#         2003
  C:6C94H         LINE#         2004
  C:6C94H         LINE#         2005
  C:6C94H         LINE#         2025
  C:6C94H         LINE#         2026
  C:6C97H         LINE#         2027
  C:6C97H         LINE#         2028
  C:6C97H         LINE#         2030
  C:6C99H         LINE#         2056
  -------         ENDPROC       _SC16_COMCHECK
  -------         PROC          _BCC_CAL
  D:0001H         SYMBOL        addr
  X:000DH         SYMBOL        count
  -------         DO            
  D:0007H         SYMBOL        f_val
  X:000EH         SYMBOL        s_val
  D:0006H         SYMBOL        loop
  -------         ENDDO         
  C:8029H         LINE#         2060
  C:802EH         LINE#         2061
  C:802EH         LINE#         2062
  C:8030H         LINE#         2063
  C:8032H         LINE#         2064
  C:8033H         LINE#         2065
  C:8039H         LINE#         2067
  C:8043H         LINE#         2068
  C:8043H         LINE#         2071
  C:8048H         LINE#         2072
  C:804FH         LINE#         2073
  C:8052H         LINE#         2074
  C:8052H         LINE#         2106
  -------         ENDPROC       _BCC_CAL
  C:4C9DH         SYMBOL        L?0342
  -------         PROC          _SC16_BCC_CHECK
  D:0001H         SYMBOL        addr
  -------         DO            
  X:0006H         SYMBOL        loop
  X:0007H         SYMBOL        f_val
  X:0008H         SYMBOL        s_val
  X:0009H         SYMBOL        com
  -------         ENDDO         
  C:4AC1H         LINE#         2133
  C:4AC1H         LINE#         2134
  C:4AC1H         LINE#         2136
  C:4AC6H         LINE#         2137
  C:4AC8H         LINE#         2150
  C:4ACBH         LINE#         2151
  C:4ACBH         LINE#         2152
  C:4AD1H         LINE#         2153
  C:4AD1H         LINE#         2154
  C:4AD1H         LINE#         2155
  C:4AD7H         LINE#         2156
  C:4AD7H         LINE#         2157
  C:4AD7H         LINE#         2158
  C:4ADEH         LINE#         2159
  C:4AE3H         LINE#         2162
  C:4AEBH         LINE#         2163
BL51 BANKED LINKER/LOCATER V6.22                                                      02/19/2019  11:34:33  PAGE 86


  C:4AEBH         LINE#         2164
  C:4AEDH         LINE#         2165
  C:4AF8H         LINE#         2166
  C:4AF8H         LINE#         2167
  C:4AFCH         LINE#         2168
  C:4B03H         LINE#         2169
  C:4B03H         LINE#         2170
  C:4B04H         LINE#         2171
  C:4B0EH         LINE#         2172
  C:4B0EH         LINE#         2173
  C:4B11H         LINE#         2174
  C:4B11H         LINE#         2175
  C:4B14H         LINE#         2176
  C:4B14H         LINE#         2177
  C:4B1CH         LINE#         2179
  C:4B1CH         LINE#         2181
  C:4B1CH         LINE#         2186
  C:4B2AH         LINE#         2187
  C:4B2AH         LINE#         2188
  C:4B4AH         LINE#         2189
  C:4B4AH         LINE#         2190
  C:4B4FH         LINE#         2191
  C:4B57H         LINE#         2192
  C:4B5FH         LINE#         2193
  C:4B64H         LINE#         2194
  C:4B6CH         LINE#         2198
  C:4B77H         LINE#         2199
  C:4B77H         LINE#         2200
  C:4B7EH         LINE#         2201
  C:4B84H         LINE#         2202
  C:4B8AH         LINE#         2203
  C:4B91H         LINE#         2204
  C:4B9BH         LINE#         2205
  C:4B9BH         LINE#         2208
  C:4B9EH         LINE#         2209
  C:4BB3H         LINE#         2210
  C:4BB3H         LINE#         2211
  C:4BB8H         LINE#         2212
  C:4BBBH         LINE#         2214
  C:4BC7H         LINE#         2215
  C:4BC7H         LINE#         2216
  C:4BCAH         LINE#         2220
  C:4BCDH         LINE#         2221
  C:4BD9H         LINE#         2222
  C:4BD9H         LINE#         2223
  C:4BDCH         LINE#         2227
  C:4BDFH         LINE#         2228
  C:4BEBH         LINE#         2229
  C:4BEBH         LINE#         2230
  C:4BEEH         LINE#         2234
  C:4BF1H         LINE#         2235
  C:4BFDH         LINE#         2236
  C:4BFDH         LINE#         2237
  C:4C00H         LINE#         2241
  C:4C03H         LINE#         2243
  C:4C18H         LINE#         2244
  C:4C18H         LINE#         2245
BL51 BANKED LINKER/LOCATER V6.22                                                      02/19/2019  11:34:33  PAGE 87


  C:4C1DH         LINE#         2250
  C:4C1FH         LINE#         2252
  C:4C2BH         LINE#         2253
  C:4C2BH         LINE#         2254
  C:4C2EH         LINE#         2258
  C:4C30H         LINE#         2259
  C:4C3CH         LINE#         2260
  C:4C3CH         LINE#         2261
  C:4C3FH         LINE#         2265
  C:4C41H         LINE#         2266
  C:4C4DH         LINE#         2267
  C:4C4DH         LINE#         2268
  C:4C50H         LINE#         2272
  C:4C52H         LINE#         2286
  C:4C52H         LINE#         2292
  C:4C58H         LINE#         2293
  C:4C58H         LINE#         2295
  C:4C6BH         LINE#         2296
  C:4C7CH         LINE#         2298
  C:4C82H         LINE#         2299
  C:4C88H         LINE#         2310
  C:4C8AH         LINE#         2312
  C:4C8AH         LINE#         2313
  C:4C8FH         LINE#         2318
  C:4C8FH         LINE#         2321
  C:4C92H         LINE#         2322
  C:4C92H         LINE#         2327
  C:4C95H         LINE#         2329
  C:4C95H         LINE#         2331
  C:4C95H         LINE#         2332
  C:4C9AH         LINE#         2336
  C:4C9CH         LINE#         2337
  C:4C9CH         LINE#         2341
  -------         ENDPROC       _SC16_BCC_CHECK
  -------         PROC          CHECK_OTHER_COM
  C:69BBH         LINE#         2345
  C:69BBH         LINE#         2346
  C:69BBH         LINE#         2348
  C:69C3H         LINE#         2349
  C:69C3H         LINE#         2350
  C:69C6H         LINE#         2351
  C:69C6H         LINE#         2355
  C:69DEH         LINE#         2357
  C:69E2H         LINE#         2358
  C:69E2H         LINE#         2359
  C:69EAH         LINE#         2360
  C:69EAH         LINE#         2361
  C:69ECH         LINE#         2362
  C:69F3H         LINE#         2363
  C:69F3H         LINE#         2364
  C:69FCH         LINE#         2365
  C:6A01H         LINE#         2366
  C:6A03H         LINE#         2368
  C:6A08H         LINE#         2371
  C:6A08H         LINE#         2372
  C:6A0AH         LINE#         2373
  C:6A0AH         LINE#         2375
BL51 BANKED LINKER/LOCATER V6.22                                                      02/19/2019  11:34:33  PAGE 88


  C:6A20H         LINE#         2377
  C:6A24H         LINE#         2378
  C:6A24H         LINE#         2379
  C:6A2CH         LINE#         2380
  C:6A2CH         LINE#         2381
  C:6A2EH         LINE#         2382
  C:6A35H         LINE#         2383
  C:6A35H         LINE#         2384
  C:6A3EH         LINE#         2385
  C:6A43H         LINE#         2386
  C:6A43H         LINE#         2389
  C:6A43H         LINE#         2390
  C:6A45H         LINE#         2391
  C:6A45H         LINE#         2393
  C:6A5BH         LINE#         2394
  C:6A5BH         LINE#         2395
  C:6A60H         LINE#         2396
  C:6A6DH         LINE#         2397
  C:6A70H         LINE#         2398
  C:6A70H         LINE#         2402
  C:6A73H         LINE#         2404
  C:6A73H         LINE#         2405
  C:6A73H         LINE#         2406
  C:6A73H         LINE#         2407
  C:6A73H         LINE#         2410
  C:6A73H         LINE#         2412
  C:6A73H         LINE#         2417
  C:6A73H         LINE#         2420
  C:6A73H         LINE#         2422
  C:6A73H         LINE#         2424
  C:6A73H         LINE#         2426
  C:6A73H         LINE#         2432
  C:6A73H         LINE#         2435
  C:6A73H         LINE#         2437
  C:6A73H         LINE#         2441
  C:6A73H         LINE#         2443
  C:6A79H         LINE#         2447
  -------         ENDPROC       CHECK_OTHER_COM
  -------         PROC          _RESETDEVICE
  D:0003H         SYMBOL        addr
  -------         DO            
  D:0006H         SYMBOL        temp
  -------         ENDDO         
  C:000EH         LINE#         2541
  C:0010H         LINE#         2542
  C:0010H         LINE#         2544
  C:0017H         LINE#         2545
  C:001BH         LINE#         2546
  -------         ENDPROC       _RESETDEVICE
  -------         PROC          _SETBAUDRATE
  X:0007H         SYMBOL        addr
  X:0008H         SYMBOL        baudrate
  -------         DO            
  X:000CH         SYMBOL        divisor
  X:0010H         SYMBOL        prescaler
  D:0002H         SYMBOL        temp_lcr
  -------         ENDDO         
BL51 BANKED LINKER/LOCATER V6.22                                                      02/19/2019  11:34:33  PAGE 89


  C:6A7CH         LINE#         2556
  C:6A81H         LINE#         2557
  C:6A81H         LINE#         2573
  C:6A8DH         LINE#         2574
  C:6A90H         LINE#         2575
  C:6A92H         LINE#         2576
  C:6A95H         LINE#         2577
  C:6A95H         LINE#         2581
  C:6ADFH         LINE#         2593
  C:6AEBH         LINE#         2595
  C:6AF2H         LINE#         2597
  C:6AF5H         LINE#         2599
  C:6AF8H         LINE#         2601
  C:6B0AH         LINE#         2603
  C:6B29H         LINE#         2610
  C:6B2CH         LINE#         2611
  C:6B2FH         LINE#         2613
  C:6B33H         LINE#         2630
  -------         ENDPROC       _SETBAUDRATE
  -------         PROC          _SETLINE
  D:0002H         SYMBOL        addr
  X:0008H         SYMBOL        data_length
  D:0001H         SYMBOL        parity_select
  X:000AH         SYMBOL        stop_length
  -------         DO            
  D:0006H         SYMBOL        temp_lcr
  -------         ENDDO         
  C:74B0H         LINE#         2632
  C:74B9H         LINE#         2633
  C:74B9H         LINE#         2635
  C:74C0H         LINE#         2636
  C:74C4H         LINE#         2641
  C:74D4H         LINE#         2642
  C:74D4H         LINE#         2643
  C:74D4H         LINE#         2644
  C:74D4H         LINE#         2645
  C:74D8H         LINE#         2646
  C:74DAH         LINE#         2647
  C:74DAH         LINE#         2648
  C:74DEH         LINE#         2649
  C:74E0H         LINE#         2650
  C:74E0H         LINE#         2653
  C:74E0H         LINE#         2654
  C:74E4H         LINE#         2655
  C:74E4H         LINE#         2656
  C:74E4H         LINE#         2658
  C:74EBH         LINE#         2659
  C:74EFH         LINE#         2660
  C:74EFH         LINE#         2662
  C:74FBH         LINE#         2663
  C:74FBH         LINE#         2664
  C:74FBH         LINE#         2665
  C:74FBH         LINE#         2666
  C:74FFH         LINE#         2667
  C:7501H         LINE#         2668
  C:7501H         LINE#         2669
  C:7505H         LINE#         2670
BL51 BANKED LINKER/LOCATER V6.22                                                      02/19/2019  11:34:33  PAGE 90


  C:7507H         LINE#         2671
  C:7507H         LINE#         2672
  C:750BH         LINE#         2673
  C:750BH         LINE#         2674
  C:750BH         LINE#         2675
  C:750BH         LINE#         2676
  C:750BH         LINE#         2677
  C:750BH         LINE#         2678
  C:750BH         LINE#         2680
  -------         ENDPROC       _SETLINE
  -------         PROC          _GPIOSETPORTMODE
  D:0007H         SYMBOL        addr
  D:0005H         SYMBOL        port_io
  C:8372H         LINE#         2728
  C:8372H         LINE#         2729
  C:8372H         LINE#         2731
  -------         ENDPROC       _GPIOSETPORTMODE
  -------         PROC          _GPIOSETPORTSTATE
  D:0007H         SYMBOL        addr
  D:0005H         SYMBOL        port_state
  C:837BH         LINE#         2736
  C:837BH         LINE#         2737
  C:837BH         LINE#         2738
  -------         ENDPROC       _GPIOSETPORTSTATE
  -------         PROC          _GPIOGETPORTSTATE
  D:0007H         SYMBOL        addr
  C:83B2H         LINE#         2741
  C:83B2H         LINE#         2742
  C:83B2H         LINE#         2747
  C:83B7H         LINE#         2749
  -------         ENDPROC       _GPIOGETPORTSTATE
  -------         PROC          _WRITEBYTE
  D:0007H         SYMBOL        addr
  D:0005H         SYMBOL        val
  C:8384H         LINE#         2841
  C:8384H         LINE#         2842
  C:8384H         LINE#         2864
  -------         ENDPROC       _WRITEBYTE
  -------         PROC          _READBYTE
  D:0007H         SYMBOL        addr
  -------         DO            
  D:0007H         SYMBOL        val
  -------         ENDDO         
  C:83B8H         LINE#         2870
  C:83B8H         LINE#         2871
  C:83B8H         LINE#         2875
  C:83BDH         LINE#         2876
  C:83BDH         LINE#         2902
  -------         ENDPROC       _READBYTE
  -------         PROC          MCTRL_SET
  C:838DH         LINE#         3012
  C:838DH         LINE#         3013
  C:838DH         LINE#         3016
  C:838FH         LINE#         3017
  C:8391H         LINE#         3018
  C:8393H         LINE#         3019
  C:8395H         LINE#         3020
BL51 BANKED LINKER/LOCATER V6.22                                                      02/19/2019  11:34:33  PAGE 91


  -------         ENDPROC       MCTRL_SET
  -------         ENDMOD        NED

  -------         MODULE        ?C?FPADD
  C:259FH         PUBLIC        ?C?FPADD
  C:259BH         PUBLIC        ?C?FPSUB
  -------         ENDMOD        ?C?FPADD

  -------         MODULE        ?C?FPMUL
  C:2690H         PUBLIC        ?C?FPMUL
  -------         ENDMOD        ?C?FPMUL

  -------         MODULE        ?C?FPDIV
  C:2799H         PUBLIC        ?C?FPDIV
  -------         ENDMOD        ?C?FPDIV

  -------         MODULE        ?C?FCAST
  C:2840H         PUBLIC        ?C?FCASTC
  C:283BH         PUBLIC        ?C?FCASTI
  C:2836H         PUBLIC        ?C?FCASTL
  -------         ENDMOD        ?C?FCAST

  -------         MODULE        ?C?CASTF
  C:2874H         PUBLIC        ?C?CASTF
  -------         ENDMOD        ?C?CASTF

  -------         MODULE        SCANF
  X:01DDH         PUBLIC        ?_SCANF?BYTE
  X:01DDH         PUBLIC        ?_SSCANF?BYTE
  C:430FH         PUBLIC        _SCANF
  C:430BH         PUBLIC        _SSCANF
  -------         ENDMOD        SCANF

  -------         MODULE        ?C?FPNEG
  C:28F5H         PUBLIC        ?C?FPNEG
  -------         ENDMOD        ?C?FPNEG

  -------         MODULE        ?C?FTNPWR
  C:2936H         PUBLIC        ?C?FTNPWR
  -------         ENDMOD        ?C?FTNPWR

  -------         MODULE        ?C?COPY
  C:2A46H         PUBLIC        ?C?COPY
  -------         ENDMOD        ?C?COPY

  -------         MODULE        ?C?CLDPTR
  C:2A6CH         PUBLIC        ?C?CLDPTR
  -------         ENDMOD        ?C?CLDPTR

  -------         MODULE        ?C?CLDOPTR
  C:2A85H         PUBLIC        ?C?CLDOPTR
  -------         ENDMOD        ?C?CLDOPTR

  -------         MODULE        ?C?CSTPTR
  C:2AB2H         PUBLIC        ?C?CSTPTR
  -------         ENDMOD        ?C?CSTPTR

BL51 BANKED LINKER/LOCATER V6.22                                                      02/19/2019  11:34:33  PAGE 92


  -------         MODULE        ?C?IMUL
  C:2AC4H         PUBLIC        ?C?IMUL
  -------         ENDMOD        ?C?IMUL

  -------         MODULE        ?C?UIDIV
  C:2AD6H         PUBLIC        ?C?UIDIV
  -------         ENDMOD        ?C?UIDIV

  -------         MODULE        ?C?IILDX
  C:2B2BH         PUBLIC        ?C?IILDX
  -------         ENDMOD        ?C?IILDX

  -------         MODULE        ?C?ILDIX
  C:2B41H         PUBLIC        ?C?ILDIX
  -------         ENDMOD        ?C?ILDIX

  -------         MODULE        ?C?ILDPTR
  C:2B57H         PUBLIC        ?C?ILDPTR
  -------         ENDMOD        ?C?ILDPTR

  -------         MODULE        ?C?IILDOPTR
  C:2B82H         PUBLIC        ?C?IILDOPTR
  -------         ENDMOD        ?C?IILDOPTR

  -------         MODULE        ?C?ISTPTR
  C:2BCFH         PUBLIC        ?C?ISTPTR
  -------         ENDMOD        ?C?ISTPTR

  -------         MODULE        ?C?LMUL
  C:2BEEH         PUBLIC        ?C?LMUL
  -------         ENDMOD        ?C?LMUL

  -------         MODULE        ?C?ULDIV
  C:2C79H         PUBLIC        ?C?ULDIV
  -------         ENDMOD        ?C?ULDIV

  -------         MODULE        ?C?SLDIV
  C:7BB6H         PUBLIC        ?C?SLDIV
  -------         ENDMOD        ?C?SLDIV

  -------         MODULE        ?C?LNEG
  C:2D0BH         PUBLIC        ?C?LNEG
  -------         ENDMOD        ?C?LNEG

  -------         MODULE        ?C?ULCMP
  C:2D19H         PUBLIC        ?C?ULCMP
  -------         ENDMOD        ?C?ULCMP

  -------         MODULE        ?C?ULSHR
  C:2D2AH         PUBLIC        ?C?ULSHR
  -------         ENDMOD        ?C?ULSHR

  -------         MODULE        ?C?LSTPTR
  C:2D3DH         PUBLIC        ?C?LSTPTR
  -------         ENDMOD        ?C?LSTPTR

  -------         MODULE        ?C?LSTXDATA
BL51 BANKED LINKER/LOCATER V6.22                                                      02/19/2019  11:34:33  PAGE 93


  C:2D57H         PUBLIC        ?C?LSTXDATA
  -------         ENDMOD        ?C?LSTXDATA

  -------         MODULE        ?C?LSTKXDATA
  C:2D63H         PUBLIC        ?C?LSTKXDATA
  -------         ENDMOD        ?C?LSTKXDATA

  -------         MODULE        ?C?PLDXDATA
  C:2D94H         PUBLIC        ?C?PLDXDATA
  -------         ENDMOD        ?C?PLDXDATA

  -------         MODULE        ?C?PLDIXDATA
  C:2D9DH         PUBLIC        ?C?PLDIXDATA
  -------         ENDMOD        ?C?PLDIXDATA

  -------         MODULE        ?C?PILDXDATA
  C:2DB4H         PUBLIC        ?C?PILDXDATA
  -------         ENDMOD        ?C?PILDXDATA

  -------         MODULE        ?C?PSTXDATA
  C:2DCBH         PUBLIC        ?C?PSTXDATA
  -------         ENDMOD        ?C?PSTXDATA

  -------         MODULE        ?C?PLDPTR
  C:2DD4H         PUBLIC        ?C?PLDPTR
  -------         ENDMOD        ?C?PLDPTR

  -------         MODULE        ?C?PSTPTR
  C:2DF4H         PUBLIC        ?C?PSTPTR
  -------         ENDMOD        ?C?PSTPTR

  -------         MODULE        ?C?CCASE
  C:2E43H         PUBLIC        ?C?CCASE
  -------         ENDMOD        ?C?CCASE

  -------         MODULE        GETCHAR
  B:0024H.5       PUBLIC        ?C?CHARLOADED
  X:035EH         PUBLIC        ?_UNGETCHAR?BYTE
  C:8249H         PUBLIC        GETCHAR
  -------         ENDMOD        GETCHAR

  -------         MODULE        UNGETC
  C:839EH         PUBLIC        _UNGETCHAR
  -------         ENDMOD        UNGETC

  -------         MODULE        ISSPACE
  C:825DH         PUBLIC        _isspace
  -------         ENDMOD        ISSPACE

  -------         MODULE        STRLEN
  C:8220H         PUBLIC        _STRLEN
  -------         ENDMOD        STRLEN

  -------         MODULE        ATOI
  C:65A9H         PUBLIC        _atoi
  -------         ENDMOD        ATOI

BL51 BANKED LINKER/LOCATER V6.22                                                      02/19/2019  11:34:33  PAGE 94


  -------         MODULE        ?C?LSTIDATA
  C:2E69H         PUBLIC        ?C?LSTIDATA
  -------         ENDMOD        ?C?LSTIDATA

  -------         MODULE        ?C?LSTPDATA
  C:2E75H         PUBLIC        ?C?LSTPDATA
  -------         ENDMOD        ?C?LSTPDATA

  -------         MODULE        ?C?PLDIDATA
  C:2E81H         PUBLIC        ?C?PLDIDATA
  -------         ENDMOD        ?C?PLDIDATA

  -------         MODULE        ?C?PSTIDATA
  C:2E8AH         PUBLIC        ?C?PSTIDATA
  -------         ENDMOD        ?C?PSTIDATA

  -------         MODULE        ?C?PLDPDATA
  C:2E93H         PUBLIC        ?C?PLDPDATA
  -------         ENDMOD        ?C?PLDPDATA

  -------         MODULE        ?C?PSTPDATA
  C:2E9CH         PUBLIC        ?C?PSTPDATA
  -------         ENDMOD        ?C?PSTPDATA

  -------         MODULE        ?C?PLDCODE
  C:2EA5H         PUBLIC        ?C?PLDCODE
  -------         ENDMOD        ?C?PLDCODE

  -------         MODULE        PUTCHAR
  C:807CH         PUBLIC        _PUTCHAR
  -------         ENDMOD        PUTCHAR

  -------         MODULE        _GETKEY
  C:8356H         PUBLIC        _GETKEY
  -------         ENDMOD        _GETKEY

  -------         MODULE        ISDIGIT
  C:8316H         PUBLIC        _isdigit
  -------         ENDMOD        ISDIGIT

Program Size: data=42.6 xdata=863 code=33730
LINK/LOCATE RUN COMPLETE.  0 WARNING(S),  0 ERROR(S)
