BL51 BANKED LINKER/LOCATER V6.22                                                        11/30/2015  09:53:45  PAGE 1


BL51 BANKED LINKER/LOCATER V6.22, INVOKED BY:
C:\KEIL\C51\BIN\BL51.EXE .\OBJ\STARTUP.obj, .\OBJ\UART.obj, .\OBJ\BusCtrl.obj, .\OBJ\CommandShell.obj, .\OBJ\Main.obj, .
>> \OBJ\OSD_Graph.obj, .\OBJ\OSDAction .obj, .\OBJ\OSDCtrl.obj, .\OBJ\Timer.obj, .\OBJ\TW28xx_Audio.obj, .\OBJ\TW28xx_Vi
>> deo.obj, .\OBJ\TW2835_Init.obj, .\OBJ\NED.obj TO .\OBJ\NED_5MCMOS_v0_a_0_XXXX_20151124 PRINT (.\OBJ\NED_5MCMOS_v0_a_0
>> _XXXX_20151124.m51) RAMSIZE (256) CODE (0X0000-0XFFFF)


MEMORY MODEL: LARGE


INPUT MODULES INCLUDED:
  .\OBJ\STARTUP.obj (?C_STARTUP)
  .\OBJ\UART.obj (UART)
  .\OBJ\BusCtrl.obj (BUSCTRL)
  .\OBJ\CommandShell.obj (COMMANDSHELL)
  .\OBJ\Main.obj (MAIN)
  .\OBJ\OSD_Graph.obj (OSD_GRAPH)
  .\OBJ\OSDAction .obj (OSDACTION_)
  .\OBJ\OSDCtrl.obj (OSDCTRL)
  .\OBJ\Timer.obj (TIMER)
  .\OBJ\TW28xx_Audio.obj (TW28XX_AUDIO)
  .\OBJ\TW28xx_Video.obj (TW28XX_VIDEO)
  .\OBJ\TW2835_Init.obj (TW2835_INIT)
  .\OBJ\NED.obj (NED)
  C:\KEIL\C51\LIB\C51L.LIB (?C_INIT)
  C:\KEIL\C51\LIB\C51L.LIB (?C?COPY)
  C:\KEIL\C51\LIB\C51L.LIB (?C?CLDPTR)
  C:\KEIL\C51\LIB\C51L.LIB (?C?CLDOPTR)
  C:\KEIL\C51\LIB\C51L.LIB (?C?CSTPTR)
  C:\KEIL\C51\LIB\C51L.LIB (?C?IMUL)
  C:\KEIL\C51\LIB\C51L.LIB (?C?UIDIV)
  C:\KEIL\C51\LIB\C51L.LIB (?C?IILDX)
  C:\KEIL\C51\LIB\C51L.LIB (?C?ILDIX)
  C:\KEIL\C51\LIB\C51L.LIB (?C?ILDPTR)
  C:\KEIL\C51\LIB\C51L.LIB (?C?IILDOPTR)
  C:\KEIL\C51\LIB\C51L.LIB (?C?LMUL)
  C:\KEIL\C51\LIB\C51L.LIB (?C?ULDIV)
  C:\KEIL\C51\LIB\C51L.LIB (?C?SLDIV)
  C:\KEIL\C51\LIB\C51L.LIB (?C?ULCMP)
  C:\KEIL\C51\LIB\C51L.LIB (?C?ULSHR)
  C:\KEIL\C51\LIB\C51L.LIB (?C?LSTXDATA)
  C:\KEIL\C51\LIB\C51L.LIB (?C?LSTKXDATA)
  C:\KEIL\C51\LIB\C51L.LIB (?C?PLDPTR)
  C:\KEIL\C51\LIB\C51L.LIB (?C?PSTPTR)
  C:\KEIL\C51\LIB\C51L.LIB (?C?CCASE)
  C:\KEIL\C51\LIB\C51L.LIB (?C?ICASE)
  C:\KEIL\C51\LIB\C51L.LIB (PRINTF)
  C:\KEIL\C51\LIB\C51L.LIB (PUTS)
  C:\KEIL\C51\LIB\C51L.LIB (SCANF)
  C:\KEIL\C51\LIB\C51L.LIB (?C?STRCMP)
  C:\KEIL\C51\LIB\C51L.LIB (STRLEN)
  C:\KEIL\C51\LIB\C51L.LIB (ATOI)
  C:\KEIL\C51\LIB\C51L.LIB (?C?ISTPTR)
  C:\KEIL\C51\LIB\C51L.LIB (?C?LNEG)
  C:\KEIL\C51\LIB\C51L.LIB (?C?LSTPTR)
  C:\KEIL\C51\LIB\C51L.LIB (?C?PLDIDATA)
  C:\KEIL\C51\LIB\C51L.LIB (?C?PSTIDATA)
  C:\KEIL\C51\LIB\C51L.LIB (?C?PLDXDATA)
BL51 BANKED LINKER/LOCATER V6.22                                                      11/30/2015  09:53:45  PAGE 2


  C:\KEIL\C51\LIB\C51L.LIB (?C?PLDIXDATA)
  C:\KEIL\C51\LIB\C51L.LIB (?C?PILDXDATA)
  C:\KEIL\C51\LIB\C51L.LIB (?C?PSTXDATA)
  C:\KEIL\C51\LIB\C51L.LIB (?C?PLDPDATA)
  C:\KEIL\C51\LIB\C51L.LIB (?C?PSTPDATA)
  C:\KEIL\C51\LIB\C51L.LIB (?C?PLDCODE)
  C:\KEIL\C51\LIB\C51L.LIB (PUTCHAR)
  C:\KEIL\C51\LIB\C51L.LIB (GETCHAR)
  C:\KEIL\C51\LIB\C51L.LIB (UNGETC)
  C:\KEIL\C51\LIB\C51L.LIB (ISDIGIT)
  C:\KEIL\C51\LIB\C51L.LIB (ISSPACE)
  C:\KEIL\C51\LIB\C51L.LIB (?C?LSTIDATA)
  C:\KEIL\C51\LIB\C51L.LIB (?C?LSTPDATA)
  C:\KEIL\C51\LIB\C51L.LIB (_GETKEY)


LINK MAP OF MODULE:  .\OBJ\NED_5MCMOS_v0_a_0_XXXX_20151124 (?C_STARTUP)


            TYPE    BASE      LENGTH    RELOCATION   SEGMENT NAME
            -----------------------------------------------------

            * * * * * * *   D A T A   M E M O R Y   * * * * * * *
            REG     0000H     0008H     ABSOLUTE     "REG BANK 0"
            DATA    0008H     000AH     UNIT         ?DT?_MONIAUDIOMIXING?COMMANDSHELL
            DATA    0012H     000AH     UNIT         ?DT?_MONIAUDIOGAIN?COMMANDSHELL
            DATA    001CH     0004H     UNIT         ?DT?_MONIREADASICBYTE?COMMANDSHELL
            DATA    0020H     0001H     BIT_ADDR     ?BA?MAIN
            DATA    0021H     0001H     BIT_ADDR     ?BA?OSDACTION_
            DATA    0022H     0001H     BIT_ADDR     ?BA?OSDCTRL
            BIT     0023H.0   0001H.1   UNIT         _BIT_GROUP_
            BIT     0024H.1   0000H.2   UNIT         ?BI?MAIN
            BIT     0024H.3   0000H.1   UNIT         ?BI?_ATOI?ATOI
            BIT     0024H.4   0000H.1   UNIT         ?BI?GETCHAR
                    0024H.5   0000H.3                *** GAP ***
            DATA    0025H     000AH     UNIT         ?DT?_MONIVIDEOMIXATTR?COMMANDSHELL
            DATA    002FH     0009H     UNIT         _DATA_GROUP_
            DATA    0038H     0008H     UNIT         ?DT?_MONISETVIDEOFORMAT?COMMANDSHELL
            DATA    0040H     0006H     UNIT         ?DT?TIMER
            DATA    0046H     0003H     UNIT         ?DT?_MONIREADPAGEBUFFER?COMMANDSHELL
            DATA    0049H     0003H     UNIT         ?DT?_MONIWRITEONEBUFFER?COMMANDSHELL
            DATA    004CH     0003H     UNIT         ?DT?_PCT_WRITEOSDFNTX?OSDCTRL
            DATA    004FH     0002H     UNIT         ?DT?_MONIREADONEBUFFER?COMMANDSHELL
            DATA    0051H     0002H     UNIT         ?DT?MONIREGISTERDUMP?COMMANDSHELL
            DATA    0053H     0002H     UNIT         ?DT?_MONIVIDEOMIXWIN?COMMANDSHELL
            DATA    0055H     0002H     UNIT         ?DT?_MONISHOWSODSTR?COMMANDSHELL
            DATA    0057H     0002H     UNIT         ?DT?PCT_AUDIOACTIONFORHS?COMMANDSHELL
            DATA    0059H     0002H     UNIT         ?DT?OSDCTRL
            DATA    005BH     0002H     UNIT         ?DT?_PCT_WRITEOSDFNTY?OSDCTRL
            DATA    005DH     0001H     UNIT         ?DT?_MONIAUDIOLIVE?COMMANDSHELL
            DATA    005EH     0001H     UNIT         ?DT?_PUTSP?MAIN
            DATA    005FH     0001H     UNIT         ?DT?PCT_SHOWVLOSS?OSDACTION_
            DATA    0060H     0001H     UNIT         ?DT?_PCT_AUDIOMIXMUTE?TW28XX_AUDIO
            DATA    0061H     0001H     UNIT         ?DT?PCT_VIDEOLASTMODIFY?TW28XX_VIDEO
            IDATA   0062H     0001H     UNIT         ?STACK

            * * * * * * *  X D A T A   M E M O R Y  * * * * * * *
BL51 BANKED LINKER/LOCATER V6.22                                                      11/30/2015  09:53:45  PAGE 3


            XDATA   0000H     020BH     UNIT         _XDATA_GROUP_
            XDATA   020BH     0081H     UNIT         ?XD?NED
            XDATA   028CH     0066H     UNIT         ?XD?UART
            XDATA   02F2H     0045H     UNIT         ?XD?MAIN
            XDATA   0337H     001FH     UNIT         ?XD?_PCT_WRITEOSDFNTY?OSDCTRL
            XDATA   0356H     001AH     UNIT         ?XD?COMMANDSHELL
            XDATA   0370H     0013H     UNIT         ?XD?_PCT_WRITEOSDFNTX?OSDCTRL
            XDATA   0383H     0007H     UNIT         ?XD?_PCT_SHOWOSDSTRING?OSDCTRL
            XDATA   038AH     0006H     UNIT         ?XD?_MONIAUDIOMIXING?COMMANDSHELL
            XDATA   0390H     0006H     UNIT         ?XD?_MONIAUDIOGAIN?COMMANDSHELL
            XDATA   0396H     0006H     UNIT         ?XD?_MONIVIDEOMIXATTR?COMMANDSHELL
            XDATA   039CH     0006H     UNIT         ?XD?_MONISETVIDEOFORMAT?COMMANDSHELL
            XDATA   03A2H     0006H     UNIT         ?XD?_MONISHOWSODSTR?COMMANDSHELL
            XDATA   03A8H     0006H     UNIT         ?XD?_TW2835_GET?NED
            XDATA   03AEH     0005H     UNIT         ?XD?_ATOI?ATOI
            XDATA   03B3H     0004H     UNIT         ?XD?_PCT_WRITEOSDDATABUFFERX?OSDCTRL
            XDATA   03B7H     0004H     UNIT         ?XD?_PCT_WRITEOSDDATABUFFERY?OSDCTRL
            XDATA   03BBH     0004H     UNIT         ?XD?_PCT_AUDIOMIXCTRL?TW28XX_AUDIO
            XDATA   03BFH     0004H     UNIT         ?XD?_CHECK_STARTUP?NED
            XDATA   03C3H     0003H     UNIT         ?XD?_PUTSP?MAIN
            XDATA   03C6H     0003H     UNIT         ?XD?_CHKSTARTCOMMSHELL?MAIN
            XDATA   03C9H     0003H     UNIT         ?XD?_PCT_SHOWSPEAKICON?OSDACTION_
            XDATA   03CCH     0003H     UNIT         ?XD?_PCT_AUDIOGAINCTRL?TW28XX_AUDIO
            XDATA   03CFH     0003H     UNIT         ?XD?_PCT_WINATTRCLEAR?TW28XX_VIDEO
            XDATA   03D2H     0003H     UNIT         ?XD?ADT75_INIT?NED
            XDATA   03D5H     0002H     UNIT         ?XD?_PCT_AUDIOMIXMUTE?TW28XX_AUDIO
            XDATA   03D7H     0002H     UNIT         ?XD?_PCT_SETVIDEOFORMAT?TW28XX_VIDEO
            XDATA   03D9H     0002H     UNIT         ?XD?_GET_CAMERA_IRD?NED
            XDATA   03DBH     0001H     UNIT         ?XD?OSD_GRAPH
            XDATA   03DCH     0001H     UNIT         ?XD?OSDACTION_
            XDATA   03DDH     0001H     UNIT         ?XD?_PCT_AUDIOSELLIVE?TW28XX_AUDIO
            XDATA   03DEH     0001H     UNIT         ?XD?_PCT_WINPOPUPCTRL?TW28XX_VIDEO
            XDATA   03DFH     0001H     UNIT         ?XD?_READI2C2?NED
            XDATA   03E0H     0001H     UNIT         ?XD?_WRITEI2CWORD?NED
            XDATA   03E1H     0001H     UNIT         ?XD?_SET_CHANNEL?NED
            XDATA   03E2H     0001H     UNIT         ?XD?SEND_CAMERA_VER?NED
            XDATA   03E3H     0001H     UNIT         ?XD?SENT_DVR_VER?NED
            XDATA   03E4H     0001H     UNIT         ?XD?SENT_DVR_YEAR?NED
            XDATA   03E5H     0001H     UNIT         ?XD?_COMMAND_CHECK?NED
            XDATA   03E6H     0001H     UNIT         ?XD?_GET_DATA?NED
            XDATA   03E7H     0001H     UNIT         ?XD?_ENABLETRANSMIT?NED
            XDATA   03E8H     0001H     UNIT         ?XD?_PEEK?NED
            XDATA   03E9H     0001H     UNIT         ?XD?_SET_INT?NED
            XDATA   03EAH     0001H     UNIT         ?XD?GETCHAR

            * * * * * * *   C O D E   M E M O R Y   * * * * * * *
            CODE    0000H     0003H     ABSOLUTE     
            CODE    0003H     0008H     UNIT         ?PR?_RS_TX?UART
            CODE    000BH     0003H     ABSOLUTE     
            CODE    000EH     0015H     UNIT         ?PR?_READI2C2?NED
            CODE    0023H     0003H     ABSOLUTE     
            CODE    0026H     0005H     UNIT         ?PR?MONIHSCOMMDISSCROLL?COMMANDSHELL
            CODE    002BH     0003H     ABSOLUTE     
            CODE    002EH     16CAH     UNIT         ?CO?OSD_GRAPH
            CODE    16F8H     0EA0H     UNIT         ?CO?OSDCTRL
            CODE    2598H     0703H     UNIT         ?C?LIB_CODE
            CODE    2C9BH     0584H     UNIT         ?PR?PCT_SHOWVLOSS?OSDACTION_
BL51 BANKED LINKER/LOCATER V6.22                                                      11/30/2015  09:53:45  PAGE 4


            CODE    321FH     04DEH     UNIT         ?PR?_PCT_SHOWMIRRORICON?OSDACTION_
            CODE    36FDH     04AAH     UNIT         ?PR?_PCT_SHOWSPEAKICON?OSDACTION_
            CODE    3BA7H     0459H     UNIT         ?CO?TW28XX_VIDEO
            CODE    4000H     0400H     UNIT         ?CO?TW2835_INIT
            CODE    4400H     03AEH     UNIT         ?PR?_PCT_OSD_ACTIONPTHX?OSDACTION_
            CODE    47AEH     0365H     UNIT         ?PR?PRINTF?PRINTF
            CODE    4B13H     0322H     UNIT         ?PR?SCANF?SCANF
            CODE    4E35H     0320H     UNIT         ?PR?_MONITOR_SET?MAIN
            CODE    5155H     02F8H     UNIT         ?PR?_PCT_SETVIDEOHDELAY?TW28XX_VIDEO
            CODE    544DH     027EH     UNIT         ?CO?COMMANDSHELL
            CODE    56CBH     021FH     UNIT         ?PR?COMMANDSHELL
            CODE    58EAH     0217H     UNIT         ?PR?_MONIVIDEOMIXATTR?COMMANDSHELL
            CODE    5B01H     01F7H     UNIT         ?PR?_SC16_SENDDATASELECT?NED
            CODE    5CF8H     01DAH     UNIT         ?CO?MAIN
            CODE    5ED2H     01D9H     UNIT         ?PR?PCT_AUDIOREGLIST?TW28XX_AUDIO
            CODE    60ABH     01D7H     UNIT         ?PR?_SC16_BCC_CHECK?NED
            CODE    6282H     01A3H     UNIT         ?PR?_PCT_SETXVIDEOMIXING?TW28XX_VIDEO
            CODE    6425H     01A2H     UNIT         ?PR?_PCT_OSD16X16GRAPHX?OSD_GRAPH
            CODE    65C7H     017CH     UNIT         ?PR?_PCT_WRITEOSDDATABUFFERX?OSDCTRL
            CODE    6743H     0178H     UNIT         ?PR?_MONIAUDIOMIXING?COMMANDSHELL
            CODE    68BBH     0170H     UNIT         ?PR?NED
            CODE    6A2BH     016AH     UNIT         ?PR?OSDCTRL
            CODE    6B95H     0166H     UNIT         ?PR?_PCT_SHOWINDICATEICON?OSDACTION_
            CODE    6CFBH     0163H     UNIT         ?PR?MAIN?MAIN
            CODE    6E5EH     015FH     UNIT         ?C_INITSEG
            CODE    6FBDH     014EH     UNIT         ?PR?_MONIHSCOMM?COMMANDSHELL
            CODE    710BH     0144H     UNIT         ?PR?_MONIAUDIOGAIN?COMMANDSHELL
            CODE    724FH     0141H     UNIT         ?PR?_PCT_RECOMPENSEYHDELAY?TW28XX_VIDEO
            CODE    7390H     013AH     UNIT         ?PR?PCT_INITOSDCOLOR?OSDCTRL
            CODE    74CAH     0124H     UNIT         ?PR?_PCT_WRITEOSDFNTX?OSDCTRL
            CODE    75EEH     0124H     UNIT         ?PR?_PCT_WRITEOSDDATABUFFERY?OSDCTRL
            CODE    7712H     011EH     UNIT         ?PR?PRESS_CHECK?MAIN
            CODE    7830H     011DH     UNIT         ?PR?_MONISETVIDEOFORMAT?COMMANDSHELL
            CODE    794DH     011BH     UNIT         ?PR?TW28XX_VIDEO
            CODE    7A68H     00F2H     UNIT         ?PR?_PCT_WRITEOSDFNTY?OSDCTRL
            CODE    7B5AH     00EFH     UNIT         ?PR?_PCT_RUNCOMMSHELL?COMMANDSHELL
            CODE    7C49H     00DDH     UNIT         ?PR?TIMER2_INTERRUPT?TIMER
            CODE    7D26H     00DBH     UNIT         ?PR?_ATOI?ATOI
            CODE    7E01H     00D9H     UNIT         ?PR?COMMANDSHELL?MAIN
            CODE    7EDAH     00CFH     UNIT         ?PR?MAIN
            CODE    7FA9H     00CEH     UNIT         ?PR?_SET_PWM_OUTPUT?MAIN
            CODE    8077H     00BAH     UNIT         ?PR?_SETBAUDRATE?NED
            CODE    8131H     00B8H     UNIT         ?PR?OSDACTION_
            CODE    81E9H     00B6H     UNIT         ?PR?_PCT_CLEARWORDSPATHX?OSDCTRL
            CODE    829FH     00ADH     UNIT         ?PR?_SC16_COMCHECK?NED
            CODE    834CH     00AAH     UNIT         ?PR?_PCT_FULLCOLORONOSD?OSDCTRL
            CODE    83F6H     00A3H     UNIT         ?PR?_TW2835_GET?NED
            CODE    8499H     0099H     UNIT         ?PR?_PCT_SETCHANELSCALE?TW28XX_VIDEO
            CODE    8532H     0099H     UNIT         ?PR?CAMERA_MOVE?NED
            CODE    85CBH     0098H     UNIT         ?PR?_CHECK_STARTUP?NED
            CODE    8663H     0096H     UNIT         ?PR?CHECK_OTHER_COM?NED
            CODE    86F9H     008EH     UNIT         ?PR?PCT_VIDEOLASTMODIFY?TW28XX_VIDEO
            CODE    8787H     008CH     UNIT         ?C_C51STARTUP
            CODE    8813H     008CH     UNIT         ?PR?_PCT_READASICBYTE?BUSCTRL
            CODE    889FH     0081H     UNIT         ?PR?_PCT_WRITEASICTABLE?BUSCTRL
            CODE    8920H     0080H     UNIT         ?PR?SC16_INIT?NED
            CODE    89A0H     007BH     UNIT         ?PR?_SET_CHANNEL?NED
BL51 BANKED LINKER/LOCATER V6.22                                                      11/30/2015  09:53:45  PAGE 5


            CODE    8A1BH     0079H     UNIT         ?PR?_I2CWRITEDATA?NED
            CODE    8A94H     0073H     UNIT         ?PR?_BOUND_SET?NED
            CODE    8B07H     0071H     UNIT         ?PR?_PCT_AUDIOMIXCTRL?TW28XX_AUDIO
            CODE    8B78H     0070H     UNIT         ?PR?_PCT_GETFIRSTSTR?COMMANDSHELL
            CODE    8BE8H     006BH     UNIT         ?PR?_PCT_AUDIOGAINCTRL?TW28XX_AUDIO
            CODE    8C53H     006AH     UNIT         ?PR?_I2CWRITEDATA2?NED
            CODE    8CBDH     0069H     UNIT         ?PR?PCT_CHECKSYSTEM?COMMANDSHELL
            CODE    8D26H     0069H     UNIT         ?PR?_GET_DATA?NED
            CODE    8D8FH     0067H     UNIT         ?PR?PCT_TW2835_INITIAL?TW2835_INIT
            CODE    8DF6H     0067H     UNIT         ?PR?_SETLINE?NED
            CODE    8E5DH     0064H     UNIT         ?PR?_PCT_WRITEASICBYTE?BUSCTRL
            CODE    8EC1H     0064H     UNIT         ?PR?_PCT_CHANGESYSTEMTYPE?TW2835_INIT
            CODE    8F25H     0063H     UNIT         ?PR?GPIO_CHECK?NED
            CODE    8F88H     0061H     UNIT         ?PR?_MONISHOWSODSTR?COMMANDSHELL
            CODE    8FE9H     0061H     UNIT         ?PR?CAMERA_VERSION_CHECK?MAIN
            CODE    904AH     0061H     UNIT         ?PR?_PCT_SHOWGRAPHSTRING?OSD_GRAPH
            CODE    90ABH     005EH     UNIT         ?PR?_PCT_SHOWOSDSTRING?OSDCTRL
            CODE    9109H     005AH     UNIT         ?PR?TEMP_CHECK?MAIN
            CODE    9163H     0059H     UNIT         ?PR?_PCT_SETOSDCOLOR?OSDCTRL
            CODE    91BCH     0056H     UNIT         ?PR?_MONIVIDEOMIXWIN?COMMANDSHELL
            CODE    9212H     0055H     UNIT         ?PR?VERSION_CHECK?MAIN
            CODE    9267H     0052H     UNIT         ?PR?_PCT_WRITESTABLE?BUSCTRL
            CODE    92B9H     0050H     UNIT         ?PR?_WAIT_MS?MAIN
            CODE    9309H     004DH     UNIT         ?PR?_MONIWRITEASICBYTE?COMMANDSHELL
            CODE    9356H     004CH     UNIT         ?PR?PCT_INITIALOSD?OSDACTION_
            CODE    93A2H     004BH     UNIT         ?PR?MONIREGISTERDUMP?COMMANDSHELL
            CODE    93EDH     004BH     UNIT         ?PR?_PCT_DETECTVIDEOFORMAT?TW28XX_VIDEO
            CODE    9438H     004AH     UNIT         ?PR?INITIALMPU?MAIN
            CODE    9482H     004AH     UNIT         ?PR?I2C_ACK2?NED
            CODE    94CCH     004AH     UNIT         ?PR?_SET_CAMERA_SPEED?NED
            CODE    9516H     0048H     UNIT         ?PR?_PCT_CHECKVMIXTYPE?COMMANDSHELL
            CODE    955EH     0048H     UNIT         ?PR?_MONIREADASICBYTE?COMMANDSHELL
            CODE    95A6H     0047H     UNIT         ?PR?_MONIREADPAGEBUFFER?COMMANDSHELL
            CODE    95EDH     0047H     UNIT         ?PR?PCT_AUDIOACTIONFORHS?COMMANDSHELL
            CODE    9634H     0047H     UNIT         ?PR?PCT_GETVIDEOSIGNALSTATUS?OSDACTION_
            CODE    967BH     0047H     UNIT         ?PR?SEND_CAMERA_VER?NED
            CODE    96C2H     0047H     UNIT         ?PR?SENT_CAMERA_ANG?NED
            CODE    9709H     0047H     UNIT         ?PR?SENT_CAMERA_RANG?NED
            CODE    9750H     0047H     UNIT         ?PR?SENT_DVR_VER?NED
            CODE    9797H     0046H     UNIT         ?PR?SEND_CAMERA_PRESS?NED
            CODE    97DDH     0046H     UNIT         ?PR?SENT_DVR_YEAR?NED
            CODE    9823H     0045H     UNIT         ?PR?PCT_SHOWMODEICON?OSDACTION_
            CODE    9868H     0045H     UNIT         ?PR?_GET_CAMERA_IRD?NED
            CODE    98ADH     0044H     UNIT         ?C?LDIV
            CODE    98F1H     0043H     UNIT         ?PR?PCT_INITIALTW2835?TW2835_INIT
            CODE    9934H     0041H     UNIT         ?PR?_SC16_DATA_RESET?NED
            CODE    9975H     0040H     UNIT         ?CO?TW28XX_AUDIO
            CODE    99B5H     0040H     UNIT         ?PR?_PCT_WINATTRCLEAR?TW28XX_VIDEO
            CODE    99F5H     003DH     UNIT         ?PR?_PCT_STRTOCOMMCODE?COMMANDSHELL
            CODE    9A32H     003DH     UNIT         ?CO?NED
            CODE    9A6FH     003CH     UNIT         ?PR?BUSCTRL
            CODE    9AABH     003CH     UNIT         ?PR?_PCT_WINATTRCTRLY?TW28XX_VIDEO
            CODE    9AE7H     003AH     UNIT         ?PR?MONIVIDEOAUTODETECT?COMMANDSHELL
            CODE    9B21H     003AH     UNIT         ?PR?SENT_DVR_TEMP?NED
            CODE    9B5BH     0039H     UNIT         ?PR?SEND_CAMERA_TEMP?NED
            CODE    9B94H     0038H     UNIT         ?PR?OSD_GRAPH
            CODE    9BCCH     0037H     UNIT         ?PR?_MONIREADONEBUFFER?COMMANDSHELL
BL51 BANKED LINKER/LOCATER V6.22                                                      11/30/2015  09:53:45  PAGE 6


            CODE    9C03H     0037H     UNIT         ?PR?TW28XX_AUDIO
            CODE    9C3AH     0037H     UNIT         ?PR?_READI2CWORD?NED
            CODE    9C71H     0036H     UNIT         ?PR?_PCT_ENSHOWOSDPAGE?OSDCTRL
            CODE    9CA7H     0036H     UNIT         ?PR?_PCT_AUDIOMIXMUTE?TW28XX_AUDIO
            CODE    9CDDH     0035H     UNIT         ?PR?_PUTSP?MAIN
            CODE    9D12H     0035H     UNIT         ?PR?_PCT_WINATTRCTRL?TW28XX_VIDEO
            CODE    9D47H     0034H     UNIT         ?PR?_MONIWRITEONEBUFFER?COMMANDSHELL
            CODE    9D7BH     0034H     UNIT         ?PR?_PCT_DISSHOWOSDPAGE?OSDCTRL
            CODE    9DAFH     0032H     UNIT         ?PR?REPEAT_PWM_COM?NED
            CODE    9DE1H     0032H     UNIT         ?PR?SC16_DATACHECK?NED
            CODE    9E13H     0030H     UNIT         ?PR?_PCT_AUDIOSELLIVE?TW28XX_AUDIO
            CODE    9E43H     002EH     UNIT         ?PR?_PCT_SETVIDEOFORMAT?TW28XX_VIDEO
            CODE    9E71H     002EH     UNIT         ?PR?I2CREADDATAWITHACK2?NED
            CODE    9E9FH     002DH     UNIT         ?PR?RS_INTERRUPT?UART
            CODE    9ECCH     002DH     UNIT         ?PR?_PWM_SET?MAIN
            CODE    9EF9H     002CH     UNIT         ?PR?_CHKSTARTCOMMSHELL?MAIN
            CODE    9F25H     002CH     UNIT         ?PR?GET_CAMERA_VER?NED
            CODE    9F51H     002CH     UNIT         ?PR?GET_CAMERA_ANG?NED
            CODE    9F7DH     002CH     UNIT         ?PR?GET_CAMERA_RANG?NED
            CODE    9FA9H     002CH     UNIT         ?PR?GET_DVR_TEMP?NED
            CODE    9FD5H     002CH     UNIT         ?PR?GET_DVR_VER?NED
            CODE    A001H     002CH     UNIT         ?PR?GET_DVR_YEAR?NED
            CODE    A02DH     002CH     UNIT         ?PR?GET_DVR_MD?NED
            CODE    A059H     002CH     UNIT         ?PR?GET_DVR_HS?NED
            CODE    A085H     002BH     UNIT         ?PR?I2CREADDATAWITHACK?NED
            CODE    A0B0H     002AH     UNIT         ?PR?_BCC_CAL?NED
            CODE    A0DAH     002AH     UNIT         ?PR?_PUTS?PUTS
            CODE    A104H     0029H     UNIT         ?PR?ADT75_INIT?NED
            CODE    A12DH     0028H     UNIT         ?PR?I2CREADDATA2?NED
            CODE    A155H     0027H     UNIT         ?PR?PUTCHAR?PUTCHAR
            CODE    A17CH     0026H     UNIT         ?PR?RESETCOMMSELL?MAIN
            CODE    A1A2H     0026H     UNIT         ?PR?PCT_OSDACTIONFORHS?OSDACTION_
            CODE    A1C8H     0026H     UNIT         ?PR?_PCT_WINPOPUPCTRL?TW28XX_VIDEO
            CODE    A1EEH     0025H     UNIT         ?PR?I2CREADDATA?NED
            CODE    A213H     0021H     UNIT         ?PR?_SC16_SENDDATA?NED
            CODE    A234H     0020H     UNIT         ?CO?OSDACTION_
            CODE    A254H     0020H     UNIT         ?PR?_ADC_READ?NED
            CODE    A274H     001FH     UNIT         ?PR?_PCT_SETOSDDRAWPAGE?OSDCTRL
            CODE    A293H     001FH     UNIT         ?PR?_PING?NED
            CODE    A2B2H     001EH     UNIT         ?PR?_ENABLETRANSMIT?NED
            CODE    A2D0H     001DH     UNIT         ?PR?INITIALTIMER2?TIMER
            CODE    A2EDH     001DH     UNIT         ?PR?_WRITEI2CWORD?NED
            CODE    A30AH     001CH     UNIT         ?PR?_READI2C?NED
            CODE    A326H     001AH     UNIT         ?PR?_PCT_CLEAROSDPAGEX?OSDCTRL
            CODE    A340H     0019H     UNIT         ?PR?RS_RX?UART
            CODE    A359H     0019H     UNIT         ?PR?TW2835_INIT
            CODE    A372H     0018H     UNIT         ?PR?_WRITEI2C?NED
            CODE    A38AH     0018H     UNIT         ?PR?_SET_INT?NED
            CODE    A3A2H     0016H     UNIT         ?PR?INITIALUART?UART
            CODE    A3B8H     0016H     UNIT         ?PR?_MONIHSCOMMSJMODE?COMMANDSHELL
            CODE    A3CEH     0016H     UNIT         ?PR?_PARITY?NED
            CODE    A3E4H     0015H     UNIT         ?PR?_STRLEN?STRLEN
            CODE    A3F9H     0014H     UNIT         ?PR?_MONIAUDIOLIVE?COMMANDSHELL
            CODE    A40DH     0014H     UNIT         ?PR?_PCT_SETYVIDEOMIXING?TW28XX_VIDEO
            CODE    A421H     0014H     UNIT         ?PR?I2C_100KHZ?NED
            CODE    A435H     0014H     UNIT         ?PR?GETCHAR?GETCHAR
            CODE    A449H     0014H     UNIT         ?PR?_ISSPACE?ISSPACE
BL51 BANKED LINKER/LOCATER V6.22                                                      11/30/2015  09:53:45  PAGE 7


            CODE    A45DH     0013H     UNIT         ?PR?MONIHSCOMMVERSION?COMMANDSHELL
            CODE    A470H     0013H     UNIT         ?PR?PCT_TW2835RESETN?TW2835_INIT
            CODE    A483H     0012H     UNIT         ?PR?_MONIYVIDEOMIX?COMMANDSHELL
            CODE    A495H     0012H     UNIT         ?PR?I2CSTART?NED
            CODE    A4A7H     0012H     UNIT         ?PR?I2CSTART2?NED
            CODE    A4B9H     0010H     UNIT         ?PR?RS_RXREADY?UART
            CODE    A4C9H     0010H     UNIT         ?PR?_POWER_ONOFF?NED
            CODE    A4D9H     000FH     UNIT         ?PR?MONIAUDIOMUTE?COMMANDSHELL
            CODE    A4E8H     000FH     UNIT         ?PR?PWM_INIT?MAIN
            CODE    A4F7H     000FH     UNIT         ?PR?I2CDELAY?NED
            CODE    A506H     000FH     UNIT         ?PR?I2CDELAY2?NED
            CODE    A515H     000FH     UNIT         ?PR?_SENT_CAMERA_IRD?NED
            CODE    A524H     000FH     UNIT         ?PR?_RESETDEVICE?NED
            CODE    A533H     000FH     UNIT         ?PR?_ISDIGIT?ISDIGIT
            CODE    A542H     000DH     UNIT         ?PR?TIMER0_INTERRUPT?TIMER
            CODE    A54FH     000DH     UNIT         ?PR?I2CSTOP?NED
            CODE    A55CH     000DH     UNIT         ?PR?I2CSTOP2?NED
            CODE    A569H     000DH     UNIT         ?PR?_READBYTE?NED
            CODE    A576H     000CH     UNIT         ?PR?INITIALCOMMSHELL?MAIN
            CODE    A582H     000BH     UNIT         ?PR?UART
            CODE    A58DH     000BH     UNIT         ?PR?_WRITEI2C2?NED
            CODE    A598H     000BH     UNIT         ?PR?_FLUSH?NED
            CODE    A5A3H     000AH     UNIT         ?PR?_PEEK?NED
            CODE    A5ADH     000AH     UNIT         ?PR?_GETKEY?_GETKEY
            CODE    A5B7H     0009H     UNIT         ?PR?NEWLINE?MAIN
            CODE    A5C0H     0009H     UNIT         ?PR?_PCT_FLASHOSDCTRL?MAIN
            CODE    A5C9H     0009H     UNIT         ?PR?INITIALTIMER0?TIMER
            CODE    A5D2H     0009H     UNIT         ?PR?I2C_ACK?NED
            CODE    A5DBH     0009H     UNIT         ?PR?_GPIOSETPORTMODE?NED
            CODE    A5E4H     0009H     UNIT         ?PR?_GPIOSETPORTSTATE?NED
            CODE    A5EDH     0009H     UNIT         ?PR?_WRITEBYTE?NED
            CODE    A5F6H     0009H     UNIT         ?PR?MCTRL_SET?NED
            CODE    A5FFH     0008H     UNIT         ?PR?PCT_ENFALSHVLOSS?OSDACTION_
            CODE    A607H     0008H     UNIT         ?PR?GETCHAR?UNGETCHAR
            CODE    A60FH     0006H     UNIT         ?PR?PCT_CLEARGRAPHATTR?OSD_GRAPH
            CODE    A615H     0006H     UNIT         ?PR?_PCT_PRESETGRAPHATTR?OSD_GRAPH
            CODE    A61BH     0006H     UNIT         ?PR?_COMMAND_CHECK?NED
            CODE    A621H     0006H     UNIT         ?PR?_GPIOGETPORTSTATE?NED
            CODE    A627H     0006H     UNIT         ?PR?_FIFOAVAILABLEDATA?NED
            CODE    A62DH     0006H     UNIT         ?PR?_FIFOAVAILABLESPACE?NED
            CODE    A633H     0003H     UNIT         ?PR?_PCT_PRESETFOREGROUNDCOLOR?OSDCTRL
            CODE    A636H     0003H     UNIT         ?PR?_PCT_PRESETBACKGROUNDCOLOR?OSDCTRL
            CODE    A639H     0001H     UNIT         ?PR?PTC_SWITCHTOI2CMODE?BUSCTRL
            CODE    A63AH     0001H     UNIT         ?PR?PCT_SENDACK?COMMANDSHELL
            CODE    A63BH     0001H     UNIT         ?PR?SENT_DVR_MDR?NED
            CODE    A63CH     0001H     UNIT         ?PR?SENT_DVR_HS?NED



OVERLAY MAP OF MODULE:   .\OBJ\NED_5MCMOS_v0_a_0_XXXX_20151124 (?C_STARTUP)


SEGMENT                                            BIT_GROUP          DATA_GROUP          XDATA_GROUP
  +--> CALLED SEGMENT                           START    LENGTH     START    LENGTH     START    LENGTH
-------------------------------------------------------------------------------------------------------
?C_C51STARTUP                                   -----    -----      -----    -----      -----    -----
  +--> ?PR?MAIN?MAIN
BL51 BANKED LINKER/LOCATER V6.22                                                      11/30/2015  09:53:45  PAGE 8


  +--> ?C_INITSEG

?PR?MAIN?MAIN                                   -----    -----      -----    -----      0000H    0006H
  +--> ?PR?MAIN
  +--> ?PR?INITIALMPU?MAIN
  +--> ?PR?PWM_INIT?MAIN
  +--> ?PR?INITIALCOMMSHELL?MAIN
  +--> ?PR?RESETCOMMSELL?MAIN
  +--> ?PR?_POWER_ONOFF?NED
  +--> ?PR?SC16_INIT?NED
  +--> ?PR?_MONITOR_SET?MAIN
  +--> ?PR?_GPIOGETPORTSTATE?NED
  +--> ?PR?COMMANDSHELL?MAIN
  +--> ?PR?_PCT_RUNCOMMSHELL?COMMANDSHELL
  +--> ?PR?PCT_CHECKSYSTEM?COMMANDSHELL
  +--> ?PR?RS_RXREADY?UART
  +--> ?PR?PCT_GETVIDEOSIGNALSTATUS?OSDACTION_
  +--> ?PR?GPIO_CHECK?NED
  +--> ?PR?CAMERA_MOVE?NED
  +--> ?PR?_SC16_DATA_RESET?NED
  +--> ?PR?SC16_DATACHECK?NED
  +--> ?PR?_SET_CAMERA_SPEED?NED

?PR?INITIALMPU?MAIN                             -----    -----      -----    -----      -----    -----
  +--> ?PR?INITIALUART?UART
  +--> ?PR?INITIALTIMER0?TIMER
  +--> ?PR?INITIALTIMER2?TIMER

?PR?RESETCOMMSELL?MAIN                          -----    -----      -----    -----      -----    -----
  +--> ?PR?MAIN

?PR?_POWER_ONOFF?NED                            -----    -----      -----    -----      -----    -----
  +--> ?PR?_WAIT_MS?MAIN

?PR?_WAIT_MS?MAIN                               -----    -----      -----    -----      01D5H    0004H

?PR?SC16_INIT?NED                               -----    -----      -----    -----      0006H    0001H
  +--> ?PR?_WAIT_MS?MAIN
  +--> ?PR?NED
  +--> ?PR?_RESETDEVICE?NED
  +--> ?PR?_SETBAUDRATE?NED
  +--> ?PR?_SETLINE?NED
  +--> ?PR?_WRITEI2C?NED
  +--> ?PR?_GPIOSETPORTMODE?NED
  +--> ?PR?_GPIOSETPORTSTATE?NED

?PR?NED                                         -----    -----      -----    -----      -----    -----
  +--> ?PR?I2CDELAY?NED
  +--> ?PR?I2CDELAY2?NED
  +--> ?PR?I2CSTART?NED
  +--> ?PR?_I2CWRITEDATA?NED
  +--> ?PR?_WRITEI2C?NED
  +--> ?PR?_READI2C?NED

?PR?I2CSTART?NED                                -----    -----      -----    -----      -----    -----
  +--> ?PR?I2CDELAY?NED

BL51 BANKED LINKER/LOCATER V6.22                                                      11/30/2015  09:53:45  PAGE 9


?PR?_I2CWRITEDATA?NED                           -----    -----      -----    -----      -----    -----
  +--> ?PR?I2CSTART?NED
  +--> ?PR?I2CDELAY?NED

?PR?_WRITEI2C?NED                               -----    -----      -----    -----      -----    -----
  +--> ?PR?I2CSTOP?NED

?PR?I2CSTOP?NED                                 -----    -----      -----    -----      -----    -----
  +--> ?PR?I2CDELAY?NED

?PR?_READI2C?NED                                -----    -----      -----    -----      -----    -----
  +--> ?PR?_I2CWRITEDATA?NED
  +--> ?PR?I2CREADDATA?NED
  +--> ?PR?I2CSTOP?NED

?PR?I2CREADDATA?NED                             -----    -----      -----    -----      -----    -----
  +--> ?PR?I2CDELAY?NED

?PR?_RESETDEVICE?NED                            -----    -----      -----    -----      -----    -----
  +--> ?PR?NED
  +--> ?PR?_WRITEI2C?NED

?PR?_SETBAUDRATE?NED                            -----    -----      -----    -----      0007H    000AH
  +--> ?PR?_READI2C?NED
  +--> ?PR?_WRITEI2C?NED

?PR?_SETLINE?NED                                -----    -----      -----    -----      0007H    0004H
  +--> ?PR?NED
  +--> ?PR?_WRITEI2C?NED

?PR?_GPIOSETPORTMODE?NED                        -----    -----      -----    -----      -----    -----
  +--> ?PR?_WRITEI2C?NED

?PR?_GPIOSETPORTSTATE?NED                       -----    -----      -----    -----      -----    -----
  +--> ?PR?_WRITEI2C?NED

?PR?_MONITOR_SET?MAIN                           -----    -----      -----    -----      0006H    01CFH
  +--> ?CO?MAIN
  +--> ?PR?MAIN
  +--> ?PR?PCT_INITIALTW2835?TW2835_INIT
  +--> ?PR?_PCT_RUNCOMMSHELL?COMMANDSHELL
  +--> ?PR?_PCT_WRITEASICBYTE?BUSCTRL
  +--> ?PR?_BOUND_SET?NED

?PR?PCT_INITIALTW2835?TW2835_INIT               -----    -----      -----    -----      -----    -----
  +--> ?PR?PCT_TW2835RESETN?TW2835_INIT
  +--> ?PR?_PCT_READASICBYTE?BUSCTRL
  +--> ?PR?_PCT_DETECTVIDEOFORMAT?TW28XX_VIDEO
  +--> ?PR?_WAIT_MS?MAIN
  +--> ?PR?PCT_TW2835_INITIAL?TW2835_INIT
  +--> ?PR?PCT_INITIALOSD?OSDACTION_

?PR?_PCT_READASICBYTE?BUSCTRL                   -----    -----      -----    -----      01F2H    0004H
  +--> ?PR?MCTRL_SET?NED
  +--> ?PR?BUSCTRL

?PR?_PCT_DETECTVIDEOFORMAT?TW28XX_VIDEO         -----    -----      -----    -----      01D5H    0002H
BL51 BANKED LINKER/LOCATER V6.22                                                      11/30/2015  09:53:45  PAGE 10


  +--> ?PR?_PCT_READASICBYTE?BUSCTRL

?PR?PCT_TW2835_INITIAL?TW2835_INIT              -----    -----      -----    -----      01D5H    0002H
  +--> ?PR?TW2835_INIT
  +--> ?CO?TW2835_INIT
  +--> ?PR?_PCT_WRITEASICTABLE?BUSCTRL

?PR?TW2835_INIT                                 -----    -----      -----    -----      -----    -----
  +--> ?CO?TW2835_INIT

?PR?_PCT_WRITEASICTABLE?BUSCTRL                 -----    -----      -----    -----      01D7H    0007H
  +--> ?PR?BUSCTRL
  +--> ?PR?MCTRL_SET?NED

?PR?PCT_INITIALOSD?OSDACTION_                   -----    -----      002FH    0001H      -----    -----
  +--> ?PR?PCT_INITOSDCOLOR?OSDCTRL
  +--> ?PR?PCT_CLEARGRAPHATTR?OSD_GRAPH
  +--> ?PR?_PCT_PRESETFOREGROUNDCOLOR?OSDCTRL
  +--> ?PR?_PCT_PRESETBACKGROUNDCOLOR?OSDCTRL
  +--> ?PR?_PCT_ENSHOWOSDPAGE?OSDCTRL
  +--> ?PR?_PCT_SETOSDDRAWPAGE?OSDCTRL
  +--> ?PR?_PCT_FULLCOLORONOSD?OSDCTRL

?PR?PCT_INITOSDCOLOR?OSDCTRL                    -----    -----      -----    -----      -----    -----
  +--> ?PR?_PCT_WRITEASICBYTE?BUSCTRL
  +--> ?PR?OSDCTRL
  +--> ?PR?_PCT_SETOSDCOLOR?OSDCTRL

?PR?_PCT_WRITEASICBYTE?BUSCTRL                  -----    -----      -----    -----      01F2H    0004H
  +--> ?PR?BUSCTRL
  +--> ?PR?MCTRL_SET?NED

?PR?OSDCTRL                                     -----    -----      -----    -----      -----    -----
  +--> ?CO?OSDCTRL

?PR?_PCT_SETOSDCOLOR?OSDCTRL                    -----    -----      -----    -----      01D5H    0005H
  +--> ?PR?_PCT_WRITEASICBYTE?BUSCTRL

?PR?_PCT_ENSHOWOSDPAGE?OSDCTRL                  -----    -----      -----    -----      01DDH    0001H
  +--> ?PR?OSDCTRL
  +--> ?PR?_PCT_WRITEASICBYTE?BUSCTRL
  +--> ?PR?_PCT_READASICBYTE?BUSCTRL

?PR?_PCT_SETOSDDRAWPAGE?OSDCTRL                 -----    -----      -----    -----      01DDH    0001H
  +--> ?PR?OSDCTRL
  +--> ?PR?_PCT_READASICBYTE?BUSCTRL
  +--> ?PR?_PCT_WRITEASICBYTE?BUSCTRL

?PR?_PCT_FULLCOLORONOSD?OSDCTRL                 -----    -----      -----    -----      01DDH    0006H
  +--> ?PR?OSDCTRL
  +--> ?PR?_PCT_WRITEASICBYTE?BUSCTRL
  +--> ?PR?_PCT_READASICBYTE?BUSCTRL

?PR?_PCT_RUNCOMMSHELL?COMMANDSHELL              -----    -----      -----    -----      01D5H    0008H
  +--> ?PR?COMMANDSHELL
  +--> ?PR?_PCT_GETFIRSTSTR?COMMANDSHELL
  +--> ?PR?_PCT_STRTOCOMMCODE?COMMANDSHELL
BL51 BANKED LINKER/LOCATER V6.22                                                      11/30/2015  09:53:45  PAGE 11


  +--> ?CO?COMMANDSHELL
  +--> ?PR?_MONIWRITEASICBYTE?COMMANDSHELL
  +--> ?PR?_MONIYVIDEOMIX?COMMANDSHELL
  +--> ?PR?_MONIHSCOMM?COMMANDSHELL
  +--> ?PR?PCT_OSDACTIONFORHS?OSDACTION_
  +--> ?PR?_PCT_FLASHOSDCTRL?MAIN
  +--> ?PR?_MONIHSCOMMSJMODE?COMMANDSHELL
  +--> ?PR?REPEAT_PWM_COM?NED
  +--> ?PR?_PWM_SET?MAIN

?PR?COMMANDSHELL                                -----    -----      -----    -----      -----    -----
  +--> ?CO?COMMANDSHELL
  +--> ?PR?PCT_SENDACK?COMMANDSHELL

?PR?_PCT_GETFIRSTSTR?COMMANDSHELL               -----    -----      -----    -----      01DDH    0006H
  +--> ?PR?COMMANDSHELL

?PR?_PCT_STRTOCOMMCODE?COMMANDSHELL             -----    -----      002FH    0002H      01DDH    0003H
  +--> ?PR?COMMANDSHELL

?PR?_MONIWRITEASICBYTE?COMMANDSHELL             -----    -----      002FH    0004H      -----    -----
  +--> ?PR?COMMANDSHELL
  +--> ?CO?COMMANDSHELL
  +--> ?PR?SCANF?SCANF
  +--> ?PR?_PCT_WRITEASICBYTE?BUSCTRL

?PR?SCANF?SCANF                                 0023H.0  0000H.6    0033H    0005H      01DDH    002EH
  +--> ?PR?GETCHAR?UNGETCHAR
  +--> ?PR?_ISSPACE?ISSPACE
  +--> ?PR?GETCHAR?GETCHAR

?PR?GETCHAR?GETCHAR                             -----    -----      -----    -----      -----    -----
  +--> ?PR?_GETKEY?_GETKEY
  +--> ?PR?PUTCHAR?PUTCHAR

?PR?_MONIYVIDEOMIX?COMMANDSHELL                 -----    -----      002FH    0001H      -----    -----
  +--> ?PR?COMMANDSHELL
  +--> ?PR?SCANF?SCANF
  +--> ?PR?_PCT_SETYVIDEOMIXING?TW28XX_VIDEO

?PR?_PCT_SETYVIDEOMIXING?TW28XX_VIDEO           -----    -----      -----    -----      -----    -----
  +--> ?CO?TW28XX_VIDEO
  +--> ?PR?_PCT_WRITESTABLE?BUSCTRL

?PR?_PCT_WRITESTABLE?BUSCTRL                    -----    -----      -----    -----      01E4H    0003H
  +--> ?PR?BUSCTRL
  +--> ?PR?_PCT_READASICBYTE?BUSCTRL
  +--> ?PR?_PCT_WRITEASICBYTE?BUSCTRL

?PR?_MONIHSCOMM?COMMANDSHELL                    -----    -----      002FH    0003H      -----    -----
  +--> ?PR?COMMANDSHELL
  +--> ?CO?COMMANDSHELL
  +--> ?PR?SCANF?SCANF
  +--> ?PR?_PCT_WINATTRCTRLY?TW28XX_VIDEO
  +--> ?PR?_PCT_RECOMPENSEYHDELAY?TW28XX_VIDEO
  +--> ?PR?_PCT_SETVIDEOHDELAY?TW28XX_VIDEO
  +--> ?PR?_PCT_SETXVIDEOMIXING?TW28XX_VIDEO
BL51 BANKED LINKER/LOCATER V6.22                                                      11/30/2015  09:53:45  PAGE 12


  +--> ?PR?_PCT_WINATTRCTRL?TW28XX_VIDEO
  +--> ?PR?_PCT_FLASHOSDCTRL?MAIN
  +--> ?PR?_PCT_CHECKVMIXTYPE?COMMANDSHELL
  +--> ?PR?_PCT_DISSHOWOSDPAGE?OSDCTRL
  +--> ?PR?_PCT_CLEAROSDPAGEX?OSDCTRL
  +--> ?PR?PCT_SHOWMODEICON?OSDACTION_
  +--> ?PR?_PCT_OSD_ACTIONPTHX?OSDACTION_

?PR?_PCT_WINATTRCTRLY?TW28XX_VIDEO              -----    -----      -----    -----      01DDH    0003H
  +--> ?PR?TW28XX_VIDEO
  +--> ?PR?_PCT_READASICBYTE?BUSCTRL
  +--> ?PR?_PCT_WRITEASICBYTE?BUSCTRL

?PR?TW28XX_VIDEO                                -----    -----      -----    -----      -----    -----
  +--> ?CO?TW28XX_VIDEO

?PR?_PCT_RECOMPENSEYHDELAY?TW28XX_VIDEO         -----    -----      -----    -----      01DDH    0003H
  +--> ?PR?TW28XX_VIDEO
  +--> ?PR?_PCT_READASICBYTE?BUSCTRL
  +--> ?CO?TW28XX_VIDEO
  +--> ?PR?_PCT_WRITEASICBYTE?BUSCTRL

?PR?_PCT_SETVIDEOHDELAY?TW28XX_VIDEO            -----    -----      -----    -----      01DDH    0008H
  +--> ?PR?TW28XX_VIDEO
  +--> ?PR?_PCT_READASICBYTE?BUSCTRL
  +--> ?PR?_PCT_WRITEASICBYTE?BUSCTRL
  +--> ?CO?TW28XX_VIDEO

?PR?_PCT_SETXVIDEOMIXING?TW28XX_VIDEO           -----    -----      -----    -----      01DDH    0007H
  +--> ?PR?TW28XX_VIDEO
  +--> ?PR?_PCT_WRITEASICBYTE?BUSCTRL
  +--> ?CO?TW28XX_VIDEO
  +--> ?PR?_PCT_SETCHANELSCALE?TW28XX_VIDEO
  +--> ?PR?_PCT_WRITESTABLE?BUSCTRL

?PR?_PCT_SETCHANELSCALE?TW28XX_VIDEO            -----    -----      -----    -----      01E4H    0008H
  +--> ?PR?TW28XX_VIDEO
  +--> ?CO?TW28XX_VIDEO
  +--> ?PR?_PCT_WRITEASICBYTE?BUSCTRL

?PR?_PCT_WINATTRCTRL?TW28XX_VIDEO               -----    -----      -----    -----      01DDH    0003H
  +--> ?PR?TW28XX_VIDEO
  +--> ?PR?_PCT_READASICBYTE?BUSCTRL
  +--> ?PR?_PCT_WRITEASICBYTE?BUSCTRL

?PR?_PCT_CHECKVMIXTYPE?COMMANDSHELL             -----    -----      0032H    0001H      -----    -----
  +--> ?PR?COMMANDSHELL

?PR?_PCT_DISSHOWOSDPAGE?OSDCTRL                 -----    -----      -----    -----      01DDH    0003H
  +--> ?PR?OSDCTRL
  +--> ?PR?_PCT_READASICBYTE?BUSCTRL
  +--> ?PR?_PCT_WRITEASICBYTE?BUSCTRL

?PR?_PCT_CLEAROSDPAGEX?OSDCTRL                  -----    -----      -----    -----      -----    -----
  +--> ?PR?_PCT_SETOSDDRAWPAGE?OSDCTRL
  +--> ?PR?_PCT_PRESETBACKGROUNDCOLOR?OSDCTRL
  +--> ?PR?_PCT_FULLCOLORONOSD?OSDCTRL
BL51 BANKED LINKER/LOCATER V6.22                                                      11/30/2015  09:53:45  PAGE 13



?PR?PCT_SHOWMODEICON?OSDACTION_                 -----    -----      -----    -----      -----    -----
  +--> ?PR?_PCT_SETOSDDRAWPAGE?OSDCTRL
  +--> ?PR?OSDACTION_
  +--> ?CO?OSDACTION_
  +--> ?PR?_PCT_SHOWGRAPHSTRING?OSD_GRAPH
  +--> ?PR?_PCT_PRESETBACKGROUNDCOLOR?OSDCTRL
  +--> ?PR?_PCT_PRESETFOREGROUNDCOLOR?OSDCTRL

?PR?OSDACTION_                                  -----    -----      -----    -----      -----    -----
  +--> ?CO?OSDACTION_

?PR?_PCT_SHOWGRAPHSTRING?OSD_GRAPH              -----    -----      -----    -----      01E0H    0007H
  +--> ?PR?OSD_GRAPH
  +--> ?PR?_STRLEN?STRLEN
  +--> ?PR?_PCT_OSD16X16GRAPHX?OSD_GRAPH
  +--> ?PR?PTC_SWITCHTOI2CMODE?BUSCTRL

?PR?_PCT_OSD16X16GRAPHX?OSD_GRAPH               -----    -----      -----    -----      01E7H    000BH
  +--> ?CO?OSD_GRAPH
  +--> ?PR?OSD_GRAPH
  +--> ?PR?_PCT_WRITEASICBYTE?BUSCTRL
  +--> ?PR?_PCT_READASICBYTE?BUSCTRL

?PR?_PCT_OSD_ACTIONPTHX?OSDACTION_              -----    -----      -----    -----      01DDH    0003H
  +--> ?PR?OSDACTION_
  +--> ?PR?_PCT_PRESETFOREGROUNDCOLOR?OSDCTRL
  +--> ?PR?_PCT_PRESETBACKGROUNDCOLOR?OSDCTRL
  +--> ?PR?_PCT_SHOWGRAPHSTRING?OSD_GRAPH

?PR?PCT_OSDACTIONFORHS?OSDACTION_               -----    -----      -----    -----      -----    -----
  +--> ?PR?_PCT_SETOSDDRAWPAGE?OSDCTRL
  +--> ?PR?_PCT_SHOWMIRRORICON?OSDACTION_
  +--> ?PR?_PCT_SHOWINDICATEICON?OSDACTION_
  +--> ?PR?PCT_ENFALSHVLOSS?OSDACTION_
  +--> ?PR?_PCT_ENSHOWOSDPAGE?OSDCTRL

?PR?_PCT_SHOWMIRRORICON?OSDACTION_              -----    -----      -----    -----      01DDH    0003H
  +--> ?PR?OSDACTION_
  +--> ?PR?_PCT_PRESETFOREGROUNDCOLOR?OSDCTRL
  +--> ?PR?_PCT_CLEARWORDSPATHX?OSDCTRL
  +--> ?PR?_PCT_SHOWGRAPHSTRING?OSD_GRAPH
  +--> ?CO?OSDACTION_

?PR?_PCT_CLEARWORDSPATHX?OSDCTRL                -----    -----      -----    -----      01E0H    0007H
  +--> ?PR?OSDCTRL
  +--> ?PR?_PCT_WRITEASICBYTE?BUSCTRL
  +--> ?PR?_PCT_READASICBYTE?BUSCTRL

?PR?_PCT_SHOWINDICATEICON?OSDACTION_            -----    -----      002FH    0001H      01DDH    0003H
  +--> ?PR?OSDACTION_
  +--> ?PR?_PCT_PRESETFOREGROUNDCOLOR?OSDCTRL
  +--> ?PR?_PCT_SHOWGRAPHSTRING?OSD_GRAPH
  +--> ?PR?_PCT_CLEARWORDSPATHX?OSDCTRL
  +--> ?CO?OSDACTION_

?PR?_MONIHSCOMMSJMODE?COMMANDSHELL              -----    -----      -----    -----      -----    -----
BL51 BANKED LINKER/LOCATER V6.22                                                      11/30/2015  09:53:45  PAGE 14


  +--> ?PR?COMMANDSHELL
  +--> ?CO?COMMANDSHELL
  +--> ?PR?SCANF?SCANF

?PR?REPEAT_PWM_COM?NED                          -----    -----      -----    -----      -----    -----
  +--> ?PR?_WRITEBYTE?NED

?PR?_WRITEBYTE?NED                              -----    -----      -----    -----      -----    -----
  +--> ?PR?_WRITEI2C?NED

?PR?_PWM_SET?MAIN                               -----    -----      -----    -----      -----    -----
  +--> ?PR?MAIN
  +--> ?PR?_SET_PWM_OUTPUT?MAIN

?PR?_SET_PWM_OUTPUT?MAIN                        -----    -----      -----    -----      01DDH    0008H
  +--> ?CO?MAIN
  +--> ?PR?MAIN

?PR?_BOUND_SET?NED                              -----    -----      -----    -----      01D5H    0004H
  +--> ?CO?NED
  +--> ?PR?NED
  +--> ?PR?_PCT_WRITEASICBYTE?BUSCTRL

?PR?_GPIOGETPORTSTATE?NED                       -----    -----      -----    -----      -----    -----
  +--> ?PR?_READI2C?NED

?PR?COMMANDSHELL?MAIN                           -----    -----      002FH    0001H      -----    -----
  +--> ?PR?RS_RXREADY?UART
  +--> ?PR?RS_RX?UART
  +--> ?PR?MAIN
  +--> ?PR?_SC16_BCC_CHECK?NED
  +--> ?PR?RESETCOMMSELL?MAIN

?PR?RS_RX?UART                                  -----    -----      -----    -----      -----    -----
  +--> ?PR?UART

?PR?_SC16_BCC_CHECK?NED                         -----    -----      -----    -----      0006H    0006H
  +--> ?PR?NED
  +--> ?PR?_RS_TX?UART
  +--> ?PR?_WRITEBYTE?NED
  +--> ?PR?SEND_CAMERA_TEMP?NED
  +--> ?PR?SEND_CAMERA_PRESS?NED
  +--> ?PR?SENT_CAMERA_ANG?NED
  +--> ?PR?SENT_CAMERA_RANG?NED
  +--> ?PR?_SENT_CAMERA_IRD?NED
  +--> ?PR?SENT_DVR_TEMP?NED
  +--> ?PR?VERSION_CHECK?MAIN
  +--> ?PR?CAMERA_VERSION_CHECK?MAIN
  +--> ?PR?CHECK_OTHER_COM?NED
  +--> ?PR?_SC16_SENDDATA?NED

?PR?SEND_CAMERA_TEMP?NED                        -----    -----      -----    -----      000CH    0001H
  +--> ?PR?NED
  +--> ?PR?_BCC_CAL?NED
  +--> ?PR?_RS_TX?UART

?PR?_BCC_CAL?NED                                -----    -----      -----    -----      000DH    0002H
BL51 BANKED LINKER/LOCATER V6.22                                                      11/30/2015  09:53:45  PAGE 15



?PR?SEND_CAMERA_PRESS?NED                       -----    -----      -----    -----      000CH    0001H
  +--> ?PR?NED
  +--> ?PR?_BCC_CAL?NED
  +--> ?PR?_RS_TX?UART

?PR?SENT_CAMERA_ANG?NED                         -----    -----      -----    -----      000CH    0001H
  +--> ?PR?NED
  +--> ?PR?_BCC_CAL?NED
  +--> ?PR?_RS_TX?UART

?PR?SENT_CAMERA_RANG?NED                        -----    -----      -----    -----      000CH    0001H
  +--> ?PR?NED
  +--> ?PR?_BCC_CAL?NED
  +--> ?PR?_RS_TX?UART

?PR?_SENT_CAMERA_IRD?NED                        -----    -----      -----    -----      000CH    0003H
  +--> ?PR?_RS_TX?UART

?PR?SENT_DVR_TEMP?NED                           -----    -----      -----    -----      000CH    0001H
  +--> ?PR?NED
  +--> ?PR?_BCC_CAL?NED
  +--> ?PR?_RS_TX?UART

?PR?VERSION_CHECK?MAIN                          -----    -----      -----    -----      000CH    0001H
  +--> ?PR?MAIN
  +--> ?PR?_RS_TX?UART

?PR?CAMERA_VERSION_CHECK?MAIN                   -----    -----      -----    -----      000CH    0001H
  +--> ?PR?MAIN
  +--> ?PR?_RS_TX?UART

?PR?CHECK_OTHER_COM?NED                         -----    -----      -----    -----      -----    -----
  +--> ?PR?_RS_TX?UART

?PR?_SC16_SENDDATA?NED                          -----    -----      -----    -----      000CH    0002H
  +--> ?PR?_WRITEBYTE?NED

?PR?PCT_CHECKSYSTEM?COMMANDSHELL                -----    -----      -----    -----      -----    -----
  +--> ?PR?_PCT_DETECTVIDEOFORMAT?TW28XX_VIDEO
  +--> ?PR?_PCT_ENSHOWOSDPAGE?OSDCTRL
  +--> ?PR?_PCT_CHANGESYSTEMTYPE?TW2835_INIT
  +--> ?PR?_PCT_RECOMPENSEYHDELAY?TW28XX_VIDEO
  +--> ?PR?COMMANDSHELL
  +--> ?PR?_PCT_SETVIDEOHDELAY?TW28XX_VIDEO
  +--> ?PR?_PCT_SETXVIDEOMIXING?TW28XX_VIDEO
  +--> ?PR?_PCT_CLEAROSDPAGEX?OSDCTRL
  +--> ?PR?PCT_SHOWMODEICON?OSDACTION_
  +--> ?PR?_PCT_OSD_ACTIONPTHX?OSDACTION_
  +--> ?PR?PCT_OSDACTIONFORHS?OSDACTION_

?PR?_PCT_CHANGESYSTEMTYPE?TW2835_INIT           -----    -----      -----    -----      0006H    0002H
  +--> ?PR?TW2835_INIT
  +--> ?CO?TW2835_INIT
  +--> ?PR?_PCT_WRITEASICTABLE?BUSCTRL

?PR?PCT_GETVIDEOSIGNALSTATUS?OSDACTION_         -----    -----      -----    -----      -----    -----
BL51 BANKED LINKER/LOCATER V6.22                                                      11/30/2015  09:53:45  PAGE 16


  +--> ?PR?_PCT_READASICBYTE?BUSCTRL
  +--> ?PR?_PCT_WRITEASICBYTE?BUSCTRL
  +--> ?PR?_PCT_PRESETFOREGROUNDCOLOR?OSDCTRL
  +--> ?PR?_PCT_PRESETGRAPHATTR?OSD_GRAPH
  +--> ?PR?PCT_CLEARGRAPHATTR?OSD_GRAPH

?PR?GPIO_CHECK?NED                              -----    -----      -----    -----      0006H    0002H
  +--> ?PR?_GPIOGETPORTSTATE?NED

?PR?CAMERA_MOVE?NED                             -----    -----      -----    -----      0006H    000DH
  +--> ?CO?NED
  +--> ?PR?NED
  +--> ?PR?_WRITEBYTE?NED

?PR?_SC16_DATA_RESET?NED                        -----    -----      -----    -----      -----    -----
  +--> ?PR?TEMP_CHECK?MAIN
  +--> ?PR?PRESS_CHECK?MAIN
  +--> ?PR?GET_CAMERA_ANG?NED
  +--> ?PR?GET_CAMERA_RANG?NED
  +--> ?PR?GET_DVR_TEMP?NED
  +--> ?PR?GET_CAMERA_VER?NED

?PR?TEMP_CHECK?MAIN                             -----    -----      -----    -----      -----    -----
  +--> ?PR?_READI2CWORD?NED

?PR?_READI2CWORD?NED                            -----    -----      -----    -----      0006H    0002H
  +--> ?PR?_I2CWRITEDATA?NED
  +--> ?PR?I2CREADDATAWITHACK?NED
  +--> ?PR?I2CREADDATA?NED
  +--> ?PR?I2CSTOP?NED

?PR?I2CREADDATAWITHACK?NED                      -----    -----      -----    -----      -----    -----
  +--> ?PR?NED
  +--> ?PR?I2CDELAY?NED

?PR?PRESS_CHECK?MAIN                            -----    -----      -----    -----      0006H    0007H
  +--> ?PR?MAIN
  +--> ?PR?_ADC_READ?NED

?PR?GET_CAMERA_ANG?NED                          -----    -----      -----    -----      -----    -----
  +--> ?PR?_WRITEBYTE?NED

?PR?GET_CAMERA_RANG?NED                         -----    -----      -----    -----      -----    -----
  +--> ?PR?_WRITEBYTE?NED

?PR?GET_DVR_TEMP?NED                            -----    -----      -----    -----      -----    -----
  +--> ?PR?_WRITEBYTE?NED

?PR?GET_CAMERA_VER?NED                          -----    -----      -----    -----      -----    -----
  +--> ?PR?_WRITEBYTE?NED

?PR?SC16_DATACHECK?NED                          -----    -----      -----    -----      0006H    0003H
  +--> ?PR?_SC16_SENDDATASELECT?NED

?PR?_SC16_SENDDATASELECT?NED                    -----    -----      -----    -----      0009H    0009H
  +--> ?PR?NED
  +--> ?PR?_READI2C?NED
BL51 BANKED LINKER/LOCATER V6.22                                                      11/30/2015  09:53:45  PAGE 17


  +--> ?PR?_READBYTE?NED
  +--> ?PR?_RS_TX?UART
  +--> ?CO?NED
  +--> ?PR?PRINTF?PRINTF
  +--> ?PR?_SC16_COMCHECK?NED

?PR?_READBYTE?NED                               -----    -----      -----    -----      0012H    0001H
  +--> ?PR?_READI2C?NED

?PR?PRINTF?PRINTF                               0023H.0  0001H.1    002FH    0005H      0012H    0028H
  +--> ?PR?PUTCHAR?PUTCHAR

?PR?_SC16_COMCHECK?NED                          -----    -----      -----    -----      0012H    0002H
  +--> ?PR?NED

?PR?_SET_CAMERA_SPEED?NED                       -----    -----      -----    -----      -----    -----
  +--> ?PR?_WRITEBYTE?NED

*** NEW ROOT ***************************************************

?PR?RS_INTERRUPT?UART                           -----    -----      -----    -----      -----    -----
  +--> ?PR?UART



SYMBOL TABLE OF MODULE:  .\OBJ\NED_5MCMOS_v0_a_0_XXXX_20151124 (?C_STARTUP)

  VALUE           TYPE          NAME
  ----------------------------------

  -------         MODULE        ?C_STARTUP
  C:8787H         SEGMENT       ?C_C51STARTUP
  I:0062H         SEGMENT       ?STACK
  C:0000H         PUBLIC        ?C_STARTUP
  D:00E0H         SYMBOL        ACC
  D:00F0H         SYMBOL        B
  D:0083H         SYMBOL        DPH
  D:0082H         SYMBOL        DPL
  N:0000H         SYMBOL        IBPSTACK
  N:0100H         SYMBOL        IBPSTACKTOP
  N:0080H         SYMBOL        IDATALEN
  C:878AH         SYMBOL        IDATALOOP
  N:0000H         SYMBOL        PBPSTACK
  N:0100H         SYMBOL        PBPSTACKTOP
  N:0000H         SYMBOL        PDATALEN
  N:0000H         SYMBOL        PDATASTART
  N:0000H         SYMBOL        PPAGE
  N:0000H         SYMBOL        PPAGEENABLE
  D:00A0H         SYMBOL        PPAGE_SFR
  D:0081H         SYMBOL        SP
  C:8787H         SYMBOL        STARTUP1
  N:0000H         SYMBOL        XBPSTACK
  N:0000H         SYMBOL        XBPSTACKTOP
  N:0000H         SYMBOL        XDATALEN
  N:0000H         SYMBOL        XDATASTART
  C:0000H         LINE#         126
  C:8787H         LINE#         133
BL51 BANKED LINKER/LOCATER V6.22                                                      11/30/2015  09:53:45  PAGE 18


  C:8789H         LINE#         134
  C:878AH         LINE#         135
  C:878BH         LINE#         136
  C:878DH         LINE#         185
  C:8790H         LINE#         196
  -------         ENDMOD        ?C_STARTUP

  -------         MODULE        UART
  C:0000H         SYMBOL        _ICE_DUMMY_
  D:0080H         PUBLIC        P0
  D:0090H         PUBLIC        P1
  D:00A0H         PUBLIC        P2
  D:00C0H         PUBLIC        XICON
  D:00B0H         PUBLIC        P3
  D:00E8H         PUBLIC        P4
  C:A3A2H         PUBLIC        InitialUART
  D:00A8H         PUBLIC        IE
  X:028CH         PUBLIC        RS_RECVBUF
  B:00A8H.4       PUBLIC        ES
  D:00B8H         PUBLIC        IP
  B:0098H.0       PUBLIC        RI
  B:0098H.1       PUBLIC        TI
  B:00B8H.4       PUBLIC        PS
  D:00D8H         PUBLIC        CCON
  D:0099H         PUBLIC        SBUF
  D:00C0H         PUBLIC        WDTC
  D:0098H         PUBLIC        SCON
  D:0088H         PUBLIC        TCON
  C:A4B9H         PUBLIC        RS_RxReady
  D:008DH         PUBLIC        TH1
  D:008BH         PUBLIC        TL1
  X:02F0H         PUBLIC        RsRxRp
  B:0088H.6       PUBLIC        TR1
  X:02F1H         PUBLIC        RsRxWp
  D:00F8H         PUBLIC        IPA
  D:00C8H         PUBLIC        T2CON
  C:A340H         PUBLIC        RS_rx
  C:0003H         PUBLIC        _RS_tx
  C:9E9FH         PUBLIC        RS_interrupt
  D:00D0H         PUBLIC        PSW
  C:A582H         SYMBOL        Com000E
  C:A582H         SYMBOL        L?0015
  -------         PROC          COM000E
  -------         ENDPROC       COM000E
  -------         PROC          INITIALUART
  C:A3A2H         LINE#         75
  C:A3A2H         LINE#         76
  C:A3A2H         LINE#         79
  C:A3A4H         LINE#         80
  C:A3A6H         LINE#         84
  C:A3A9H         LINE#         99
  C:A3ACH         LINE#         103
  C:A3AFH         LINE#         104
  C:A3B1H         LINE#         106
  C:A3B5H         LINE#         107
  C:A3B7H         LINE#         108
  -------         ENDPROC       INITIALUART
BL51 BANKED LINKER/LOCATER V6.22                                                      11/30/2015  09:53:45  PAGE 19


  -------         PROC          RS_RXREADY
  C:A4B9H         LINE#         114
  C:A4B9H         LINE#         115
  C:A4B9H         LINE#         116
  C:A4C6H         LINE#         117
  C:A4C8H         LINE#         118
  -------         ENDPROC       RS_RXREADY
  -------         PROC          RS_RX
  -------         DO            
  D:0007H         SYMBOL        ret
  -------         ENDDO         
  C:A340H         LINE#         124
  C:A340H         LINE#         125
  C:A340H         LINE#         131
  C:A348H         LINE#         132
  C:A34EH         LINE#         133
  C:A354H         LINE#         134
  C:A356H         LINE#         138
  C:A358H         LINE#         140
  C:A358H         LINE#         141
  -------         ENDPROC       RS_RX
  -------         PROC          _RS_TX
  D:0007H         SYMBOL        tx_buf
  C:0003H         LINE#         147
  C:0003H         LINE#         148
  C:0003H         LINE#         166
  C:0003H         LINE#         167
  C:0003H         LINE#         169
  C:0006H         LINE#         178
  C:0008H         LINE#         179
  C:000AH         LINE#         180
  C:000AH         LINE#         181
  C:000AH         LINE#         182
  C:000AH         LINE#         185
  -------         ENDPROC       _RS_TX
  -------         PROC          RS_INTERRUPT
  C:9E9FH         LINE#         193
  C:9EA7H         LINE#         196
  C:9EAAH         LINE#         197
  C:9EACH         LINE#         206
  C:9EB5H         LINE#         210
  C:9EBBH         LINE#         211
  C:9EC3H         LINE#         218
  C:9EC3H         LINE#         221
  -------         ENDPROC       RS_INTERRUPT
  -------         ENDMOD        UART

  -------         MODULE        BUSCTRL
  C:0000H         SYMBOL        _ICE_DUMMY_
  D:0080H         PUBLIC        P0
  D:0090H         PUBLIC        P1
  D:00A0H         PUBLIC        P2
  D:00C0H         PUBLIC        XICON
  D:00B0H         PUBLIC        P3
  D:00E8H         PUBLIC        P4
  B:00A8H.7       PUBLIC        EA
  D:00A8H         PUBLIC        IE
BL51 BANKED LINKER/LOCATER V6.22                                                      11/30/2015  09:53:45  PAGE 20


  C:9267H         PUBLIC        _PCT_WriteSTable
  D:00B8H         PUBLIC        IP
  B:00A0H.3       PUBLIC        HALE
  B:00A0H.2       PUBLIC        HRDB
  D:00D8H         PUBLIC        CCON
  D:00C0H         PUBLIC        WDTC
  B:00A0H.1       PUBLIC        HWRB
  D:0098H         PUBLIC        SCON
  D:0088H         PUBLIC        TCON
  C:889FH         PUBLIC        _PCT_WriteAsicTable
  C:A639H         PUBLIC        PTC_SwitchToI2CMode
  B:00B0H.6       PUBLIC        HCSB0
  B:00B0H.7       PUBLIC        HCSB1
  D:00F8H         PUBLIC        IPA
  C:8813H         PUBLIC        _PCT_ReadAsicByte
  D:00C8H         PUBLIC        T2CON
  C:8E5DH         PUBLIC        _PCT_WriteAsicByte
  D:00D0H         PUBLIC        PSW
  C:9A6FH         SYMBOL        Com0038
  C:9A6FH         SYMBOL        L?0057
  C:9A72H         SYMBOL        L?0058
  C:9A74H         SYMBOL        L?0059
  C:9A7CH         SYMBOL        L?0060
  C:9A7CH         SYMBOL        L?0061
  C:9A84H         SYMBOL        L?0062
  C:9A84H         SYMBOL        L?0063
  C:9A8BH         SYMBOL        L?0064
  C:9A97H         SYMBOL        L?0065
  C:9AA1H         SYMBOL        L?0066
  -------         PROC          COM0038
  -------         ENDPROC       COM0038
  -------         PROC          _PCT_WRITEASICBYTE
  D:0007H         SYMBOL        _dvc
  X:01F3H         SYMBOL        _pg
  X:01F4H         SYMBOL        _addr
  X:01F5H         SYMBOL        _wdat
  C:8E5DH         LINE#         63
  C:8E60H         LINE#         64
  C:8E60H         LINE#         65
  C:8E60H         LINE#         67
  C:8E63H         LINE#         70
  C:8E66H         LINE#         75
  C:8E73H         LINE#         76
  C:8E7DH         LINE#         77
  C:8E85H         LINE#         78
  C:8E88H         LINE#         79
  C:8E88H         LINE#         82
  C:8E9BH         LINE#         84
  C:8E9DH         LINE#         85
  C:8EA3H         LINE#         86
  C:8EA5H         LINE#         89
  C:8EB8H         LINE#         92
  C:8EBAH         LINE#         96
  C:8EBDH         LINE#         101
  C:8EBDH         LINE#         102
  C:8EBDH         LINE#         103
  C:8EBDH         LINE#         104
BL51 BANKED LINKER/LOCATER V6.22                                                      11/30/2015  09:53:45  PAGE 21


  C:8EC0H         LINE#         105
  -------         ENDPROC       _PCT_WRITEASICBYTE
  -------         PROC          _PCT_WRITEASICTABLE
  D:0007H         SYMBOL        _dvc
  X:01D8H         SYMBOL        _pg
  X:01D9H         SYMBOL        _addr
  X:01DAH         SYMBOL        _tbl_ptr
  X:01DDH         SYMBOL        _tbl_cnt
  C:889FH         LINE#         111
  C:88A2H         LINE#         112
  C:88A2H         LINE#         113
  C:88A2H         LINE#         115
  C:88A5H         LINE#         119
  C:88A8H         LINE#         124
  C:88B5H         LINE#         125
  C:88BFH         LINE#         126
  C:88C7H         LINE#         128
  C:88C7H         LINE#         129
  C:88D0H         LINE#         130
  C:88D0H         LINE#         133
  C:88E3H         LINE#         136
  C:88E5H         LINE#         138
  C:88FAH         LINE#         139
  C:88FCH         LINE#         142
  C:890FH         LINE#         145
  C:8911H         LINE#         146
  C:8919H         LINE#         150
  C:891CH         LINE#         155
  C:891CH         LINE#         156
  C:891CH         LINE#         157
  C:891CH         LINE#         158
  C:891FH         LINE#         159
  -------         ENDPROC       _PCT_WRITEASICTABLE
  -------         PROC          _PCT_READASICBYTE
  X:01F2H         SYMBOL        _dvc
  X:01F3H         SYMBOL        _pg
  X:01F4H         SYMBOL        _addr
  -------         DO            
  X:01F5H         SYMBOL        _rdat_
  -------         ENDDO         
  C:8813H         LINE#         165
  C:881EH         LINE#         166
  C:881EH         LINE#         169
  C:8820H         LINE#         173
  C:8823H         LINE#         178
  C:8828H         LINE#         179
  C:8833H         LINE#         180
  C:883DH         LINE#         181
  C:8845H         LINE#         183
  C:8848H         LINE#         184
  C:8848H         LINE#         186
  C:885BH         LINE#         189
  C:885DH         LINE#         190
  C:8860H         LINE#         192
  C:8873H         LINE#         196
  C:8875H         LINE#         197
  C:887BH         LINE#         201
BL51 BANKED LINKER/LOCATER V6.22                                                      11/30/2015  09:53:45  PAGE 22


  C:888EH         LINE#         204
  C:8890H         LINE#         208
  C:8893H         LINE#         213
  C:8895H         LINE#         214
  C:8897H         LINE#         215
  C:8899H         LINE#         216
  C:889EH         LINE#         217
  -------         ENDPROC       _PCT_READASICBYTE
  -------         PROC          _PCT_WRITESTABLE
  D:0007H         SYMBOL        _dvc
  X:01E4H         SYMBOL        _tbl_ptr
  C:9267H         LINE#         224
  C:9272H         LINE#         225
  C:9272H         LINE#         229
  C:9272H         LINE#         230
  C:9280H         LINE#         231
  C:929AH         LINE#         232
  C:929AH         LINE#         233
  C:92ACH         LINE#         234
  C:92ACH         LINE#         235
  C:92B6H         LINE#         236
  C:92B8H         LINE#         237
  -------         ENDPROC       _PCT_WRITESTABLE
  -------         PROC          PTC_SWITCHTOI2CMODE
  C:A639H         LINE#         243
  C:A639H         LINE#         244
  C:A639H         LINE#         254
  -------         ENDPROC       PTC_SWITCHTOI2CMODE
  -------         ENDMOD        BUSCTRL

  -------         MODULE        COMMANDSHELL
  C:0000H         SYMBOL        _ICE_DUMMY_
  D:0080H         PUBLIC        P0
  D:0090H         PUBLIC        P1
  D:00A0H         PUBLIC        P2
  D:00C0H         PUBLIC        XICON
  D:00B0H         PUBLIC        P3
  D:00E8H         PUBLIC        P4
  C:A3B8H         PUBLIC        _MoniHSCommSJmode
  C:9AE7H         PUBLIC        MoniVideoAutoDetect
  C:7B5AH         PUBLIC        _PCT_RunCommShell
  C:710BH         PUBLIC        _MoniAudioGain
  D:00A8H         PUBLIC        IE
  C:9BCCH         PUBLIC        _MoniReadOneBuffer
  D:00B8H         PUBLIC        IP
  C:A483H         PUBLIC        _MoniYVideoMix
  X:0356H         PUBLIC        sysdat
  C:A3F9H         PUBLIC        _MoniAudioLive
  D:00D8H         PUBLIC        CCON
  C:A63AH         PUBLIC        PCT_SendACK
  C:9D47H         PUBLIC        _MoniWriteOneBuffer
  C:A4D9H         PUBLIC        MoniAudioMute
  C:A45DH         PUBLIC        MoniHSCommVersion
  C:7830H         PUBLIC        _MoniSetVideoFormat
  C:955EH         PUBLIC        _MoniReadAsicByte
  C:8B78H         PUBLIC        _PCT_GetFirstStr
  C:8CBDH         PUBLIC        PCT_CheckSystem
BL51 BANKED LINKER/LOCATER V6.22                                                      11/30/2015  09:53:45  PAGE 23


  D:00C0H         PUBLIC        WDTC
  D:0098H         PUBLIC        SCON
  D:0088H         PUBLIC        TCON
  C:9309H         PUBLIC        _MoniWriteAsicByte
  C:6FBDH         PUBLIC        _MoniHSComm
  X:0367H         PUBLIC        msg
  C:99F5H         PUBLIC        _PCT_StrToCommCode
  C:9516H         PUBLIC        _PCT_CheckVMixType
  C:0026H         PUBLIC        MoniHSCommDisScroll
  D:00F8H         PUBLIC        IPA
  C:8F88H         PUBLIC        _MoniShowSODStr
  C:58EAH         PUBLIC        _MoniVideoMixAttr
  C:95EDH         PUBLIC        PCT_AudioActionForHS
  D:00C8H         PUBLIC        T2CON
  C:91BCH         PUBLIC        _MoniVideoMixWin
  C:95A6H         PUBLIC        _MoniReadPageBuffer
  X:036FH         PUBLIC        Original_selwintype
  C:93A2H         PUBLIC        MoniRegisterDump
  D:00D0H         PUBLIC        PSW
  C:6743H         PUBLIC        _MoniAudioMixing
  C:56CBH         SYMBOL        Com00B2
  C:56CBH         SYMBOL        L?0179
  C:56CCH         SYMBOL        L?0180
  C:5702H         SYMBOL        L?0181
  C:5709H         SYMBOL        L?0182
  C:570AH         SYMBOL        L?0183
  C:5740H         SYMBOL        L?0184
  C:5747H         SYMBOL        L?0185
  C:5748H         SYMBOL        L?0186
  C:5768H         SYMBOL        L?0187
  C:576FH         SYMBOL        L?0188
  C:5770H         SYMBOL        L?0189
  C:5774H         SYMBOL        L?0190
  C:577DH         SYMBOL        L?0191
  C:577DH         SYMBOL        L?0192
  C:5789H         SYMBOL        L?0193
  C:5790H         SYMBOL        L?0194
  C:57A0H         SYMBOL        L?0195
  C:57A7H         SYMBOL        L?0196
  C:57B7H         SYMBOL        L?0197
  C:57BEH         SYMBOL        L?0198
  C:57CEH         SYMBOL        L?0199
  C:57D5H         SYMBOL        L?0200
  C:57E1H         SYMBOL        L?0201
  C:57E8H         SYMBOL        L?0202
  C:57F4H         SYMBOL        L?0203
  C:57FBH         SYMBOL        L?0204
  C:5800H         SYMBOL        L?0205
  C:5807H         SYMBOL        L?0206
  C:580CH         SYMBOL        L?0207
  C:5813H         SYMBOL        L?0208
  C:5813H         SYMBOL        L?0209
  C:581BH         SYMBOL        L?0210
  C:581BH         SYMBOL        L?0211
  C:5823H         SYMBOL        L?0212
  C:582BH         SYMBOL        L?0213
  C:5837H         SYMBOL        L?0214
BL51 BANKED LINKER/LOCATER V6.22                                                      11/30/2015  09:53:45  PAGE 24


  C:5838H         SYMBOL        L?0215
  C:583FH         SYMBOL        L?0216
  C:5846H         SYMBOL        L?0219
  C:584DH         SYMBOL        L?0222
  C:5854H         SYMBOL        L?0224
  C:585BH         SYMBOL        L?0228
  C:5862H         SYMBOL        L?0229
  C:5863H         SYMBOL        L?0230
  C:5870H         SYMBOL        L?0232
  C:5880H         SYMBOL        L?0233
  C:5887H         SYMBOL        L?0235
  C:588EH         SYMBOL        L?0237
  C:5895H         SYMBOL        L?0242
  C:5895H         SYMBOL        L?0243
  C:5896H         SYMBOL        L?0244
  C:589EH         SYMBOL        L?0245
  C:589EH         SYMBOL        L?0246
  C:58A8H         SYMBOL        L?0247
  C:58B3H         SYMBOL        L?0249
  C:58BAH         SYMBOL        L?0250
  C:58BAH         SYMBOL        L?0251
  C:58C1H         SYMBOL        L?0252
  C:58C1H         SYMBOL        L?0253
  C:58CAH         SYMBOL        L?0255
  C:58D6H         SYMBOL        L?0258
  C:58D6H         SYMBOL        L?0259
  C:58DCH         SYMBOL        L?0260
  C:58E3H         SYMBOL        L?0261
  C:58E3H         SYMBOL        L?0262
  -------         PROC          COM00B2
  -------         ENDPROC       COM00B2
  -------         PROC          _PCT_GETFIRSTSTR
  X:01DDH         SYMBOL        tagStr
  X:01E0H         SYMBOL        sourceStr
  C:8B78H         LINE#         88
  C:8B7EH         LINE#         89
  C:8B7EH         LINE#         90
  C:8B89H         LINE#         91
  C:8BA0H         LINE#         92
  C:8BB8H         LINE#         93
  C:8BBAH         LINE#         94
  C:8BBAH         LINE#         95
  C:8BC7H         LINE#         96
  C:8BCBH         LINE#         97
  C:8BD4H         LINE#         98
  C:8BD7H         LINE#         99
  C:8BDAH         LINE#         100
  C:8BDDH         LINE#         101
  C:8BE6H         LINE#         102
  -------         ENDPROC       _PCT_GETFIRSTSTR
  -------         PROC          _PCT_STRTOCOMMCODE
  X:01DDH         SYMBOL        Str
  -------         DO            
  D:002FH         SYMBOL        ret
  -------         ENDDO         
  C:99F5H         LINE#         112
  C:99FBH         LINE#         113
BL51 BANKED LINKER/LOCATER V6.22                                                      11/30/2015  09:53:45  PAGE 25


  C:99FBH         LINE#         114
  C:9A00H         LINE#         116
  C:9A2DH         LINE#         117
  C:9A31H         LINE#         118
  -------         ENDPROC       _PCT_STRTOCOMMCODE
  -------         PROC          PCT_SENDACK
  C:A63AH         LINE#         124
  C:A63AH         LINE#         125
  C:A63AH         LINE#         131
  -------         ENDPROC       PCT_SENDACK
  -------         PROC          _PCT_CHECKVMIXTYPE
  D:0007H         SYMBOL        _typ
  -------         DO            
  D:0032H         SYMBOL        tmplktp
  -------         ENDDO         
  C:9516H         LINE#         143
  C:9516H         LINE#         144
  C:9516H         LINE#         145
  C:9519H         LINE#         147
  C:951FH         LINE#         148
  C:9526H         LINE#         149
  C:952CH         LINE#         150
  C:9538H         LINE#         152
  C:9546H         LINE#         153
  C:954CH         LINE#         155
  C:954CH         LINE#         156
  C:9552H         LINE#         157
  C:9558H         LINE#         158
  C:955DH         LINE#         159
  -------         ENDPROC       _PCT_CHECKVMIXTYPE
  -------         PROC          _MONIREADPAGEBUFFER
  D:0001H         SYMBOL        szParam
  -------         DO            
  D:0046H         SYMBOL        page
  D:0047H         SYMBOL        start
  D:0048H         SYMBOL        end
  -------         ENDDO         
  C:95A6H         LINE#         170
  C:95A6H         LINE#         171
  C:95A6H         LINE#         174
  C:95CBH         LINE#         176
  C:95CBH         LINE#         177
  C:95E5H         LINE#         178
  C:95E7H         LINE#         179
  C:95ECH         LINE#         180
  -------         ENDPROC       _MONIREADPAGEBUFFER
  -------         PROC          _MONIREADONEBUFFER
  D:0001H         SYMBOL        szParam
  -------         DO            
  D:004FH         SYMBOL        page
  D:0050H         SYMBOL        addr
  -------         ENDDO         
  C:9BCCH         LINE#         186
  C:9BCCH         LINE#         187
  C:9BCCH         LINE#         190
  C:9BE9H         LINE#         192
  -------         ENDPROC       _MONIREADONEBUFFER
BL51 BANKED LINKER/LOCATER V6.22                                                      11/30/2015  09:53:45  PAGE 26


  -------         PROC          _MONIWRITEONEBUFFER
  D:0001H         SYMBOL        szParam
  -------         DO            
  D:0049H         SYMBOL        page
  D:004AH         SYMBOL        addr
  D:004BH         SYMBOL        dat
  -------         ENDDO         
  C:9D47H         LINE#         199
  C:9D47H         LINE#         200
  C:9D47H         LINE#         203
  C:9D6CH         LINE#         204
  -------         ENDPROC       _MONIWRITEONEBUFFER
  -------         PROC          _MONIWRITEASICBYTE
  D:0001H         SYMBOL        szParam
  -------         DO            
  D:002FH         SYMBOL        _dev
  D:0030H         SYMBOL        _pg
  D:0031H         SYMBOL        _addr
  D:0032H         SYMBOL        _wdat
  -------         ENDDO         
  C:9309H         LINE#         211
  C:9309H         LINE#         212
  C:9309H         LINE#         213
  C:930CH         LINE#         214
  C:930EH         LINE#         215
  C:9310H         LINE#         216
  C:9312H         LINE#         218
  C:9347H         LINE#         219
  -------         ENDPROC       _MONIWRITEASICBYTE
  -------         PROC          _MONIREADASICBYTE
  D:0001H         SYMBOL        szParam
  -------         DO            
  D:001CH         SYMBOL        _dev
  D:001DH         SYMBOL        _pg
  D:001EH         SYMBOL        _addr
  D:001FH         SYMBOL        _rdat
  -------         ENDDO         
  C:955EH         LINE#         226
  C:955EH         LINE#         227
  C:955EH         LINE#         228
  C:9561H         LINE#         229
  C:9563H         LINE#         230
  C:9565H         LINE#         231
  C:9567H         LINE#         233
  C:958CH         LINE#         234
  C:9597H         LINE#         235
  -------         ENDPROC       _MONIREADASICBYTE
  C:686CH         SYMBOL        L?0217
  C:6882H         SYMBOL        L?0225
  C:6898H         SYMBOL        L?0227
  -------         PROC          _MONIAUDIOMIXING
  X:038AH         SYMBOL        szParam
  -------         DO            
  D:0008H         SYMBOL        selch0
  D:0009H         SYMBOL        selch1
  D:000AH         SYMBOL        selch2
  D:000BH         SYMBOL        selch3
BL51 BANKED LINKER/LOCATER V6.22                                                      11/30/2015  09:53:45  PAGE 27


  D:000CH         SYMBOL        selch4
  D:000DH         SYMBOL        valch0
  D:000EH         SYMBOL        valch1
  D:000FH         SYMBOL        valch2
  D:0010H         SYMBOL        valch3
  D:0011H         SYMBOL        valch4
  X:038DH         SYMBOL        getStr
  C:56C6H         SYMBOL        chaddr
  -------         ENDDO         
  C:6743H         LINE#         243
  C:6746H         LINE#         244
  C:6746H         LINE#         255
  C:6759H         LINE#         257
  C:6761H         LINE#         263
  C:6788H         LINE#         264
  C:6788H         LINE#         265
  C:6799H         LINE#         266
  C:67A2H         LINE#         267
  C:67A8H         LINE#         268
  C:67ABH         LINE#         270
  C:67ABH         LINE#         271
  C:67C9H         LINE#         273
  C:67C9H         LINE#         274
  C:67CCH         LINE#         275
  C:67CFH         LINE#         276
  C:67D2H         LINE#         278
  C:67D2H         LINE#         279
  C:67E6H         LINE#         281
  C:67E6H         LINE#         282
  C:67E9H         LINE#         283
  C:67EDH         LINE#         284
  C:67F0H         LINE#         285
  C:67F3H         LINE#         287
  C:67F3H         LINE#         288
  C:680AH         LINE#         290
  C:680AH         LINE#         291
  C:680AH         LINE#         292
  C:680AH         LINE#         293
  C:680DH         LINE#         295
  C:6815H         LINE#         296
  C:6818H         LINE#         298
  C:6818H         LINE#         299
  C:6840H         LINE#         301
  C:6840H         LINE#         302
  C:6840H         LINE#         303
  C:6840H         LINE#         304
  C:6848H         LINE#         305
  C:6851H         LINE#         307
  C:686BH         LINE#         308
  C:686BH         LINE#         310
  C:686BH         LINE#         311
  C:686BH         LINE#         312
  C:686BH         LINE#         313
  -------         ENDPROC       _MONIAUDIOMIXING
  -------         PROC          MONIAUDIOMUTE
  C:A4D9H         LINE#         320
  C:A4D9H         LINE#         321
BL51 BANKED LINKER/LOCATER V6.22                                                      11/30/2015  09:53:45  PAGE 28


  C:A4D9H         LINE#         322
  C:A4E1H         LINE#         327
  -------         ENDPROC       MONIAUDIOMUTE
  C:721AH         SYMBOL        L?0221
  C:7234H         SYMBOL        L?0248
  C:7245H         SYMBOL        L?0263
  -------         PROC          _MONIAUDIOGAIN
  X:0390H         SYMBOL        szParam
  -------         DO            
  D:0012H         SYMBOL        selch0
  D:0013H         SYMBOL        selch1
  D:0014H         SYMBOL        selch2
  D:0015H         SYMBOL        selch3
  D:0016H         SYMBOL        selch4
  D:0017H         SYMBOL        ch0val
  D:0018H         SYMBOL        ch1val
  D:0019H         SYMBOL        ch2val
  D:001AH         SYMBOL        ch3val
  D:001BH         SYMBOL        ch4val
  X:0393H         SYMBOL        getStr
  -------         ENDDO         
  C:710BH         LINE#         335
  C:710EH         LINE#         336
  C:710EH         LINE#         341
  C:7121H         LINE#         343
  C:7148H         LINE#         344
  C:7148H         LINE#         345
  C:715EH         LINE#         346
  C:7162H         LINE#         347
  C:7165H         LINE#         349
  C:7165H         LINE#         350
  C:7188H         LINE#         352
  C:7188H         LINE#         353
  C:718BH         LINE#         354
  C:718EH         LINE#         356
  C:718EH         LINE#         357
  C:71A6H         LINE#         359
  C:71A6H         LINE#         360
  C:71A6H         LINE#         361
  C:71A9H         LINE#         362
  C:71ACH         LINE#         364
  C:71ACH         LINE#         365
  C:71C7H         LINE#         367
  C:71C7H         LINE#         368
  C:71C7H         LINE#         369
  C:71CAH         LINE#         370
  C:71CDH         LINE#         371
  C:71D0H         LINE#         373
  C:71D0H         LINE#         374
  C:71FCH         LINE#         376
  C:71FCH         LINE#         377
  C:7204H         LINE#         378
  C:7208H         LINE#         379
  C:7210H         LINE#         380
  C:7219H         LINE#         381
  C:7219H         LINE#         383
  C:7219H         LINE#         384
BL51 BANKED LINKER/LOCATER V6.22                                                      11/30/2015  09:53:45  PAGE 29


  C:7219H         LINE#         385
  C:7219H         LINE#         386
  -------         ENDPROC       _MONIAUDIOGAIN
  -------         PROC          _MONIAUDIOLIVE
  D:0001H         SYMBOL        szParam
  -------         DO            
  D:005DH         SYMBOL        chan
  -------         ENDDO         
  C:A3F9H         LINE#         393
  C:A3F9H         LINE#         394
  C:A3F9H         LINE#         397
  C:A406H         LINE#         399
  -------         ENDPROC       _MONIAUDIOLIVE
  -------         PROC          MONIREGISTERDUMP
  -------         DO            
  D:0051H         SYMBOL        addr
  D:0052H         SYMBOL        page
  -------         ENDDO         
  C:93A2H         LINE#         406
  C:93A2H         LINE#         407
  C:93A2H         LINE#         411
  C:93A5H         LINE#         412
  C:93B4H         LINE#         413
  C:93B7H         LINE#         414
  C:93B7H         LINE#         415
  C:93CEH         LINE#         416
  C:93D0H         LINE#         417
  C:93DFH         LINE#         418
  C:93E3H         LINE#         419
  C:93ECH         LINE#         420
  -------         ENDPROC       MONIREGISTERDUMP
  -------         PROC          _MONIVIDEOMIXWIN
  D:0001H         SYMBOL        szParam
  -------         DO            
  D:0053H         SYMBOL        chose
  D:0054H         SYMBOL        wintp
  -------         ENDDO         
  C:91BCH         LINE#         426
  C:91BCH         LINE#         427
  C:91BCH         LINE#         430
  C:91FEH         LINE#         432
  C:920BH         LINE#         433
  -------         ENDPROC       _MONIVIDEOMIXWIN
  C:5ABFH         SYMBOL        L?0220
  C:5AC6H         SYMBOL        L?0223
  C:5ACDH         SYMBOL        L?0226
  C:5AD4H         SYMBOL        L?0234
  C:5ADBH         SYMBOL        L?0236
  C:5AE2H         SYMBOL        L?0239
  C:5AF3H         SYMBOL        L?0241
  C:5AFAH         SYMBOL        L?0254
  -------         PROC          _MONIVIDEOMIXATTR
  X:0396H         SYMBOL        szParam
  -------         DO            
  D:0025H         SYMBOL        chose
  D:0027H         SYMBOL        attrsel
  D:0028H         SYMBOL        setval
BL51 BANKED LINKER/LOCATER V6.22                                                      11/30/2015  09:53:45  PAGE 30


  D:0029H         SYMBOL        winNm
  D:002DH         SYMBOL        wincnt
  D:002EH         SYMBOL        division
  X:0399H         SYMBOL        getStr
  -------         ENDDO         
  C:58EAH         LINE#         443
  C:58F0H         LINE#         444
  C:58F0H         LINE#         447
  C:58F3H         LINE#         451
  C:5909H         LINE#         452
  C:5914H         LINE#         454
  C:591AH         LINE#         455
  C:5927H         LINE#         457
  C:5935H         LINE#         458
  C:5938H         LINE#         459
  C:5938H         LINE#         460
  C:5949H         LINE#         461
  C:594CH         LINE#         462
  C:594CH         LINE#         463
  C:595DH         LINE#         464
  C:5960H         LINE#         465
  C:5960H         LINE#         466
  C:5970H         LINE#         467
  C:5973H         LINE#         468
  C:5973H         LINE#         469
  C:5983H         LINE#         470
  C:5986H         LINE#         471
  C:5986H         LINE#         472
  C:5996H         LINE#         473
  C:5999H         LINE#         474
  C:5999H         LINE#         475
  C:59A9H         LINE#         476
  C:59ACH         LINE#         477
  C:59ACH         LINE#         478
  C:59BCH         LINE#         479
  C:59BFH         LINE#         480
  C:59C2H         LINE#         481
  C:59D3H         LINE#         482
  C:59D6H         LINE#         483
  C:59D6H         LINE#         484
  C:59E7H         LINE#         485
  C:59EAH         LINE#         486
  C:59EAH         LINE#         487
  C:59FAH         LINE#         488
  C:59FDH         LINE#         489
  C:59FDH         LINE#         490
  C:5A0DH         LINE#         491
  C:5A10H         LINE#         492
  C:5A10H         LINE#         493
  C:5A20H         LINE#         494
  C:5A23H         LINE#         495
  C:5A23H         LINE#         496
  C:5A33H         LINE#         497
  C:5A36H         LINE#         498
  C:5A36H         LINE#         499
  C:5A49H         LINE#         500
  C:5A4CH         LINE#         501
BL51 BANKED LINKER/LOCATER V6.22                                                      11/30/2015  09:53:45  PAGE 31


  C:5A4FH         LINE#         502
  C:5A64H         LINE#         503
  C:5A67H         LINE#         504
  C:5A69H         LINE#         505
  C:5A69H         LINE#         507
  C:5A69H         LINE#         509
  C:5A72H         LINE#         510
  C:5A90H         LINE#         511
  C:5A90H         LINE#         512
  C:5AA1H         LINE#         513
  C:5AA3H         LINE#         514
  C:5AA3H         LINE#         515
  C:5AA5H         LINE#         516
  C:5AA9H         LINE#         517
  C:5AB3H         LINE#         518
  C:5ABAH         LINE#         519
  C:5ABAH         LINE#         520
  C:5ABEH         LINE#         521
  -------         ENDPROC       _MONIVIDEOMIXATTR
  -------         PROC          _MONIYVIDEOMIX
  D:0001H         SYMBOL        szParam
  -------         DO            
  D:002FH         SYMBOL        chan
  -------         ENDDO         
  C:A483H         LINE#         528
  C:A483H         LINE#         529
  C:A483H         LINE#         532
  C:A490H         LINE#         533
  -------         ENDPROC       _MONIYVIDEOMIX
  -------         PROC          MONIVIDEOAUTODETECT
  C:9AE7H         LINE#         540
  C:9AE7H         LINE#         541
  C:9AE7H         LINE#         542
  -------         ENDPROC       MONIVIDEOAUTODETECT
  C:7923H         SYMBOL        L?0218
  C:7941H         SYMBOL        L?0256
  -------         PROC          _MONISETVIDEOFORMAT
  X:039CH         SYMBOL        szParam
  -------         DO            
  D:0038H         SYMBOL        selch0
  D:0039H         SYMBOL        selch1
  D:003AH         SYMBOL        selch2
  D:003BH         SYMBOL        selch3
  D:003CH         SYMBOL        valch0
  D:003DH         SYMBOL        valch1
  D:003EH         SYMBOL        valch2
  D:003FH         SYMBOL        valch3
  X:039FH         SYMBOL        getStr
  -------         ENDDO         
  C:7830H         LINE#         554
  C:7833H         LINE#         555
  C:7833H         LINE#         560
  C:7846H         LINE#         562
  C:7867H         LINE#         563
  C:7867H         LINE#         564
  C:787FH         LINE#         565
  C:7882H         LINE#         566
BL51 BANKED LINKER/LOCATER V6.22                                                      11/30/2015  09:53:45  PAGE 32


  C:7885H         LINE#         568
  C:7885H         LINE#         569
  C:789DH         LINE#         571
  C:78A5H         LINE#         572
  C:78ADH         LINE#         573
  C:78B0H         LINE#         575
  C:78B0H         LINE#         576
  C:78CBH         LINE#         578
  C:78CBH         LINE#         579
  C:78CEH         LINE#         580
  C:78D6H         LINE#         581
  C:78D9H         LINE#         583
  C:78D9H         LINE#         584
  C:7905H         LINE#         586
  C:7905H         LINE#         587
  C:7908H         LINE#         588
  C:7915H         LINE#         589
  C:7922H         LINE#         590
  C:7922H         LINE#         592
  C:7922H         LINE#         593
  C:7922H         LINE#         594
  C:7922H         LINE#         595
  -------         ENDPROC       _MONISETVIDEOFORMAT
  C:8FD5H         SYMBOL        L?0240
  -------         PROC          _MONISHOWSODSTR
  X:03A2H         SYMBOL        szParam
  -------         DO            
  D:0055H         SYMBOL        addrx
  D:0056H         SYMBOL        addry
  X:03A5H         SYMBOL        getStr
  -------         ENDDO         
  C:8F88H         LINE#         601
  C:8F8BH         LINE#         602
  C:8F8BH         LINE#         606
  C:8F8EH         LINE#         607
  C:8F99H         LINE#         608
  C:8F9CH         LINE#         609
  C:8FA7H         LINE#         611
  C:8FACH         LINE#         612
  C:8FB1H         LINE#         613
  C:8FB6H         LINE#         614
  C:8FD0H         LINE#         615
  C:8FD5H         LINE#         616
  -------         ENDPROC       _MONISHOWSODSTR
  -------         PROC          PCT_AUDIOACTIONFORHS
  -------         DO            
  D:0057H         SYMBOL        winid
  D:0058H         SYMBOL        muteFlage
  -------         ENDDO         
  C:95EDH         LINE#         622
  C:95EDH         LINE#         623
  C:95EDH         LINE#         625
  C:95F0H         LINE#         628
  C:95F3H         LINE#         629
  C:9602H         LINE#         630
  C:9614H         LINE#         631
  C:9617H         LINE#         632
BL51 BANKED LINKER/LOCATER V6.22                                                      11/30/2015  09:53:45  PAGE 33


  C:9617H         LINE#         633
  C:9620H         LINE#         635
  C:9624H         LINE#         637
  C:962CH         LINE#         642
  C:9633H         LINE#         643
  C:9633H         LINE#         645
  -------         ENDPROC       PCT_AUDIOACTIONFORHS
  -------         PROC          _MONIHSCOMM
  D:0001H         SYMBOL        szParam
  -------         DO            
  D:002FH         SYMBOL        winid
  D:0030H         SYMBOL        chose
  D:0031H         SYMBOL        wintp
  -------         ENDDO         
  C:6FBDH         LINE#         652
  C:6FBDH         LINE#         656
  C:7027H         LINE#         659
  C:7043H         LINE#         663
  C:704DH         LINE#         664
  C:7057H         LINE#         665
  C:7062H         LINE#         666
  C:706DH         LINE#         668
  C:7078H         LINE#         669
  C:7083H         LINE#         670
  C:708EH         LINE#         671
  C:7099H         LINE#         678
  C:70A2H         LINE#         679
  C:70ABH         LINE#         682
  C:70B6H         LINE#         685
  C:70B9H         LINE#         686
  C:70D5H         LINE#         691
  C:70DAH         LINE#         692
  C:70DFH         LINE#         693
  C:70E4H         LINE#         695
  C:70ECH         LINE#         696
  C:70F1H         LINE#         697
  C:70F6H         LINE#         698
  C:70F9H         LINE#         699
  C:7102H         LINE#         700
  C:710AH         LINE#         718
  -------         ENDPROC       _MONIHSCOMM
  -------         PROC          PCT_CHECKSYSTEM
  -------         DO            
  D:0007H         SYMBOL        TempSystem
  -------         ENDDO         
  C:8CBDH         LINE#         725
  C:8CBDH         LINE#         726
  C:8CBDH         LINE#         729
  C:8CC2H         LINE#         731
  C:8CC6H         LINE#         732
  C:8CC8H         LINE#         733
  C:8CCFH         LINE#         734
  C:8CD1H         LINE#         735
  C:8CD6H         LINE#         738
  C:8CE6H         LINE#         740
  C:8CEBH         LINE#         744
  C:8CF3H         LINE#         745
BL51 BANKED LINKER/LOCATER V6.22                                                      11/30/2015  09:53:45  PAGE 34


  C:8CFCH         LINE#         746
  C:8D05H         LINE#         748
  C:8D10H         LINE#         752
  C:8D15H         LINE#         753
  C:8D18H         LINE#         754
  C:8D21H         LINE#         755
  C:8D24H         LINE#         758
  C:8D25H         LINE#         759
  -------         ENDPROC       PCT_CHECKSYSTEM
  -------         PROC          _MONIHSCOMMSJMODE
  D:0001H         SYMBOL        szParam
  C:A3B8H         LINE#         766
  C:A3B8H         LINE#         767
  C:A3B8H         LINE#         768
  -------         ENDPROC       _MONIHSCOMMSJMODE
  -------         PROC          MONIHSCOMMDISSCROLL
  C:0026H         LINE#         775
  C:0026H         LINE#         776
  C:0026H         LINE#         777
  -------         ENDPROC       MONIHSCOMMDISSCROLL
  -------         PROC          MONIHSCOMMVERSION
  C:A45DH         LINE#         784
  C:A45DH         LINE#         785
  C:A45DH         LINE#         786
  C:A466H         LINE#         787
  -------         ENDPROC       MONIHSCOMMVERSION
  C:7C2DH         SYMBOL        L?0231
  C:7C37H         SYMBOL        L?0238
  C:7C40H         SYMBOL        L?0257
  -------         PROC          _PCT_RUNCOMMSHELL
  X:01D5H         SYMBOL        strptr
  -------         DO            
  X:01D8H         SYMBOL        commcode
  X:01DAH         SYMBOL        getStr
  -------         ENDDO         
  C:7B5AH         LINE#         795
  C:7B5DH         LINE#         796
  C:7B5DH         LINE#         812
  C:7B70H         LINE#         815
  C:7B81H         LINE#         831
  C:7B90H         LINE#         834
  C:7B99H         LINE#         836
  C:7B9CH         LINE#         889
  C:7BABH         LINE#         891
  C:7BABH         LINE#         893
  C:7BB4H         LINE#         895
  C:7BB7H         LINE#         917
  C:7BC7H         LINE#         918
  C:7BC7H         LINE#         920
  C:7BD0H         LINE#         923
  C:7BD3H         LINE#         924
  C:7BD8H         LINE#         937
  C:7BEAH         LINE#         938
  C:7BEAH         LINE#         940
  C:7BF3H         LINE#         941
  C:7BF5H         LINE#         955
  C:7C05H         LINE#         956
BL51 BANKED LINKER/LOCATER V6.22                                                      11/30/2015  09:53:45  PAGE 35


  C:7C05H         LINE#         958
  C:7C0DH         LINE#         963
  C:7C0FH         LINE#         964
  C:7C1FH         LINE#         965
  C:7C1FH         LINE#         967
  C:7C22H         LINE#         968
  C:7C2AH         LINE#         975
  C:7C2AH         LINE#         1005
  C:7C2AH         LINE#         1006
  C:7C2AH         LINE#         1011
  C:7C2CH         LINE#         1012
  -------         ENDPROC       _PCT_RUNCOMMSHELL
  -------         ENDMOD        COMMANDSHELL

  -------         MODULE        MAIN
  C:0000H         SYMBOL        _ICE_DUMMY_
  C:9CDDH         PUBLIC        _PutsP
  D:0094H         PUBLIC        P0M1
  D:0091H         PUBLIC        P1M0
  D:00F6H         PUBLIC        PCAPWM4
  D:0095H         PUBLIC        P2M0
  D:0092H         PUBLIC        P1M1
  D:00F7H         PUBLIC        PCAPWM5
  D:0080H         PUBLIC        P0
  D:00B1H         PUBLIC        P3M0
  D:0096H         PUBLIC        P2M1
  D:0090H         PUBLIC        P1
  X:02F3H         PUBLIC        CB_flag
  D:00B2H         PUBLIC        P3M1
  D:00B3H         PUBLIC        P4M0
  D:00A0H         PUBLIC        P2
  D:00B4H         PUBLIC        P4M1
  D:00C0H         PUBLIC        XICON
  D:00B0H         PUBLIC        P3
  D:00E8H         PUBLIC        P4
  X:02F4H         PUBLIC        Temp_timeout
  D:00E1H         PUBLIC        WDTCR
  B:00A8H.7       PUBLIC        EA
  X:02F5H         PUBLIC        RScommand
  D:00F9H         PUBLIC        CH
  C:A4E8H         PUBLIC        PWM_init
  D:00A8H         PUBLIC        IE
  D:00E9H         PUBLIC        CL
  D:00FAH         PUBLIC        CCAP0H
  B:0090H.1       PUBLIC        P1_1
  D:00FBH         PUBLIC        CCAP1H
  B:0090H.2       PUBLIC        P1_2
  D:00FCH         PUBLIC        CCAP2H
  B:0090H.3       PUBLIC        P1_3
  D:00FDH         PUBLIC        CCAP3H
  B:00E8H.1       PUBLIC        P4_1
  B:0090H.4       PUBLIC        P1_4
  D:00FEH         PUBLIC        CCAP4H
  D:00EAH         PUBLIC        CCAP0L
  B:0090H.5       PUBLIC        P1_5
  D:00FFH         PUBLIC        CCAP5H
  D:00EBH         PUBLIC        CCAP1L
BL51 BANKED LINKER/LOCATER V6.22                                                      11/30/2015  09:53:45  PAGE 36


  D:00DAH         PUBLIC        CCAPM0
  B:0024H.1       PUBLIC        VlossFlag
  B:0090H.6       PUBLIC        P1_6
  D:00ECH         PUBLIC        CCAP2L
  D:00DBH         PUBLIC        CCAPM1
  B:0090H.7       PUBLIC        P1_7
  D:00EDH         PUBLIC        CCAP3L
  D:00DCH         PUBLIC        CCAPM2
  D:00EEH         PUBLIC        CCAP4L
  D:00DDH         PUBLIC        CCAPM3
  D:00B8H         PUBLIC        IP
  D:00EFH         PUBLIC        CCAP5L
  D:00DEH         PUBLIC        CCAPM4
  C:4E35H         PUBLIC        _Monitor_set
  D:00DFH         PUBLIC        CCAPM5
  B:0098H.1       PUBLIC        TI
  C:9ECCH         PUBLIC        _PWM_set
  X:0320H         PUBLIC        SC16_com_state
  D:00D9H         PUBLIC        CMOD
  D:00D8H         PUBLIC        CCON
  C:6CFBH         PUBLIC        main
  C:A17CH         PUBLIC        ResetCommSell
  D:0020H         PUBLIC        commFlag
  X:0321H         PUBLIC        timerout1
  B:0024H.2       PUBLIC        data_chk_flag
  X:0323H         PUBLIC        timerout2
  D:0087H         PUBLIC        PCON
  X:0325H         PUBLIC        timerout3
  X:0327H         PUBLIC        timerout4
  X:0329H         PUBLIC        boot_flag
  D:00C0H         PUBLIC        WDTC
  D:0098H         PUBLIC        SCON
  D:0089H         PUBLIC        TMOD
  D:0088H         PUBLIC        TCON
  C:A5B7H         PUBLIC        NewLine
  C:A5C0H         PUBLIC        _PCT_FlashOSDCtrl
  C:7E01H         PUBLIC        CommandShell
  D:008EH         PUBLIC        AUXR
  X:032AH         PUBLIC        work_flag
  X:032BH         PUBLIC        Small_f
  C:9438H         PUBLIC        InitialMPU
  C:5CFFH         SYMBOL        _?ix1000
  B:0020H.0       PUBLIC        comm_chk_flag
  C:5DEEH         SYMBOL        _?ix1010
  C:5D05H         SYMBOL        _?ix1001
  C:5E14H         SYMBOL        _?ix1011
  C:5D13H         SYMBOL        _?ix1002
  C:5E3AH         SYMBOL        _?ix1012
  C:5D21H         SYMBOL        _?ix1003
  C:5E60H         SYMBOL        _?ix1013
  C:5D29H         SYMBOL        _?ix1004
  C:5E86H         SYMBOL        _?ix1014
  C:5D30H         SYMBOL        _?ix1005
  C:5EACH         SYMBOL        _?ix1015
  C:5D56H         SYMBOL        _?ix1006
  C:5D7CH         SYMBOL        _?ix1007
  C:5DA2H         SYMBOL        _?ix1008
BL51 BANKED LINKER/LOCATER V6.22                                                      11/30/2015  09:53:45  PAGE 37


  C:5DC8H         SYMBOL        _?ix1009
  C:9212H         PUBLIC        Version_check
  X:032CH         PUBLIC        Main_f
  X:032DH         PUBLIC        ADC_Val
  C:9EF9H         PUBLIC        _chkStartCommShell
  X:0331H         PUBLIC        m_current
  C:92B9H         PUBLIC        _Wait_ms
  C:A576H         PUBLIC        InitialCommShell
  D:00F8H         PUBLIC        IPA
  B:0020H.1       PUBLIC        osd_chk_flag
  X:0332H         PUBLIC        PIP_flag
  D:00C8H         PUBLIC        T2CON
  X:0333H         PUBLIC        CB_timeout
  C:7712H         PUBLIC        Press_check
  X:0334H         PUBLIC        _delay
  D:00A2H         PUBLIC        AUXR1
  X:0336H         PUBLIC        timer2_loop
  D:00A6H         PUBLIC        AUXR2
  C:7FA9H         PUBLIC        _Set_PWM_Output
  C:8FE9H         PUBLIC        Camera_Version_check
  C:9109H         PUBLIC        Temp_check
  D:00F2H         PUBLIC        PCAPWM0
  D:00D0H         PUBLIC        PSW
  D:00F3H         PUBLIC        PCAPWM1
  D:00F4H         PUBLIC        PCAPWM2
  D:0093H         PUBLIC        P0M0
  D:00F5H         PUBLIC        PCAPWM3
  C:7EDAH         SYMBOL        Com00B7
  C:7EDAH         SYMBOL        L?0184
  C:7EDEH         SYMBOL        L?0185
  C:7EE5H         SYMBOL        L?0187
  C:7EEAH         SYMBOL        L?0188
  C:7EEDH         SYMBOL        L?0189
  C:7EF5H         SYMBOL        L?0190
  C:7EF5H         SYMBOL        L?0191
  C:7F01H         SYMBOL        L?0192
  C:7F0BH         SYMBOL        L?0193
  C:7F11H         SYMBOL        L?0194
  C:7F11H         SYMBOL        L?0195
  C:7F1AH         SYMBOL        L?0196
  C:7F23H         SYMBOL        L?0197
  C:7F25H         SYMBOL        L?0198
  C:7F35H         SYMBOL        L?0199
  C:7F36H         SYMBOL        L?0200
  C:7F3DH         SYMBOL        L?0201
  C:7F52H         SYMBOL        L?0202
  C:7F5DH         SYMBOL        L?0203
  C:7F5DH         SYMBOL        L?0204
  C:7F67H         SYMBOL        L?0205
  C:7F6AH         SYMBOL        L?0206
  C:7F70H         SYMBOL        L?0207
  C:7F7DH         SYMBOL        L?0208
  C:7F7DH         SYMBOL        L?0209
  C:7F85H         SYMBOL        L?0210
  C:7F91H         SYMBOL        L?0211
  C:7F9BH         SYMBOL        L?0212
  C:7F9BH         SYMBOL        L?0213
BL51 BANKED LINKER/LOCATER V6.22                                                      11/30/2015  09:53:45  PAGE 38


  C:7FA2H         SYMBOL        L?0214
  C:7FA2H         SYMBOL        L?0215
  -------         PROC          COM00B7
  -------         ENDPROC       COM00B7
  -------         PROC          COMMANDSHELL
  -------         DO            
  D:002FH         SYMBOL        ch
  X:02F2H         SYMBOL        etx_flag
  -------         ENDDO         
  C:7E01H         LINE#         138
  C:7E01H         LINE#         139
  C:7E01H         LINE#         144
  C:7E0CH         LINE#         145
  C:7E0CH         LINE#         147
  C:7E0FH         LINE#         148
  C:7E14H         LINE#         156
  C:7E1FH         LINE#         157
  C:7E1FH         LINE#         158
  C:7E24H         LINE#         160
  C:7E2AH         LINE#         165
  C:7E30H         LINE#         166
  C:7E31H         LINE#         168
  C:7E54H         LINE#         169
  C:7E54H         LINE#         170
  C:7E5AH         LINE#         171
  C:7E5DH         LINE#         172
  C:7E60H         LINE#         173
  C:7E61H         LINE#         174
  C:7E6CH         LINE#         175
  C:7E6CH         LINE#         177
  C:7E72H         LINE#         178
  C:7E75H         LINE#         179
  C:7E7BH         LINE#         180
  C:7E80H         LINE#         185
  C:7E81H         LINE#         186
  C:7E89H         LINE#         187
  C:7E89H         LINE#         189
  C:7E92H         LINE#         199
  C:7EA0H         LINE#         200
  C:7EA0H         LINE#         201
  C:7EA6H         LINE#         203
  C:7EAEH         LINE#         204
  C:7EB1H         LINE#         206
  C:7EB9H         LINE#         208
  C:7EBFH         LINE#         209
  C:7EC0H         LINE#         217
  C:7EC0H         LINE#         218
  C:7EC6H         LINE#         219
  C:7EC9H         LINE#         220
  C:7ED2H         LINE#         225
  C:7ED2H         LINE#         266
  C:7ED2H         LINE#         268
  C:7ED2H         LINE#         269
  C:7ED9H         LINE#         270
  C:7ED9H         LINE#         274
  -------         ENDPROC       COMMANDSHELL
  -------         PROC          NEWLINE
BL51 BANKED LINKER/LOCATER V6.22                                                      11/30/2015  09:53:45  PAGE 39


  C:A5B7H         LINE#         281
  C:A5B7H         LINE#         282
  C:A5B7H         LINE#         283
  -------         ENDPROC       NEWLINE
  -------         PROC          _PUTSP
  X:03C3H         SYMBOL        ptr
  -------         DO            
  D:005EH         SYMBOL        ch
  -------         ENDDO         
  C:9CDDH         LINE#         290
  C:9CE8H         LINE#         291
  C:9CE8H         LINE#         294
  C:9CF8H         LINE#         295
  C:9D0BH         LINE#         296
  C:9D0FH         LINE#         297
  C:9D11H         LINE#         298
  -------         ENDPROC       _PUTSP
  -------         PROC          RESETCOMMSELL
  C:A17CH         LINE#         304
  C:A17CH         LINE#         305
  C:A17CH         LINE#         308
  C:A181H         LINE#         309
  C:A185H         LINE#         310
  C:A189H         LINE#         311
  C:A18CH         LINE#         312
  C:A18CH         LINE#         313
  C:A18CH         LINE#         314
  C:A18FH         LINE#         315
  C:A18FH         LINE#         316
  C:A18FH         LINE#         317
  C:A193H         LINE#         318
  C:A195H         LINE#         319
  C:A197H         LINE#         321
  C:A19BH         LINE#         322
  C:A19DH         LINE#         323
  C:A1A1H         LINE#         324
  -------         ENDPROC       RESETCOMMSELL
  -------         PROC          _PCT_FLASHOSDCTRL
  D:0007H         SYMBOL        _on
  C:A5C0H         LINE#         330
  C:A5C0H         LINE#         331
  C:A5C0H         LINE#         332
  C:A5C6H         LINE#         333
  C:A5C8H         LINE#         334
  -------         ENDPROC       _PCT_FLASHOSDCTRL
  -------         PROC          INITIALCOMMSHELL
  C:A576H         LINE#         341
  C:A576H         LINE#         342
  C:A576H         LINE#         343
  C:A578H         LINE#         344
  C:A57AH         LINE#         347
  C:A57CH         LINE#         348
  C:A581H         LINE#         349
  -------         ENDPROC       INITIALCOMMSHELL
  -------         PROC          _CHKSTARTCOMMSHELL
  X:03C6H         SYMBOL        ptr
  C:9EF9H         LINE#         355
BL51 BANKED LINKER/LOCATER V6.22                                                      11/30/2015  09:53:45  PAGE 40


  C:9F04H         LINE#         356
  C:9F04H         LINE#         357
  C:9F07H         LINE#         358
  C:9F24H         LINE#         359
  -------         ENDPROC       _CHKSTARTCOMMSHELL
  -------         PROC          _WAIT_MS
  X:01D5H         SYMBOL        Tms
  -------         DO            
  X:01D7H         SYMBOL        count
  -------         ENDDO         
  C:92B9H         LINE#         361
  C:92C1H         LINE#         363
  C:92C1H         LINE#         372
  C:92CBH         LINE#         374
  C:92CBH         LINE#         376
  C:92F8H         LINE#         378
  C:9306H         LINE#         380
  C:9308H         LINE#         381
  -------         ENDPROC       _WAIT_MS
  -------         PROC          MAIN
  -------         DO            
  X:0000H         SYMBOL        Counter
  X:0001H         SYMBOL        readtemp
  X:0003H         SYMBOL        OsdCount1
  X:0004H         SYMBOL        OsdCount2
  X:0005H         SYMBOL        Camera_speed
  -------         ENDDO         
  C:6CFBH         LINE#         389
  C:6CFBH         LINE#         390
  C:6CFBH         LINE#         391
  C:6CFEH         LINE#         392
  C:6CFEH         LINE#         393
  C:6D04H         LINE#         394
  C:6D08H         LINE#         395
  C:6D0BH         LINE#         409
  C:6D0EH         LINE#         410
  C:6D11H         LINE#         463
  C:6D14H         LINE#         464
  C:6D17H         LINE#         475
  C:6D1CH         LINE#         476
  C:6D1FH         LINE#         479
  C:6D24H         LINE#         495
  C:6D2AH         LINE#         496
  C:6D30H         LINE#         497
  C:6D3AH         LINE#         499
  C:6D40H         LINE#         500
  C:6D47H         LINE#         502
  C:6D57H         LINE#         504
  C:6D57H         LINE#         506
  C:6D5AH         LINE#         507
  C:6D67H         LINE#         508
  C:6D71H         LINE#         510
  C:6D74H         LINE#         511
  C:6D74H         LINE#         512
  C:6D79H         LINE#         513
  C:6D7BH         LINE#         514
  C:6D7BH         LINE#         518
BL51 BANKED LINKER/LOCATER V6.22                                                      11/30/2015  09:53:45  PAGE 41


  C:6D8AH         LINE#         522
  C:6D92H         LINE#         523
  C:6D92H         LINE#         527
  C:6D96H         LINE#         528
  C:6D9FH         LINE#         529
  C:6D9FH         LINE#         531
  C:6DADH         LINE#         532
  C:6DADH         LINE#         535
  C:6DB0H         LINE#         536
  C:6DB3H         LINE#         538
  C:6DBFH         LINE#         539
  C:6DBFH         LINE#         540
  C:6DC2H         LINE#         541
  C:6DC2H         LINE#         548
  C:6DC8H         LINE#         550
  C:6DC8H         LINE#         552
  C:6DD9H         LINE#         553
  C:6DD9H         LINE#         554
  C:6DDFH         LINE#         555
  C:6DE2H         LINE#         557
  C:6DE2H         LINE#         568
  C:6DF0H         LINE#         569
  C:6DF0H         LINE#         574
  C:6E09H         LINE#         575
  C:6E0FH         LINE#         576
  C:6E15H         LINE#         577
  C:6E1DH         LINE#         579
  C:6E1FH         LINE#         581
  C:6E22H         LINE#         584
  C:6E2EH         LINE#         585
  C:6E2EH         LINE#         586
  C:6E34H         LINE#         587
  C:6E3DH         LINE#         591
  C:6E3DH         LINE#         598
  C:6E49H         LINE#         599
  C:6E49H         LINE#         600
  C:6E51H         LINE#         601
  C:6E58H         LINE#         602
  C:6E58H         LINE#         604
  C:6E5BH         LINE#         625
  -------         ENDPROC       MAIN
  -------         PROC          INITIALMPU
  C:9438H         LINE#         641
  C:9438H         LINE#         643
  C:943BH         LINE#         644
  C:943DH         LINE#         648
  C:943FH         LINE#         651
  C:9442H         LINE#         653
  C:9444H         LINE#         654
  C:9447H         LINE#         659
  C:9449H         LINE#         667
  C:944CH         LINE#         668
  C:944FH         LINE#         669
  C:9452H         LINE#         674
  C:9455H         LINE#         675
  C:9457H         LINE#         676
  C:9459H         LINE#         677
BL51 BANKED LINKER/LOCATER V6.22                                                      11/30/2015  09:53:45  PAGE 42


  C:945BH         LINE#         678
  C:945CH         LINE#         734
  C:945EH         LINE#         735
  C:9460H         LINE#         737
  C:9463H         LINE#         738
  C:9466H         LINE#         740
  C:9468H         LINE#         741
  C:946AH         LINE#         743
  C:946CH         LINE#         744
  C:946EH         LINE#         746
  C:9470H         LINE#         747
  C:9473H         LINE#         748
  C:9475H         LINE#         751
  C:9477H         LINE#         752
  C:9479H         LINE#         753
  C:947BH         LINE#         754
  C:947DH         LINE#         755
  C:947FH         LINE#         756
  C:9481H         LINE#         760
  -------         ENDPROC       INITIALMPU
  -------         PROC          _SET_PWM_OUTPUT
  X:01DDH         SYMBOL        addr
  X:01DEH         SYMBOL        val
  -------         DO            
  X:01DFH         SYMBOL        num
  -------         ENDDO         
  C:7FA9H         LINE#         763
  C:7FB1H         LINE#         764
  C:7FB1H         LINE#         766
  C:7FBEH         LINE#         777
  C:7FDBH         LINE#         778
  C:7FDBH         LINE#         779
  C:7FDBH         LINE#         780
  C:7FDEH         LINE#         781
  C:7FE9H         LINE#         782
  C:7FECH         LINE#         784
  C:7FF1H         LINE#         785
  C:7FF4H         LINE#         786
  C:7FF5H         LINE#         787
  C:7FF5H         LINE#         788
  C:7FF8H         LINE#         789
  C:8003H         LINE#         790
  C:8006H         LINE#         792
  C:800BH         LINE#         793
  C:800EH         LINE#         794
  C:800FH         LINE#         795
  C:800FH         LINE#         796
  C:8012H         LINE#         797
  C:801DH         LINE#         798
  C:8020H         LINE#         800
  C:8025H         LINE#         801
  C:8028H         LINE#         802
  C:8029H         LINE#         803
  C:8029H         LINE#         804
  C:802CH         LINE#         805
  C:8037H         LINE#         806
  C:803AH         LINE#         808
BL51 BANKED LINKER/LOCATER V6.22                                                      11/30/2015  09:53:45  PAGE 43


  C:803FH         LINE#         809
  C:8042H         LINE#         810
  C:8043H         LINE#         811
  C:8043H         LINE#         812
  C:8046H         LINE#         813
  C:8051H         LINE#         814
  C:8054H         LINE#         816
  C:8059H         LINE#         817
  C:805CH         LINE#         818
  C:805DH         LINE#         819
  C:805DH         LINE#         820
  C:8060H         LINE#         821
  C:806BH         LINE#         822
  C:806EH         LINE#         824
  C:8073H         LINE#         825
  C:8076H         LINE#         826
  C:8076H         LINE#         827
  C:8076H         LINE#         828
  C:8076H         LINE#         829
  C:8076H         LINE#         832
  -------         ENDPROC       _SET_PWM_OUTPUT
  -------         PROC          PWM_INIT
  C:A4E8H         LINE#         835
  C:A4E8H         LINE#         836
  C:A4E8H         LINE#         838
  C:A4EBH         LINE#         839
  C:A4EDH         LINE#         840
  C:A4F0H         LINE#         843
  C:A4F3H         LINE#         851
  C:A4F6H         LINE#         888
  -------         ENDPROC       PWM_INIT
  C:513CH         SYMBOL        L?0186
  -------         PROC          _MONITOR_SET
  X:0006H         SYMBOL        val
  -------         DO            
  X:0007H         SYMBOL        busw1
  X:0015H         SYMBOL        busw2
  X:0023H         SYMBOL        yvmix
  X:002BH         SYMBOL        mode
  X:0032H         SYMBOL        conf1
  X:0058H         SYMBOL        conf2
  X:007EH         SYMBOL        conf3
  X:00A4H         SYMBOL        conf4
  X:00CAH         SYMBOL        conf5
  X:00F0H         SYMBOL        conf6
  X:0116H         SYMBOL        conf7
  X:013CH         SYMBOL        conf8
  X:0162H         SYMBOL        conf9
  X:0188H         SYMBOL        conf10
  X:01AEH         SYMBOL        conf11
  X:01D4H         SYMBOL        Error
  D:0007H         SYMBOL        ch
  -------         ENDDO         
  C:4E35H         LINE#         891
  C:4E3AH         LINE#         892
  C:4E3AH         LINE#         893
  C:4E45H         LINE#         894
BL51 BANKED LINKER/LOCATER V6.22                                                      11/30/2015  09:53:45  PAGE 44


  C:4E50H         LINE#         895
  C:4E63H         LINE#         896
  C:4E70H         LINE#         908
  C:4E7BH         LINE#         909
  C:4E86H         LINE#         910
  C:4E95H         LINE#         912
  C:4EA4H         LINE#         913
  C:4EB3H         LINE#         915
  C:4EC2H         LINE#         916
  C:4ED1H         LINE#         918
  C:4EE0H         LINE#         919
  C:4EEFH         LINE#         921
  C:4EFEH         LINE#         942
  C:4F0DH         LINE#         945
  C:4F12H         LINE#         946
  C:4F12H         LINE#         948
  C:4F1AH         LINE#         951
  C:4F1FH         LINE#         952
  C:4F25H         LINE#         954
  C:4F2AH         LINE#         958
  C:4F2FH         LINE#         960
  C:4F54H         LINE#         961
  C:4F54H         LINE#         962
  C:4F59H         LINE#         963
  C:4F60H         LINE#         964
  C:4F60H         LINE#         965
  C:4F64H         LINE#         966
  C:4F64H         LINE#         967
  C:4F66H         LINE#         968
  C:4F6BH         LINE#         969
  C:4F6BH         LINE#         970
  C:4F6DH         LINE#         971
  C:4F73H         LINE#         972
  C:4F79H         LINE#         973
  C:4F7BH         LINE#         974
  C:4F80H         LINE#         975
  C:4F85H         LINE#         976
  C:4F87H         LINE#         978
  C:4F87H         LINE#         979
  C:4F8DH         LINE#         980
  C:4F8FH         LINE#         981
  C:4F8FH         LINE#         982
  C:4F95H         LINE#         983
  C:4F97H         LINE#         985
  C:4F9DH         LINE#         986
  C:4F9DH         LINE#         989
  C:4FA7H         LINE#         990
  C:4FA7H         LINE#         991
  C:4FACH         LINE#         992
  C:4FAFH         LINE#         993
  C:4FB7H         LINE#         994
  C:4FB7H         LINE#         995
  C:4FBDH         LINE#         996
  C:4FBDH         LINE#         997
  C:4FC3H         LINE#         998
  C:4FC3H         LINE#         999
  C:4FC6H         LINE#         1000
BL51 BANKED LINKER/LOCATER V6.22                                                      11/30/2015  09:53:45  PAGE 45


  C:4FCCH         LINE#         1001
  C:4FCEH         LINE#         1003
  C:4FCEH         LINE#         1004
  C:4FD1H         LINE#         1005
  C:4FD6H         LINE#         1006
  C:4FD6H         LINE#         1007
  C:4FD8H         LINE#         1009
  C:4FD8H         LINE#         1010
  C:4FDEH         LINE#         1011
  C:4FDEH         LINE#         1012
  C:4FE1H         LINE#         1013
  C:4FE7H         LINE#         1014
  C:4FE9H         LINE#         1016
  C:4FE9H         LINE#         1017
  C:4FECH         LINE#         1018
  C:4FF1H         LINE#         1019
  C:4FF1H         LINE#         1021
  C:4FF1H         LINE#         1023
  C:4FFEH         LINE#         1025
  C:5000H         LINE#         1027
  C:5000H         LINE#         1029
  C:5006H         LINE#         1030
  C:5006H         LINE#         1031
  C:5009H         LINE#         1032
  C:500BH         LINE#         1034
  C:500BH         LINE#         1035
  C:5011H         LINE#         1036
  C:5011H         LINE#         1037
  C:5014H         LINE#         1038
  C:501AH         LINE#         1039
  C:501CH         LINE#         1041
  C:501CH         LINE#         1042
  C:501FH         LINE#         1043
  C:5024H         LINE#         1044
  C:5024H         LINE#         1046
  C:5024H         LINE#         1048
  C:5030H         LINE#         1050
  C:5030H         LINE#         1055
  C:5036H         LINE#         1056
  C:5036H         LINE#         1059
  C:5039H         LINE#         1062
  C:5040H         LINE#         1063
  C:5040H         LINE#         1065
  C:5047H         LINE#         1066
  C:5047H         LINE#         1071
  C:5055H         LINE#         1073
  C:505BH         LINE#         1074
  C:505BH         LINE#         1076
  C:505BH         LINE#         1097
  C:505BH         LINE#         1104
  C:5081H         LINE#         1105
  C:5081H         LINE#         1108
  C:5083H         LINE#         1109
  C:508CH         LINE#         1110
  C:50A7H         LINE#         1111
  C:50A9H         LINE#         1112
  C:50ABH         LINE#         1113
BL51 BANKED LINKER/LOCATER V6.22                                                      11/30/2015  09:53:45  PAGE 46


  C:50B4H         LINE#         1114
  C:50BDH         LINE#         1115
  C:50C6H         LINE#         1116
  C:50CFH         LINE#         1133
  C:50CFH         LINE#         1134
  C:50D9H         LINE#         1147
  C:50D9H         LINE#         1156
  C:50DEH         LINE#         1158
  C:50E4H         LINE#         1161
  C:510AH         LINE#         1162
  C:510AH         LINE#         1164
  C:510CH         LINE#         1165
  C:5110H         LINE#         1166
  C:5114H         LINE#         1167
  C:5118H         LINE#         1168
  C:511CH         LINE#         1169
  C:5120H         LINE#         1170
  C:5127H         LINE#         1171
  C:512BH         LINE#         1172
  C:5136H         LINE#         1174
  C:5136H         LINE#         1175
  C:5136H         LINE#         1176
  C:5136H         LINE#         1204
  C:513BH         LINE#         1206
  -------         ENDPROC       _MONITOR_SET
  -------         PROC          _PWM_SET
  D:0003H         SYMBOL        val
  -------         DO            
  D:0007H         SYMBOL        Error
  D:0002H         SYMBOL        ch
  D:0006H         SYMBOL        set_val
  -------         ENDDO         
  C:9ECCH         LINE#         1210
  C:9ECEH         LINE#         1211
  C:9ECEH         LINE#         1213
  C:9ED1H         LINE#         1215
  C:9EDDH         LINE#         1216
  C:9EDDH         LINE#         1217
  C:9EE7H         LINE#         1218
  C:9EF1H         LINE#         1221
  C:9EF6H         LINE#         1227
  C:9EF8H         LINE#         1228
  C:9EF8H         LINE#         1230
  C:9EF8H         LINE#         1231
  -------         ENDPROC       _PWM_SET
  -------         PROC          TEMP_CHECK
  -------         DO            
  D:0002H         SYMBOL        val
  -------         ENDDO         
  C:9109H         LINE#         1235
  C:9109H         LINE#         1236
  C:9109H         LINE#         1237
  C:910CH         LINE#         1241
  C:912EH         LINE#         1242
  C:9131H         LINE#         1243
  C:9135H         LINE#         1250
  C:9149H         LINE#         1252
BL51 BANKED LINKER/LOCATER V6.22                                                      11/30/2015  09:53:45  PAGE 47


  C:9150H         LINE#         1254
  C:9162H         LINE#         1289
  -------         ENDPROC       TEMP_CHECK
  -------         PROC          PRESS_CHECK
  -------         DO            
  X:0006H         SYMBOL        val
  X:0008H         SYMBOL        loop
  X:0009H         SYMBOL        temp_val
  -------         ENDDO         
  C:7712H         LINE#         1294
  C:7712H         LINE#         1295
  C:7712H         LINE#         1304
  C:7715H         LINE#         1305
  C:7715H         LINE#         1315
  C:771FH         LINE#         1316
  C:772CH         LINE#         1318
  C:7734H         LINE#         1319
  C:7737H         LINE#         1321
  C:7740H         LINE#         1322
  C:7740H         LINE#         1323
  C:7759H         LINE#         1324
  C:7759H         LINE#         1326
  C:7777H         LINE#         1327
  C:7779H         LINE#         1329
  C:7779H         LINE#         1330
  C:7780H         LINE#         1331
  C:7780H         LINE#         1332
  C:7782H         LINE#         1334
  C:7782H         LINE#         1336
  C:778BH         LINE#         1337
  C:778BH         LINE#         1339
  C:77A7H         LINE#         1340
  C:77A9H         LINE#         1342
  C:77A9H         LINE#         1343
  C:77B3H         LINE#         1344
  C:77B3H         LINE#         1345
  C:77B3H         LINE#         1348
  C:77D4H         LINE#         1351
  C:77D7H         LINE#         1355
  C:77EAH         LINE#         1359
  C:7807H         LINE#         1360
  C:7818H         LINE#         1361
  C:7829H         LINE#         1362
  C:782FH         LINE#         1411
  -------         ENDPROC       PRESS_CHECK
  -------         PROC          VERSION_CHECK
  -------         DO            
  X:000CH         SYMBOL        loop
  -------         ENDDO         
  C:9212H         LINE#         1414
  C:9212H         LINE#         1415
  C:9212H         LINE#         1420
  C:9212H         LINE#         1421
  C:9212H         LINE#         1422
  C:9218H         LINE#         1423
  C:921CH         LINE#         1424
  C:9220H         LINE#         1426
BL51 BANKED LINKER/LOCATER V6.22                                                      11/30/2015  09:53:45  PAGE 48


  C:9223H         LINE#         1427
  C:9223H         LINE#         1428
  C:9223H         LINE#         1429
  C:9226H         LINE#         1435
  C:9234H         LINE#         1436
  C:9247H         LINE#         1441
  C:9256H         LINE#         1442
  C:9256H         LINE#         1443
  C:925EH         LINE#         1445
  C:9266H         LINE#         1447
  -------         ENDPROC       VERSION_CHECK
  -------         PROC          CAMERA_VERSION_CHECK
  -------         DO            
  X:000CH         SYMBOL        loop
  -------         ENDDO         
  C:8FE9H         LINE#         1449
  C:8FE9H         LINE#         1450
  C:8FE9H         LINE#         1454
  C:8FE9H         LINE#         1455
  C:8FE9H         LINE#         1456
  C:8FEFH         LINE#         1457
  C:8FF7H         LINE#         1458
  C:8FFFH         LINE#         1460
  C:9006H         LINE#         1461
  C:9006H         LINE#         1462
  C:9006H         LINE#         1463
  C:9009H         LINE#         1469
  C:9017H         LINE#         1470
  C:902AH         LINE#         1475
  C:9039H         LINE#         1476
  C:9039H         LINE#         1477
  C:9041H         LINE#         1479
  C:9049H         LINE#         1481
  -------         ENDPROC       CAMERA_VERSION_CHECK
  -------         ENDMOD        MAIN

  -------         MODULE        OSD_GRAPH
  C:0000H         SYMBOL        _ICE_DUMMY_
  D:0080H         PUBLIC        P0
  D:0090H         PUBLIC        P1
  D:00A0H         PUBLIC        P2
  D:00C0H         PUBLIC        XICON
  D:00B0H         PUBLIC        P3
  D:00E8H         PUBLIC        P4
  D:00A8H         PUBLIC        IE
  D:00B8H         PUBLIC        IP
  D:00D8H         PUBLIC        CCON
  C:1354H         PUBLIC        GRAPH16_TABLE
  C:A615H         PUBLIC        _PCT_PreSetGraphAttr
  D:00C0H         PUBLIC        WDTC
  D:0098H         PUBLIC        SCON
  D:0088H         PUBLIC        TCON
  C:002EH         PUBLIC        GRAPH_TABLE
  C:6425H         PUBLIC        _PCT_OSD16x16GraphX
  C:A60FH         PUBLIC        PCT_ClearGraphAttr
  X:03DBH         PUBLIC        graphattr
  D:00F8H         PUBLIC        IPA
BL51 BANKED LINKER/LOCATER V6.22                                                      11/30/2015  09:53:45  PAGE 49


  C:904AH         PUBLIC        _PCT_ShowGraphString
  D:00C8H         PUBLIC        T2CON
  D:00D0H         PUBLIC        PSW
  C:9B94H         SYMBOL        Com001D
  C:9B94H         SYMBOL        L?0030
  C:9B94H         SYMBOL        L?0031
  C:9B97H         SYMBOL        L?0032
  C:9BA2H         SYMBOL        L?0033
  C:9BA5H         SYMBOL        L?0034
  C:9BAEH         SYMBOL        L?0035
  C:9BC2H         SYMBOL        L?0039
  -------         PROC          COM001D
  -------         ENDPROC       COM001D
  -------         PROC          PCT_CLEARGRAPHATTR
  C:A60FH         LINE#         73
  C:A60FH         LINE#         74
  C:A60FH         LINE#         75
  C:A614H         LINE#         76
  -------         ENDPROC       PCT_CLEARGRAPHATTR
  -------         PROC          _PCT_PRESETGRAPHATTR
  D:0007H         SYMBOL        _attribute
  C:A615H         LINE#         82
  C:A615H         LINE#         83
  C:A615H         LINE#         84
  C:A61AH         LINE#         86
  -------         ENDPROC       _PCT_PRESETGRAPHATTR
  C:656DH         SYMBOL        L?0027
  C:6596H         SYMBOL        L?0028
  C:65A9H         SYMBOL        L?0036
  C:65B1H         SYMBOL        L?0037
  C:65BCH         SYMBOL        L?0038
  -------         PROC          _PCT_OSD16X16GRAPHX
  X:01E7H         SYMBOL        _posx
  X:01E8H         SYMBOL        _posy
  D:0003H         SYMBOL        _indx
  -------         DO            
  X:01EAH         SYMBOL        row
  X:01EBH         SYMBOL        column
  X:01ECH         SYMBOL        cntr
  X:01EDH         SYMBOL        cntc
  X:01EEH         SYMBOL        posx
  X:01EFH         SYMBOL        graph
  -------         ENDDO         
  C:6425H         LINE#         92
  C:6430H         LINE#         93
  C:6430H         LINE#         97
  C:6438H         LINE#         98
  C:6440H         LINE#         99
  C:6456H         LINE#         100
  C:6462H         LINE#         101
  C:6480H         LINE#         102
  C:6486H         LINE#         103
  C:648DH         LINE#         105
  C:64A0H         LINE#         106
  C:64B3H         LINE#         107
  C:64C4H         LINE#         108
  C:64CFH         LINE#         109
BL51 BANKED LINKER/LOCATER V6.22                                                      11/30/2015  09:53:45  PAGE 50


  C:64DAH         LINE#         110
  C:64E8H         LINE#         111
  C:64F3H         LINE#         112
  C:64FDH         LINE#         114
  C:6507H         LINE#         115
  C:6512H         LINE#         117
  C:6521H         LINE#         118
  C:6524H         LINE#         119
  C:652AH         LINE#         121
  C:6534H         LINE#         122
  C:6537H         LINE#         123
  C:653DH         LINE#         125
  C:6543H         LINE#         126
  C:654DH         LINE#         127
  C:6555H         LINE#         128
  C:6563H         LINE#         129
  C:656CH         LINE#         130
  -------         ENDPROC       _PCT_OSD16X16GRAPHX
  -------         PROC          _PCT_SHOWGRAPHSTRING
  X:01E0H         SYMBOL        _path
  X:01E1H         SYMBOL        _addrx
  X:01E2H         SYMBOL        _addry
  X:01E3H         SYMBOL        _strptr
  -------         DO            
  X:01E6H         SYMBOL        slen
  -------         ENDDO         
  C:904AH         LINE#         136
  C:9055H         LINE#         137
  C:9055H         LINE#         140
  C:9061H         LINE#         141
  C:9068H         LINE#         142
  C:906FH         LINE#         143
  C:906FH         LINE#         144
  C:9084H         LINE#         145
  C:908AH         LINE#         146
  C:9094H         LINE#         147
  C:909BH         LINE#         148
  C:90A0H         LINE#         149
  C:90A2H         LINE#         150
  C:90A2H         LINE#         151
  C:90A7H         LINE#         152
  C:90A7H         LINE#         153
  C:90AAH         LINE#         155
  -------         ENDPROC       _PCT_SHOWGRAPHSTRING
  -------         ENDMOD        OSD_GRAPH

  -------         MODULE        OSDACTION_
  C:0000H         SYMBOL        _ICE_DUMMY_
  C:9356H         PUBLIC        PCT_InitialOSD
  C:9823H         PUBLIC        PCT_ShowModeIcon
  D:0080H         PUBLIC        P0
  D:0090H         PUBLIC        P1
  D:00A0H         PUBLIC        P2
  D:00C0H         PUBLIC        XICON
  D:00B0H         PUBLIC        P3
  D:00E8H         PUBLIC        P4
  C:A5FFH         PUBLIC        PCT_EnfalshVLoss
BL51 BANKED LINKER/LOCATER V6.22                                                      11/30/2015  09:53:45  PAGE 51


  C:A234H         PUBLIC        camstr
  D:00A8H         PUBLIC        IE
  D:00B8H         PUBLIC        IP
  C:6B95H         PUBLIC        _PCT_ShowIndicateIcon
  C:A251H         PUBLIC        SPEAKICON
  D:00D8H         PUBLIC        CCON
  X:03DCH         PUBLIC        VlossCount
  D:00C0H         PUBLIC        WDTC
  D:0098H         PUBLIC        SCON
  D:0088H         PUBLIC        TCON
  B:0021H.0       PUBLIC        OSDPAGE2
  B:0021H.1       PUBLIC        OSDPAGE3
  B:0021H.2       PUBLIC        OSDPAGE4
  B:0021H.3       PUBLIC        OSDPAGE5
  D:0021H         PUBLIC        osdflage
  C:9634H         PUBLIC        PCT_GetVideoSignalStatus
  C:A249H         PUBLIC        indicate_icon
  C:A1A2H         PUBLIC        PCT_OSDActionForHS
  D:00F8H         PUBLIC        IPA
  C:A253H         PUBLIC        msgVLOSS
  C:2C9BH         PUBLIC        PCT_ShowVLoss
  D:00C8H         PUBLIC        T2CON
  C:36FDH         PUBLIC        _PCT_ShowSpeakIcon
  C:321FH         PUBLIC        _PCT_ShowMirrorIcon
  C:4400H         PUBLIC        _PCT_OSD_ActionPthX
  D:00D0H         PUBLIC        PSW
  C:8131H         SYMBOL        Com020E
  C:8131H         SYMBOL        L?0527
  C:8131H         SYMBOL        L?0528
  C:8134H         SYMBOL        L?0529
  C:8140H         SYMBOL        L?0530
  C:8141H         SYMBOL        L?0531
  C:8149H         SYMBOL        L?0532
  C:8149H         SYMBOL        L?0533
  C:814CH         SYMBOL        L?0534
  C:8155H         SYMBOL        L?0535
  C:8155H         SYMBOL        L?0536
  C:8158H         SYMBOL        L?0537
  C:8162H         SYMBOL        L?0538
  C:8162H         SYMBOL        L?0539
  C:816BH         SYMBOL        L?0542
  C:816BH         SYMBOL        L?0543
  C:8173H         SYMBOL        L?0547
  C:8173H         SYMBOL        L?0548
  C:8179H         SYMBOL        L?0550
  C:8179H         SYMBOL        L?0551
  C:8181H         SYMBOL        L?0554
  C:8181H         SYMBOL        L?0555
  C:8189H         SYMBOL        L?0565
  C:8189H         SYMBOL        L?0566
  C:8191H         SYMBOL        L?0569
  C:8191H         SYMBOL        L?0570
  C:8197H         SYMBOL        L?0580
  C:8197H         SYMBOL        L?0581
  C:819AH         SYMBOL        L?0582
  C:81A3H         SYMBOL        L?0598
  C:81A3H         SYMBOL        L?0599
BL51 BANKED LINKER/LOCATER V6.22                                                      11/30/2015  09:53:45  PAGE 52


  C:81ABH         SYMBOL        L?0603
  C:81ABH         SYMBOL        L?0604
  C:81B2H         SYMBOL        L?0609
  C:81B2H         SYMBOL        L?0610
  C:81B4H         SYMBOL        L?0611
  C:81BBH         SYMBOL        L?0614
  C:81BBH         SYMBOL        L?0615
  C:81C4H         SYMBOL        L?0616
  C:81C4H         SYMBOL        L?0617
  C:81CAH         SYMBOL        L?0618
  C:81CAH         SYMBOL        L?0619
  C:81D1H         SYMBOL        L?0623
  C:81D1H         SYMBOL        L?0624
  C:81D9H         SYMBOL        L?0630
  C:81D9H         SYMBOL        L?0631
  C:81E1H         SYMBOL        L?0632
  C:81E1H         SYMBOL        L?0633
  -------         PROC          COM020E
  -------         ENDPROC       COM020E
  C:938CH         SYMBOL        L?0606
  -------         PROC          PCT_INITIALOSD
  -------         DO            
  D:002FH         SYMBOL        page
  -------         ENDDO         
  C:9356H         LINE#         101
  C:9356H         LINE#         102
  C:9356H         LINE#         105
  C:9359H         LINE#         106
  C:935CH         LINE#         108
  C:9361H         LINE#         109
  C:9366H         LINE#         110
  C:9369H         LINE#         111
  C:936BH         LINE#         112
  C:936EH         LINE#         113
  C:9377H         LINE#         114
  C:937CH         LINE#         115
  C:9381H         LINE#         116
  C:9383H         LINE#         117
  C:9386H         LINE#         119
  C:938BH         LINE#         120
  -------         ENDPROC       PCT_INITIALOSD
  C:4752H         SYMBOL        L?0544
  C:4761H         SYMBOL        L?0552
  C:4770H         SYMBOL        L?0560
  C:477FH         SYMBOL        L?0593
  C:478EH         SYMBOL        L?0612
  C:4796H         SYMBOL        L?0625
  C:479EH         SYMBOL        L?0634
  C:47A6H         SYMBOL        L?0635
  -------         PROC          _PCT_OSD_ACTIONPTHX
  X:01DDH         SYMBOL        _attr
  C:4400H         LINE#         127
  C:4406H         LINE#         128
  C:4406H         LINE#         129
  C:440BH         LINE#         130
  C:4410H         LINE#         132
  C:4445H         LINE#         134
BL51 BANKED LINKER/LOCATER V6.22                                                      11/30/2015  09:53:45  PAGE 53


  C:4445H         LINE#         135
  C:4451H         LINE#         136
  C:4454H         LINE#         138
  C:4454H         LINE#         139
  C:446AH         LINE#         140
  C:4485H         LINE#         141
  C:4488H         LINE#         143
  C:4488H         LINE#         144
  C:44A2H         LINE#         145
  C:44B9H         LINE#         146
  C:44BCH         LINE#         148
  C:44BCH         LINE#         149
  C:44CEH         LINE#         150
  C:44E0H         LINE#         151
  C:44F7H         LINE#         152
  C:44FAH         LINE#         154
  C:44FAH         LINE#         155
  C:44FAH         LINE#         157
  C:44FAH         LINE#         158
  C:4509H         LINE#         159
  C:451BH         LINE#         160
  C:4532H         LINE#         161
  C:4535H         LINE#         163
  C:4535H         LINE#         164
  C:4544H         LINE#         165
  C:4556H         LINE#         166
  C:456DH         LINE#         167
  C:4570H         LINE#         169
  C:4570H         LINE#         170
  C:457FH         LINE#         171
  C:4594H         LINE#         172
  C:45A6H         LINE#         173
  C:45BDH         LINE#         174
  C:45C0H         LINE#         177
  C:45C0H         LINE#         178
  C:45D4H         LINE#         179
  C:45D7H         LINE#         181
  C:45D7H         LINE#         182
  C:45E9H         LINE#         183
  C:4600H         LINE#         184
  C:4603H         LINE#         186
  C:4603H         LINE#         187
  C:4612H         LINE#         188
  C:4629H         LINE#         189
  C:462CH         LINE#         191
  C:462CH         LINE#         192
  C:4642H         LINE#         193
  C:4657H         LINE#         194
  C:466EH         LINE#         195
  C:4671H         LINE#         197
  C:4671H         LINE#         198
  C:4671H         LINE#         200
  C:4671H         LINE#         201
  C:4683H         LINE#         202
  C:4698H         LINE#         203
  C:46AFH         LINE#         204
  C:46B2H         LINE#         206
BL51 BANKED LINKER/LOCATER V6.22                                                      11/30/2015  09:53:45  PAGE 54


  C:46B2H         LINE#         207
  C:46C4H         LINE#         208
  C:46DDH         LINE#         209
  C:46F1H         LINE#         210
  C:46F4H         LINE#         212
  C:46F4H         LINE#         213
  C:4706H         LINE#         214
  C:471FH         LINE#         215
  C:4738H         LINE#         216
  C:4751H         LINE#         217
  C:4751H         LINE#         219
  C:4751H         LINE#         220
  C:4751H         LINE#         221
  C:4751H         LINE#         222
  -------         ENDPROC       _PCT_OSD_ACTIONPTHX
  -------         PROC          PCT_ENFALSHVLOSS
  C:A5FFH         LINE#         228
  C:A5FFH         LINE#         229
  C:A5FFH         LINE#         230
  C:A606H         LINE#         231
  -------         ENDPROC       PCT_ENFALSHVLOSS
  -------         PROC          PCT_GETVIDEOSIGNALSTATUS
  C:9634H         LINE#         237
  C:9634H         LINE#         238
  C:9634H         LINE#         242
  C:9645H         LINE#         244
  C:964CH         LINE#         250
  C:964EH         LINE#         251
  C:9665H         LINE#         253
  C:966AH         LINE#         254
  C:966FH         LINE#         256
  C:9672H         LINE#         258
  C:967AH         LINE#         259
  -------         ENDPROC       PCT_GETVIDEOSIGNALSTATUS
  C:6CC9H         SYMBOL        L?0559
  C:6CE2H         SYMBOL        L?0586
  -------         PROC          _PCT_SHOWINDICATEICON
  X:01DDH         SYMBOL        _attr
  -------         DO            
  D:002FH         SYMBOL        iconid
  -------         ENDDO         
  C:6B95H         LINE#         277
  C:6B9BH         LINE#         278
  C:6B9BH         LINE#         282
  C:6BA0H         LINE#         283
  C:6BCFH         LINE#         285
  C:6BCFH         LINE#         286
  C:6BCFH         LINE#         287
  C:6BD8H         LINE#         288
  C:6BDAH         LINE#         289
  C:6BDAH         LINE#         290
  C:6BDAH         LINE#         291
  C:6BDDH         LINE#         292
  C:6BDDH         LINE#         293
  C:6BDDH         LINE#         294
  C:6BE0H         LINE#         296
  C:6BE0H         LINE#         297
BL51 BANKED LINKER/LOCATER V6.22                                                      11/30/2015  09:53:45  PAGE 55


  C:6BE0H         LINE#         299
  C:6BE9H         LINE#         300
  C:6BEBH         LINE#         301
  C:6BEBH         LINE#         302
  C:6BFBH         LINE#         303
  C:6BFDH         LINE#         304
  C:6C03H         LINE#         305
  C:6C03H         LINE#         308
  C:6C0FH         LINE#         309
  C:6C11H         LINE#         310
  C:6C11H         LINE#         311
  C:6C11H         LINE#         312
  C:6C14H         LINE#         317
  C:6C14H         LINE#         318
  C:6C14H         LINE#         320
  C:6C1DH         LINE#         321
  C:6C1FH         LINE#         322
  C:6C1FH         LINE#         323
  C:6C2FH         LINE#         324
  C:6C31H         LINE#         325
  C:6C37H         LINE#         326
  C:6C37H         LINE#         329
  C:6C43H         LINE#         330
  C:6C45H         LINE#         331
  C:6C45H         LINE#         332
  C:6C45H         LINE#         333
  C:6C48H         LINE#         334
  C:6C48H         LINE#         335
  C:6C48H         LINE#         336
  C:6C4BH         LINE#         338
  C:6C4BH         LINE#         339
  C:6C4BH         LINE#         341
  C:6C54H         LINE#         342
  C:6C56H         LINE#         343
  C:6C56H         LINE#         344
  C:6C61H         LINE#         345
  C:6C64H         LINE#         346
  C:6C6BH         LINE#         347
  C:6C6BH         LINE#         348
  C:6C6EH         LINE#         350
  C:6C6EH         LINE#         351
  C:6C6EH         LINE#         352
  C:6C6EH         LINE#         354
  C:6C6EH         LINE#         355
  C:6C6EH         LINE#         357
  C:6C77H         LINE#         358
  C:6C79H         LINE#         359
  C:6C79H         LINE#         360
  C:6C84H         LINE#         361
  C:6C86H         LINE#         362
  C:6C89H         LINE#         363
  C:6C89H         LINE#         365
  C:6C8BH         LINE#         367
  C:6C8BH         LINE#         368
  C:6C8BH         LINE#         370
  C:6C97H         LINE#         371
  C:6C99H         LINE#         372
BL51 BANKED LINKER/LOCATER V6.22                                                      11/30/2015  09:53:45  PAGE 56


  C:6CA2H         LINE#         373
  C:6CBEH         LINE#         374
  C:6CBEH         LINE#         375
  C:6CC8H         LINE#         376
  C:6CC8H         LINE#         377
  C:6CC8H         LINE#         379
  C:6CC8H         LINE#         380
  C:6CC8H         LINE#         381
  C:6CC8H         LINE#         383
  C:6CC8H         LINE#         384
  C:6CC8H         LINE#         385
  C:6CC8H         LINE#         386
  -------         ENDPROC       _PCT_SHOWINDICATEICON
  C:3629H         SYMBOL        L?0540
  C:363AH         SYMBOL        L?0545
  C:364BH         SYMBOL        L?0553
  C:3656H         SYMBOL        L?0558
  C:3661H         SYMBOL        L?0563
  C:366CH         SYMBOL        L?0564
  C:3676H         SYMBOL        L?0572
  C:3680H         SYMBOL        L?0573
  C:368BH         SYMBOL        L?0578
  C:3696H         SYMBOL        L?0583
  C:36A0H         SYMBOL        L?0588
  C:36ABH         SYMBOL        L?0591
  C:36B5H         SYMBOL        L?0595
  C:36C0H         SYMBOL        L?0596
  C:36CAH         SYMBOL        L?0608
  C:36D5H         SYMBOL        L?0620
  C:36DFH         SYMBOL        L?0621
  C:36E9H         SYMBOL        L?0637
  C:36F3H         SYMBOL        L?0638
  -------         PROC          _PCT_SHOWMIRRORICON
  X:01DDH         SYMBOL        _attr
  C:321FH         LINE#         396
  C:3225H         LINE#         397
  C:3225H         LINE#         398
  C:322AH         LINE#         399
  C:325FH         LINE#         401
  C:325FH         LINE#         403
  C:326BH         LINE#         404
  C:326BH         LINE#         405
  C:326EH         LINE#         406
  C:326EH         LINE#         407
  C:326EH         LINE#         408
  C:3271H         LINE#         410
  C:3271H         LINE#         412
  C:327DH         LINE#         413
  C:3286H         LINE#         414
  C:3288H         LINE#         415
  C:328BH         LINE#         416
  C:328BH         LINE#         418
  C:3297H         LINE#         419
  C:3297H         LINE#         420
  C:329AH         LINE#         421
  C:329AH         LINE#         422
  C:329AH         LINE#         423
BL51 BANKED LINKER/LOCATER V6.22                                                      11/30/2015  09:53:45  PAGE 57


  C:329DH         LINE#         425
  C:329DH         LINE#         427
  C:32A9H         LINE#         428
  C:32AFH         LINE#         429
  C:32B1H         LINE#         430
  C:32B4H         LINE#         431
  C:32B4H         LINE#         434
  C:32C0H         LINE#         435
  C:32C0H         LINE#         436
  C:32C3H         LINE#         437
  C:32C3H         LINE#         438
  C:32C3H         LINE#         440
  C:32C6H         LINE#         442
  C:32C6H         LINE#         444
  C:32D2H         LINE#         445
  C:32DBH         LINE#         446
  C:32DDH         LINE#         447
  C:32E0H         LINE#         448
  C:32E0H         LINE#         451
  C:32ECH         LINE#         452
  C:32F5H         LINE#         453
  C:32F7H         LINE#         454
  C:32FFH         LINE#         455
  C:32FFH         LINE#         458
  C:330BH         LINE#         459
  C:330BH         LINE#         460
  C:330EH         LINE#         461
  C:330EH         LINE#         462
  C:330EH         LINE#         463
  C:3311H         LINE#         465
  C:3311H         LINE#         466
  C:3311H         LINE#         468
  C:3311H         LINE#         470
  C:331DH         LINE#         471
  C:3323H         LINE#         472
  C:3325H         LINE#         473
  C:3328H         LINE#         474
  C:3328H         LINE#         477
  C:3334H         LINE#         478
  C:333DH         LINE#         479
  C:333FH         LINE#         480
  C:3342H         LINE#         481
  C:3342H         LINE#         484
  C:334EH         LINE#         485
  C:334EH         LINE#         486
  C:3351H         LINE#         487
  C:3351H         LINE#         488
  C:3351H         LINE#         489
  C:3354H         LINE#         491
  C:3354H         LINE#         493
  C:3360H         LINE#         494
  C:3366H         LINE#         495
  C:3368H         LINE#         496
  C:336BH         LINE#         497
  C:336BH         LINE#         500
  C:3377H         LINE#         501
  C:3380H         LINE#         502
BL51 BANKED LINKER/LOCATER V6.22                                                      11/30/2015  09:53:45  PAGE 58


  C:3382H         LINE#         503
  C:3385H         LINE#         504
  C:3385H         LINE#         507
  C:3391H         LINE#         508
  C:3399H         LINE#         509
  C:339CH         LINE#         510
  C:33A0H         LINE#         511
  C:33A0H         LINE#         512
  C:33A3H         LINE#         514
  C:33A3H         LINE#         516
  C:33AFH         LINE#         517
  C:33B5H         LINE#         518
  C:33B7H         LINE#         519
  C:33BAH         LINE#         520
  C:33BAH         LINE#         523
  C:33C6H         LINE#         524
  C:33CFH         LINE#         525
  C:33D1H         LINE#         526
  C:33D4H         LINE#         527
  C:33D4H         LINE#         530
  C:33E0H         LINE#         531
  C:33E9H         LINE#         532
  C:33EBH         LINE#         533
  C:33F3H         LINE#         534
  C:33F3H         LINE#         537
  C:33FFH         LINE#         538
  C:3407H         LINE#         539
  C:340AH         LINE#         540
  C:340EH         LINE#         541
  C:340EH         LINE#         542
  C:3411H         LINE#         545
  C:3411H         LINE#         547
  C:341DH         LINE#         548
  C:3425H         LINE#         549
  C:3427H         LINE#         550
  C:342CH         LINE#         551
  C:342CH         LINE#         552
  C:342EH         LINE#         554
  C:342EH         LINE#         556
  C:343AH         LINE#         557
  C:3443H         LINE#         558
  C:3445H         LINE#         559
  C:3448H         LINE#         560
  C:3448H         LINE#         562
  C:3454H         LINE#         563
  C:345EH         LINE#         564
  C:3461H         LINE#         565
  C:3466H         LINE#         566
  C:3466H         LINE#         567
  C:3469H         LINE#         569
  C:3469H         LINE#         571
  C:3475H         LINE#         572
  C:347EH         LINE#         573
  C:3480H         LINE#         574
  C:3483H         LINE#         575
  C:3483H         LINE#         578
  C:348FH         LINE#         579
BL51 BANKED LINKER/LOCATER V6.22                                                      11/30/2015  09:53:45  PAGE 59


  C:3499H         LINE#         580
  C:349CH         LINE#         581
  C:349FH         LINE#         582
  C:349FH         LINE#         584
  C:34A2H         LINE#         586
  C:34A2H         LINE#         588
  C:34AEH         LINE#         589
  C:34B7H         LINE#         590
  C:34B9H         LINE#         591
  C:34BCH         LINE#         592
  C:34BCH         LINE#         595
  C:34C8H         LINE#         596
  C:34D1H         LINE#         597
  C:34D3H         LINE#         598
  C:34DBH         LINE#         599
  C:34DBH         LINE#         602
  C:34E7H         LINE#         603
  C:34F1H         LINE#         604
  C:34F4H         LINE#         605
  C:34FCH         LINE#         606
  C:34FCH         LINE#         607
  C:34FFH         LINE#         609
  C:34FFH         LINE#         610
  C:34FFH         LINE#         612
  C:34FFH         LINE#         614
  C:350BH         LINE#         615
  C:3514H         LINE#         616
  C:3516H         LINE#         617
  C:3519H         LINE#         618
  C:3519H         LINE#         621
  C:3525H         LINE#         622
  C:352EH         LINE#         623
  C:3530H         LINE#         624
  C:3533H         LINE#         625
  C:3533H         LINE#         628
  C:353FH         LINE#         629
  C:3549H         LINE#         630
  C:354CH         LINE#         631
  C:3551H         LINE#         632
  C:3551H         LINE#         633
  C:3554H         LINE#         635
  C:3554H         LINE#         637
  C:3560H         LINE#         638
  C:3569H         LINE#         639
  C:356BH         LINE#         640
  C:356EH         LINE#         641
  C:356EH         LINE#         644
  C:357AH         LINE#         645
  C:3583H         LINE#         646
  C:3585H         LINE#         647
  C:358BH         LINE#         648
  C:358BH         LINE#         651
  C:3597H         LINE#         652
  C:35A1H         LINE#         653
  C:35A4H         LINE#         654
  C:35ACH         LINE#         655
  C:35ACH         LINE#         656
BL51 BANKED LINKER/LOCATER V6.22                                                      11/30/2015  09:53:45  PAGE 60


  C:35AFH         LINE#         658
  C:35AFH         LINE#         660
  C:35BBH         LINE#         661
  C:35C4H         LINE#         662
  C:35C6H         LINE#         663
  C:35C9H         LINE#         664
  C:35C9H         LINE#         667
  C:35D5H         LINE#         668
  C:35DEH         LINE#         669
  C:35E0H         LINE#         670
  C:35E6H         LINE#         671
  C:35E6H         LINE#         674
  C:35F2H         LINE#         675
  C:35FBH         LINE#         676
  C:35FDH         LINE#         677
  C:3605H         LINE#         678
  C:3605H         LINE#         681
  C:3611H         LINE#         682
  C:3620H         LINE#         683
  C:3620H         LINE#         684
  C:3628H         LINE#         685
  C:3628H         LINE#         686
  C:3628H         LINE#         688
  C:3628H         LINE#         689
  C:3628H         LINE#         690
  C:3628H         LINE#         691
  -------         ENDPROC       _PCT_SHOWMIRRORICON
  C:3ADDH         SYMBOL        L?0541
  C:3AEEH         SYMBOL        L?0546
  C:3AFFH         SYMBOL        L?0556
  C:3B0AH         SYMBOL        L?0561
  C:3B15H         SYMBOL        L?0567
  C:3B20H         SYMBOL        L?0568
  C:3B2AH         SYMBOL        L?0574
  C:3B34H         SYMBOL        L?0577
  C:3B3FH         SYMBOL        L?0584
  C:3B4AH         SYMBOL        L?0587
  C:3B54H         SYMBOL        L?0592
  C:3B5FH         SYMBOL        L?0594
  C:3B69H         SYMBOL        L?0602
  C:3B74H         SYMBOL        L?0605
  C:3B7EH         SYMBOL        L?0622
  C:3B88H         SYMBOL        L?0626
  C:3B93H         SYMBOL        L?0627
  C:3B9DH         SYMBOL        L?0639
  -------         PROC          _PCT_SHOWSPEAKICON
  X:03C9H         SYMBOL        _attr
  C:36FDH         LINE#         702
  C:3703H         LINE#         703
  C:3703H         LINE#         704
  C:3708H         LINE#         705
  C:373AH         LINE#         707
  C:373AH         LINE#         708
  C:3746H         LINE#         709
  C:3746H         LINE#         710
  C:3749H         LINE#         711
  C:3749H         LINE#         712
BL51 BANKED LINKER/LOCATER V6.22                                                      11/30/2015  09:53:45  PAGE 61


  C:3749H         LINE#         713
  C:374CH         LINE#         715
  C:374CH         LINE#         716
  C:3758H         LINE#         717
  C:3761H         LINE#         718
  C:3763H         LINE#         719
  C:3766H         LINE#         720
  C:3766H         LINE#         721
  C:3772H         LINE#         722
  C:3772H         LINE#         723
  C:3775H         LINE#         724
  C:3778H         LINE#         725
  C:3778H         LINE#         726
  C:377BH         LINE#         728
  C:377BH         LINE#         729
  C:3787H         LINE#         730
  C:378DH         LINE#         731
  C:378FH         LINE#         732
  C:3792H         LINE#         733
  C:3792H         LINE#         734
  C:379EH         LINE#         735
  C:379EH         LINE#         736
  C:37A1H         LINE#         737
  C:37A1H         LINE#         738
  C:37A1H         LINE#         739
  C:37A4H         LINE#         741
  C:37A4H         LINE#         742
  C:37B0H         LINE#         743
  C:37B9H         LINE#         744
  C:37BBH         LINE#         745
  C:37BEH         LINE#         746
  C:37BEH         LINE#         747
  C:37CAH         LINE#         748
  C:37D3H         LINE#         749
  C:37D5H         LINE#         750
  C:37DDH         LINE#         751
  C:37DDH         LINE#         752
  C:37E9H         LINE#         753
  C:37E9H         LINE#         754
  C:37ECH         LINE#         755
  C:37ECH         LINE#         756
  C:37ECH         LINE#         757
  C:37EFH         LINE#         759
  C:37EFH         LINE#         760
  C:37EFH         LINE#         762
  C:37EFH         LINE#         763
  C:37FBH         LINE#         764
  C:3801H         LINE#         765
  C:3803H         LINE#         766
  C:3806H         LINE#         767
  C:3806H         LINE#         768
  C:3812H         LINE#         769
  C:381BH         LINE#         770
  C:381DH         LINE#         771
  C:3820H         LINE#         772
  C:3820H         LINE#         773
  C:382CH         LINE#         774
BL51 BANKED LINKER/LOCATER V6.22                                                      11/30/2015  09:53:45  PAGE 62


  C:382CH         LINE#         775
  C:382FH         LINE#         776
  C:382FH         LINE#         777
  C:382FH         LINE#         778
  C:3832H         LINE#         780
  C:3832H         LINE#         781
  C:383EH         LINE#         782
  C:3844H         LINE#         783
  C:3846H         LINE#         784
  C:3849H         LINE#         785
  C:3849H         LINE#         786
  C:3855H         LINE#         787
  C:385EH         LINE#         788
  C:3860H         LINE#         789
  C:3863H         LINE#         790
  C:3863H         LINE#         791
  C:386FH         LINE#         792
  C:3877H         LINE#         793
  C:387AH         LINE#         794
  C:387EH         LINE#         795
  C:387EH         LINE#         796
  C:3881H         LINE#         798
  C:3881H         LINE#         799
  C:388DH         LINE#         800
  C:3893H         LINE#         801
  C:3895H         LINE#         802
  C:3898H         LINE#         803
  C:3898H         LINE#         804
  C:38A4H         LINE#         805
  C:38ADH         LINE#         806
  C:38AFH         LINE#         807
  C:38B2H         LINE#         808
  C:38B2H         LINE#         809
  C:38BEH         LINE#         810
  C:38C7H         LINE#         811
  C:38C9H         LINE#         812
  C:38D1H         LINE#         813
  C:38D1H         LINE#         814
  C:38DDH         LINE#         815
  C:38E5H         LINE#         816
  C:38E8H         LINE#         817
  C:38ECH         LINE#         818
  C:38ECH         LINE#         819
  C:38EFH         LINE#         822
  C:38EFH         LINE#         823
  C:38FBH         LINE#         824
  C:3905H         LINE#         825
  C:3908H         LINE#         826
  C:390FH         LINE#         827
  C:390FH         LINE#         828
  C:3912H         LINE#         830
  C:3912H         LINE#         831
  C:3912H         LINE#         833
  C:3912H         LINE#         834
  C:391EH         LINE#         835
  C:3927H         LINE#         836
  C:3929H         LINE#         837
BL51 BANKED LINKER/LOCATER V6.22                                                      11/30/2015  09:53:45  PAGE 63


  C:392CH         LINE#         838
  C:392CH         LINE#         839
  C:3938H         LINE#         840
  C:3942H         LINE#         841
  C:3945H         LINE#         842
  C:394CH         LINE#         843
  C:394CH         LINE#         844
  C:394FH         LINE#         846
  C:394FH         LINE#         847
  C:395BH         LINE#         848
  C:396AH         LINE#         849
  C:396CH         LINE#         850
  C:3976H         LINE#         851
  C:3976H         LINE#         852
  C:3982H         LINE#         853
  C:398BH         LINE#         854
  C:398DH         LINE#         855
  C:3995H         LINE#         856
  C:3995H         LINE#         857
  C:39A1H         LINE#         858
  C:39ABH         LINE#         859
  C:39AEH         LINE#         860
  C:39B6H         LINE#         861
  C:39B6H         LINE#         862
  C:39B9H         LINE#         864
  C:39B9H         LINE#         865
  C:39B9H         LINE#         867
  C:39B9H         LINE#         868
  C:39C5H         LINE#         869
  C:39CEH         LINE#         870
  C:39D0H         LINE#         871
  C:39D3H         LINE#         872
  C:39D3H         LINE#         873
  C:39DFH         LINE#         874
  C:39E8H         LINE#         875
  C:39EAH         LINE#         876
  C:39EDH         LINE#         877
  C:39EDH         LINE#         878
  C:39F9H         LINE#         879
  C:3A03H         LINE#         880
  C:3A06H         LINE#         881
  C:3A0BH         LINE#         882
  C:3A0BH         LINE#         883
  C:3A0EH         LINE#         885
  C:3A0EH         LINE#         886
  C:3A1AH         LINE#         887
  C:3A23H         LINE#         888
  C:3A25H         LINE#         889
  C:3A28H         LINE#         890
  C:3A28H         LINE#         891
  C:3A34H         LINE#         892
  C:3A3DH         LINE#         893
  C:3A3FH         LINE#         894
  C:3A42H         LINE#         895
  C:3A42H         LINE#         896
  C:3A4EH         LINE#         897
  C:3A58H         LINE#         898
BL51 BANKED LINKER/LOCATER V6.22                                                      11/30/2015  09:53:45  PAGE 64


  C:3A5BH         LINE#         899
  C:3A63H         LINE#         900
  C:3A63H         LINE#         901
  C:3A66H         LINE#         903
  C:3A66H         LINE#         904
  C:3A72H         LINE#         905
  C:3A7BH         LINE#         906
  C:3A7DH         LINE#         907
  C:3A80H         LINE#         908
  C:3A80H         LINE#         909
  C:3A8CH         LINE#         910
  C:3A95H         LINE#         911
  C:3A97H         LINE#         912
  C:3A9AH         LINE#         913
  C:3A9AH         LINE#         914
  C:3AA6H         LINE#         915
  C:3AAFH         LINE#         916
  C:3AB1H         LINE#         917
  C:3AB9H         LINE#         918
  C:3AB9H         LINE#         919
  C:3AC5H         LINE#         920
  C:3AD4H         LINE#         921
  C:3AD4H         LINE#         922
  C:3ADCH         LINE#         923
  C:3ADCH         LINE#         924
  C:3ADCH         LINE#         926
  C:3ADCH         LINE#         927
  C:3ADCH         LINE#         928
  C:3ADCH         LINE#         929
  -------         ENDPROC       _PCT_SHOWSPEAKICON
  C:3169H         SYMBOL        L?0549
  C:3175H         SYMBOL        L?0557
  C:3181H         SYMBOL        L?0562
  C:318DH         SYMBOL        L?0571
  C:3199H         SYMBOL        L?0575
  C:31A3H         SYMBOL        L?0576
  C:31AFH         SYMBOL        L?0579
  C:31B9H         SYMBOL        L?0585
  C:31C5H         SYMBOL        L?0589
  C:31CFH         SYMBOL        L?0590
  C:31DBH         SYMBOL        L?0597
  C:31E5H         SYMBOL        L?0600
  C:31EDH         SYMBOL        L?0601
  C:31F9H         SYMBOL        L?0607
  C:3203H         SYMBOL        L?0613
  C:320BH         SYMBOL        L?0628
  C:3215H         SYMBOL        L?0629
  -------         PROC          PCT_SHOWVLOSS
  -------         DO            
  D:005FH         SYMBOL        tmpsta
  -------         ENDDO         
  C:2C9BH         LINE#         951
  C:2C9BH         LINE#         952
  C:2C9BH         LINE#         954
  C:2CA7H         LINE#         955
  C:2CD4H         LINE#         957
  C:2CD4H         LINE#         958
BL51 BANKED LINKER/LOCATER V6.22                                                      11/30/2015  09:53:45  PAGE 65


  C:2CE5H         LINE#         959
  C:2CF0H         LINE#         961
  C:2CF4H         LINE#         962
  C:2CF7H         LINE#         964
  C:2CF7H         LINE#         965
  C:2CF7H         LINE#         967
  C:2CF7H         LINE#         968
  C:2D08H         LINE#         969
  C:2D13H         LINE#         971
  C:2D16H         LINE#         972
  C:2D2AH         LINE#         973
  C:2D35H         LINE#         975
  C:2D39H         LINE#         976
  C:2D3CH         LINE#         978
  C:2D3CH         LINE#         979
  C:2D4DH         LINE#         980
  C:2D5EH         LINE#         982
  C:2D63H         LINE#         983
  C:2D77H         LINE#         984
  C:2D84H         LINE#         986
  C:2D87H         LINE#         987
  C:2D9BH         LINE#         988
  C:2DA6H         LINE#         990
  C:2DAAH         LINE#         991
  C:2DADH         LINE#         993
  C:2DADH         LINE#         994
  C:2DADH         LINE#         996
  C:2DADH         LINE#         997
  C:2DBEH         LINE#         998
  C:2DC9H         LINE#         1000
  C:2DCCH         LINE#         1001
  C:2DE0H         LINE#         1002
  C:2DEBH         LINE#         1004
  C:2DEEH         LINE#         1005
  C:2E02H         LINE#         1006
  C:2E0DH         LINE#         1008
  C:2E11H         LINE#         1009
  C:2E14H         LINE#         1011
  C:2E14H         LINE#         1012
  C:2E25H         LINE#         1013
  C:2E30H         LINE#         1015
  C:2E33H         LINE#         1016
  C:2E47H         LINE#         1017
  C:2E54H         LINE#         1019
  C:2E5CH         LINE#         1020
  C:2E70H         LINE#         1021
  C:2E7BH         LINE#         1023
  C:2E7FH         LINE#         1024
  C:2E82H         LINE#         1026
  C:2E82H         LINE#         1027
  C:2E93H         LINE#         1028
  C:2E9EH         LINE#         1030
  C:2EA1H         LINE#         1031
  C:2EB5H         LINE#         1032
  C:2EC0H         LINE#         1034
  C:2EC3H         LINE#         1035
  C:2ED7H         LINE#         1036
BL51 BANKED LINKER/LOCATER V6.22                                                      11/30/2015  09:53:45  PAGE 66


  C:2EE8H         LINE#         1038
  C:2EEBH         LINE#         1039
  C:2EFFH         LINE#         1040
  C:2F0AH         LINE#         1042
  C:2F0EH         LINE#         1043
  C:2F11H         LINE#         1046
  C:2F11H         LINE#         1047
  C:2F22H         LINE#         1048
  C:2F2FH         LINE#         1050
  C:2F37H         LINE#         1051
  C:2F3AH         LINE#         1053
  C:2F3AH         LINE#         1054
  C:2F3AH         LINE#         1056
  C:2F3AH         LINE#         1057
  C:2F4BH         LINE#         1058
  C:2F58H         LINE#         1060
  C:2F5BH         LINE#         1061
  C:2F6FH         LINE#         1062
  C:2F7CH         LINE#         1064
  C:2F84H         LINE#         1065
  C:2F87H         LINE#         1067
  C:2F87H         LINE#         1068
  C:2F98H         LINE#         1069
  C:2FA9H         LINE#         1071
  C:2FAEH         LINE#         1072
  C:2FC2H         LINE#         1073
  C:2FCDH         LINE#         1075
  C:2FD0H         LINE#         1076
  C:2FE4H         LINE#         1077
  C:2FF1H         LINE#         1079
  C:2FF4H         LINE#         1080
  C:2FF7H         LINE#         1082
  C:2FF7H         LINE#         1083
  C:2FF7H         LINE#         1085
  C:2FF7H         LINE#         1086
  C:3008H         LINE#         1087
  C:3015H         LINE#         1089
  C:3018H         LINE#         1090
  C:302CH         LINE#         1091
  C:3037H         LINE#         1093
  C:303AH         LINE#         1094
  C:304EH         LINE#         1095
  C:305BH         LINE#         1097
  C:305EH         LINE#         1098
  C:3061H         LINE#         1100
  C:3061H         LINE#         1101
  C:3072H         LINE#         1102
  C:307DH         LINE#         1104
  C:3080H         LINE#         1105
  C:3094H         LINE#         1106
  C:30A5H         LINE#         1108
  C:30B0H         LINE#         1109
  C:30C4H         LINE#         1110
  C:30D1H         LINE#         1112
  C:30D9H         LINE#         1113
  C:30DCH         LINE#         1115
  C:30DCH         LINE#         1116
BL51 BANKED LINKER/LOCATER V6.22                                                      11/30/2015  09:53:45  PAGE 67


  C:30EDH         LINE#         1117
  C:30F8H         LINE#         1119
  C:30FBH         LINE#         1120
  C:310FH         LINE#         1121
  C:311AH         LINE#         1123
  C:311DH         LINE#         1124
  C:3131H         LINE#         1125
  C:313CH         LINE#         1127
  C:313FH         LINE#         1128
  C:3153H         LINE#         1129
  C:3162H         LINE#         1131
  C:3168H         LINE#         1132
  C:3168H         LINE#         1134
  C:3168H         LINE#         1135
  C:3168H         LINE#         1136
  C:3168H         LINE#         1137
  -------         ENDPROC       PCT_SHOWVLOSS
  C:985DH         SYMBOL        L?0636
  -------         PROC          PCT_SHOWMODEICON
  C:9823H         LINE#         1143
  C:9823H         LINE#         1144
  C:9823H         LINE#         1145
  C:9828H         LINE#         1147
  C:9833H         LINE#         1148
  C:9833H         LINE#         1149
  C:9833H         LINE#         1150
  C:9833H         LINE#         1151
  C:9836H         LINE#         1152
  C:983FH         LINE#         1153
  C:983FH         LINE#         1154
  C:9841H         LINE#         1156
  C:9841H         LINE#         1157
  C:9841H         LINE#         1158
  C:9844H         LINE#         1159
  C:9857H         LINE#         1160
  C:985CH         LINE#         1161
  C:985CH         LINE#         1163
  C:985CH         LINE#         1164
  C:985CH         LINE#         1165
  C:985CH         LINE#         1166
  -------         ENDPROC       PCT_SHOWMODEICON
  -------         PROC          PCT_OSDACTIONFORHS
  C:A1A2H         LINE#         1172
  C:A1A2H         LINE#         1173
  C:A1A2H         LINE#         1174
  C:A1A7H         LINE#         1175
  C:A1AEH         LINE#         1177
  C:A1B7H         LINE#         1179
  C:A1C0H         LINE#         1182
  C:A1C0H         LINE#         1183
  C:A1C3H         LINE#         1184
  -------         ENDPROC       PCT_OSDACTIONFORHS
  -------         ENDMOD        OSDACTION_

  -------         MODULE        OSDCTRL
  C:0000H         SYMBOL        _ICE_DUMMY_
  D:0080H         PUBLIC        P0
BL51 BANKED LINKER/LOCATER V6.22                                                      11/30/2015  09:53:45  PAGE 68


  D:0090H         PUBLIC        P1
  D:00A0H         PUBLIC        P2
  C:16F8H         PUBLIC        FONT_TABLE
  D:00C0H         PUBLIC        XICON
  D:00B0H         PUBLIC        P3
  D:00E8H         PUBLIC        P4
  C:834CH         PUBLIC        _PCT_FullColorOnOSD
  C:9C71H         PUBLIC        _PCT_EnShowOSDPage
  D:00A8H         PUBLIC        IE
  D:0059H         PUBLIC        backColor
  D:00B8H         PUBLIC        IP
  D:00D8H         PUBLIC        CCON
  C:A636H         PUBLIC        _PCT_PreSetBackgroundColor
  C:81E9H         PUBLIC        _PCT_ClearWordsPathX
  D:005AH         PUBLIC        foreColor
  D:00C0H         PUBLIC        WDTC
  D:0098H         PUBLIC        SCON
  D:0088H         PUBLIC        TCON
  C:74CAH         PUBLIC        _PCT_WriteOSDFntX
  C:7A68H         PUBLIC        _PCT_WriteOSDFntY
  C:A633H         PUBLIC        _PCT_PreSetForegroundColor
  C:7390H         PUBLIC        PCT_InitOSDColor
  B:0022H.0       PUBLIC        DAT_BIT0
  B:0022H.1       PUBLIC        DAT_BIT1
  B:0022H.2       PUBLIC        DAT_BIT2
  B:0022H.3       PUBLIC        DAT_BIT3
  B:0022H.4       PUBLIC        DAT_BIT4
  B:0022H.5       PUBLIC        DAT_BIT5
  C:90ABH         PUBLIC        _PCT_ShowOSDString
  B:0022H.6       PUBLIC        DAT_BIT6
  B:0022H.7       PUBLIC        DAT_BIT7
  D:00F8H         PUBLIC        IPA
  C:9163H         PUBLIC        _PCT_SetOSDColor
  D:00C8H         PUBLIC        T2CON
  C:A274H         PUBLIC        _PCT_SetOSDDrawPage
  C:65C7H         PUBLIC        _PCT_WriteOSDDataBufferX
  C:A326H         PUBLIC        _PCT_ClearOSDPageX
  C:75EEH         PUBLIC        _PCT_WriteOSDDataBufferY
  C:9D7BH         PUBLIC        _PCT_DisShowOSDPage
  D:00D0H         PUBLIC        PSW
  D:0022H         PUBLIC        bitdat
  C:6A2BH         SYMBOL        Com0082
  C:6A2BH         SYMBOL        L?0131
  C:6A2BH         SYMBOL        L?0132
  C:6A30H         SYMBOL        L?0133
  C:6A33H         SYMBOL        L?0134
  C:6A34H         SYMBOL        L?0135
  C:6A3BH         SYMBOL        L?0136
  C:6A47H         SYMBOL        L?0137
  C:6A49H         SYMBOL        L?0138
  C:6A51H         SYMBOL        L?0144
  C:6A5EH         SYMBOL        L?0145
  C:6A61H         SYMBOL        L?0146
  C:6A68H         SYMBOL        L?0147
  C:6A69H         SYMBOL        L?0148
  C:6A6AH         SYMBOL        L?0149
  C:6A6CH         SYMBOL        L?0150
BL51 BANKED LINKER/LOCATER V6.22                                                      11/30/2015  09:53:45  PAGE 69


  C:6A73H         SYMBOL        L?0152
  C:6A7CH         SYMBOL        L?0153
  C:6A87H         SYMBOL        L?0154
  C:6A8FH         SYMBOL        L?0155
  C:6A9CH         SYMBOL        L?0156
  C:6A9EH         SYMBOL        L?0157
  C:6AA1H         SYMBOL        L?0158
  C:6AA9H         SYMBOL        L?0159
  C:6AABH         SYMBOL        L?0160
  C:6AAEH         SYMBOL        L?0161
  C:6AB6H         SYMBOL        L?0162
  C:6AB8H         SYMBOL        L?0163
  C:6ABBH         SYMBOL        L?0164
  C:6AC3H         SYMBOL        L?0166
  C:6AC3H         SYMBOL        L?0167
  C:6AD0H         SYMBOL        L?0168
  C:6AD0H         SYMBOL        L?0169
  C:6AE0H         SYMBOL        L?0170
  C:6AFBH         SYMBOL        L?0171
  C:6B13H         SYMBOL        L?0172
  C:6B2BH         SYMBOL        L?0174
  C:6B2BH         SYMBOL        L?0175
  C:6B2DH         SYMBOL        L?0176
  C:6B34H         SYMBOL        L?0177
  C:6B34H         SYMBOL        L?0178
  C:6B37H         SYMBOL        L?0179
  C:6B3FH         SYMBOL        L?0181
  C:6B43H         SYMBOL        L?0182
  C:6B4BH         SYMBOL        L?0184
  C:6B4EH         SYMBOL        L?0185
  C:6B56H         SYMBOL        L?0186
  C:6B64H         SYMBOL        L?0187
  C:6B71H         SYMBOL        L?0188
  C:6B7DH         SYMBOL        L?0190
  C:6B7EH         SYMBOL        L?0191
  C:6B85H         SYMBOL        L?0192
  C:6B85H         SYMBOL        L?0193
  C:6B8BH         SYMBOL        L?0194
  -------         PROC          COM0082
  -------         ENDPROC       COM0082
  -------         PROC          _PCT_PRESETFOREGROUNDCOLOR
  D:0007H         SYMBOL        _color
  C:A633H         LINE#         82
  C:A633H         LINE#         83
  C:A633H         LINE#         84
  C:A635H         LINE#         86
  -------         ENDPROC       _PCT_PRESETFOREGROUNDCOLOR
  -------         PROC          _PCT_PRESETBACKGROUNDCOLOR
  D:0007H         SYMBOL        _color
  C:A636H         LINE#         92
  C:A636H         LINE#         93
  C:A636H         LINE#         94
  C:A638H         LINE#         96
  -------         ENDPROC       _PCT_PRESETBACKGROUNDCOLOR
  C:91B4H         SYMBOL        L?0183
  -------         PROC          _PCT_SETOSDCOLOR
  X:01D5H         SYMBOL        _pth
BL51 BANKED LINKER/LOCATER V6.22                                                      11/30/2015  09:53:45  PAGE 70


  X:01D6H         SYMBOL        _col_num
  D:0003H         SYMBOL        _y
  X:01D8H         SYMBOL        _cb
  X:01D9H         SYMBOL        _cr
  C:9163H         LINE#         102
  C:916BH         LINE#         103
  C:916BH         LINE#         104
  C:9175H         LINE#         105
  C:9182H         LINE#         106
  C:9193H         LINE#         107
  C:919AH         LINE#         108
  C:91A0H         LINE#         110
  C:91B3H         LINE#         111
  -------         ENDPROC       _PCT_SETOSDCOLOR
  C:7490H         SYMBOL        L?0139
  C:749BH         SYMBOL        L?0141
  C:74A6H         SYMBOL        L?0143
  C:74AFH         SYMBOL        L?0151
  C:74B8H         SYMBOL        L?0165
  C:74C1H         SYMBOL        L?0173
  -------         PROC          PCT_INITOSDCOLOR
  C:7390H         LINE#         117
  C:7390H         LINE#         118
  C:7390H         LINE#         119
  C:739FH         LINE#         120
  C:73AAH         LINE#         121
  C:73AFH         LINE#         122
  C:73BDH         LINE#         123
  C:73C9H         LINE#         125
  C:73D4H         LINE#         126
  C:73DCH         LINE#         127
  C:73EAH         LINE#         128
  C:73F6H         LINE#         129
  C:7402H         LINE#         130
  C:740EH         LINE#         131
  C:741AH         LINE#         132
  C:7426H         LINE#         133
  C:7434H         LINE#         134
  C:7446H         LINE#         135
  C:7459H         LINE#         136
  C:746CH         LINE#         137
  C:747EH         LINE#         138
  C:748AH         LINE#         140
  C:748DH         LINE#         141
  C:748FH         LINE#         142
  -------         ENDPROC       PCT_INITOSDCOLOR
  -------         PROC          _PCT_SETOSDDRAWPAGE
  X:01DDH         SYMBOL        _page
  C:A274H         LINE#         148
  C:A278H         LINE#         149
  C:A278H         LINE#         150
  C:A28DH         LINE#         151
  -------         ENDPROC       _PCT_SETOSDDRAWPAGE
  C:9C92H         SYMBOL        L?0180
  -------         PROC          _PCT_ENSHOWOSDPAGE
  X:01DDH         SYMBOL        _page
  C:9C71H         LINE#         158
BL51 BANKED LINKER/LOCATER V6.22                                                      11/30/2015  09:53:45  PAGE 71


  C:9C76H         LINE#         159
  C:9C76H         LINE#         160
  C:9C7EH         LINE#         161
  C:9C81H         LINE#         162
  C:9C83H         LINE#         163
  C:9C85H         LINE#         164
  C:9C89H         LINE#         165
  C:9C91H         LINE#         166
  C:9C91H         LINE#         167
  -------         ENDPROC       _PCT_ENSHOWOSDPAGE
  -------         PROC          _PCT_DISSHOWOSDPAGE
  X:01DDH         SYMBOL        _bit
  -------         DO            
  X:01DEH         SYMBOL        dat
  -------         ENDDO         
  C:9D7BH         LINE#         173
  C:9D7FH         LINE#         174
  C:9D7FH         LINE#         176
  C:9D91H         LINE#         177
  -------         ENDPROC       _PCT_DISSHOWOSDPAGE
  -------         PROC          _PCT_FULLCOLORONOSD
  X:01DDH         SYMBOL        _posx
  X:01DEH         SYMBOL        _posy
  X:01E0H         SYMBOL        _wide
  X:01E1H         SYMBOL        _high
  C:834CH         LINE#         186
  C:834FH         LINE#         187
  C:834FH         LINE#         188
  C:8355H         LINE#         189
  C:835BH         LINE#         190
  C:8361H         LINE#         191
  C:8367H         LINE#         193
  C:836EH         LINE#         194
  C:8383H         LINE#         195
  C:8392H         LINE#         196
  C:83ADH         LINE#         198
  C:83B4H         LINE#         199
  C:83BDH         LINE#         200
  C:83C6H         LINE#         201
  C:83CFH         LINE#         202
  C:83DCH         LINE#         204
  C:83EBH         LINE#         205
  C:83F5H         LINE#         206
  -------         ENDPROC       _PCT_FULLCOLORONOSD
  -------         PROC          _PCT_CLEAROSDPAGEX
  D:0007H         SYMBOL        _page
  C:A326H         LINE#         208
  C:A326H         LINE#         209
  C:A326H         LINE#         210
  C:A329H         LINE#         212
  C:A32EH         LINE#         213
  -------         ENDPROC       _PCT_CLEAROSDPAGEX
  C:66FBH         SYMBOL        L?0129
  C:671DH         SYMBOL        L?0140
  C:672CH         SYMBOL        L?0142
  C:673BH         SYMBOL        L?0189
  -------         PROC          _PCT_WRITEOSDDATABUFFERX
BL51 BANKED LINKER/LOCATER V6.22                                                      11/30/2015  09:53:45  PAGE 72


  X:03B3H         SYMBOL        _index
  X:03B4H         SYMBOL        _dat
  C:65C7H         LINE#         225
  C:65D1H         LINE#         226
  C:65D1H         LINE#         227
  C:65DCH         LINE#         228
  C:65ECH         LINE#         229
  C:65F8H         LINE#         230
  C:6604H         LINE#         231
  C:660DH         LINE#         232
  C:6610H         LINE#         233
  C:6616H         LINE#         235
  C:6629H         LINE#         236
  C:6635H         LINE#         237
  C:6641H         LINE#         238
  C:664AH         LINE#         239
  C:664DH         LINE#         240
  C:6652H         LINE#         242
  C:665AH         LINE#         243
  C:666DH         LINE#         244
  C:667DH         LINE#         245
  C:668DH         LINE#         246
  C:669AH         LINE#         247
  C:66A0H         LINE#         248
  C:66A5H         LINE#         250
  C:66B8H         LINE#         251
  C:66CBH         LINE#         252
  C:66DEH         LINE#         253
  C:66F1H         LINE#         254
  C:66FBH         LINE#         255
  -------         ENDPROC       _PCT_WRITEOSDDATABUFFERX
  -------         PROC          _PCT_WRITEOSDFNTX
  D:0007H         SYMBOL        _posx
  X:0371H         SYMBOL        _posy
  X:0373H         SYMBOL        _len
  X:0374H         SYMBOL        _indx
  -------         DO            
  D:004CH         SYMBOL        i
  D:004DH         SYMBOL        j
  D:004EH         SYMBOL        posx
  X:0377H         SYMBOL        charPtr
  -------         ENDDO         
  C:74CAH         LINE#         265
  C:74D1H         LINE#         266
  C:74D1H         LINE#         270
  C:74D4H         LINE#         271
  C:74D9H         LINE#         272
  C:74ECH         LINE#         273
  C:74F8H         LINE#         274
  C:7507H         LINE#         275
  C:7516H         LINE#         276
  C:7528H         LINE#         277
  C:753AH         LINE#         279
  C:7546H         LINE#         280
  C:7553H         LINE#         281
  C:7587H         LINE#         282
  C:758FH         LINE#         283
BL51 BANKED LINKER/LOCATER V6.22                                                      11/30/2015  09:53:45  PAGE 73


  C:7598H         LINE#         285
  C:75A1H         LINE#         286
  C:75ADH         LINE#         287
  C:75B7H         LINE#         289
  C:75C2H         LINE#         290
  C:75CEH         LINE#         291
  C:75D8H         LINE#         293
  C:75E6H         LINE#         294
  C:75EDH         LINE#         295
  -------         ENDPROC       _PCT_WRITEOSDFNTX
  -------         PROC          _PCT_CLEARWORDSPATHX
  X:01E0H         SYMBOL        _posx
  X:01E1H         SYMBOL        _posy
  X:01E3H         SYMBOL        _len
  -------         DO            
  X:01E4H         SYMBOL        wide
  X:01E5H         SYMBOL        high
  -------         ENDDO         
  C:81E9H         LINE#         304
  C:81ECH         LINE#         305
  C:81ECH         LINE#         309
  C:81F2H         LINE#         310
  C:81F8H         LINE#         311
  C:81FEH         LINE#         312
  C:8204H         LINE#         314
  C:820CH         LINE#         315
  C:820FH         LINE#         316
  C:821FH         LINE#         317
  C:822BH         LINE#         319
  C:823FH         LINE#         320
  C:8253H         LINE#         322
  C:825DH         LINE#         323
  C:8266H         LINE#         324
  C:826FH         LINE#         325
  C:8278H         LINE#         326
  C:8285H         LINE#         328
  C:8294H         LINE#         329
  C:829EH         LINE#         330
  -------         ENDPROC       _PCT_CLEARWORDSPATHX
  -------         PROC          _PCT_WRITEOSDDATABUFFERY
  X:03B7H         SYMBOL        _index
  X:03B8H         SYMBOL        _dat
  C:75EEH         LINE#         336
  C:75F8H         LINE#         337
  C:75F8H         LINE#         338
  C:7603H         LINE#         339
  C:7622H         LINE#         340
  C:7641H         LINE#         341
  C:7660H         LINE#         342
  C:767FH         LINE#         343
  C:7685H         LINE#         345
  C:7690H         LINE#         346
  C:76AFH         LINE#         347
  C:76CEH         LINE#         348
  C:76EDH         LINE#         349
  C:770CH         LINE#         350
  -------         ENDPROC       _PCT_WRITEOSDDATABUFFERY
BL51 BANKED LINKER/LOCATER V6.22                                                      11/30/2015  09:53:45  PAGE 74


  -------         PROC          _PCT_WRITEOSDFNTY
  X:0337H         SYMBOL        _posx
  X:0338H         SYMBOL        _posy
  X:033AH         SYMBOL        _len
  X:033BH         SYMBOL        _indx
  -------         DO            
  D:005BH         SYMBOL        i
  D:005CH         SYMBOL        j
  X:033EH         SYMBOL        charPtr
  -------         ENDDO         
  C:7A68H         LINE#         362
  C:7A72H         LINE#         363
  C:7A72H         LINE#         367
  C:7A7AH         LINE#         368
  C:7A7DH         LINE#         369
  C:7A8DH         LINE#         370
  C:7A99H         LINE#         372
  C:7AA5H         LINE#         373
  C:7AB3H         LINE#         374
  C:7ACBH         LINE#         376
  C:7AD8H         LINE#         377
  C:7B00H         LINE#         378
  C:7B0AH         LINE#         379
  C:7B13H         LINE#         380
  C:7B2EH         LINE#         381
  C:7B3AH         LINE#         382
  C:7B44H         LINE#         383
  C:7B52H         LINE#         384
  C:7B59H         LINE#         385
  -------         ENDPROC       _PCT_WRITEOSDFNTY
  -------         PROC          _PCT_SHOWOSDSTRING
  X:0383H         SYMBOL        _path
  X:0384H         SYMBOL        _addrx
  X:0385H         SYMBOL        _addry
  X:0386H         SYMBOL        _strptr
  -------         DO            
  X:0389H         SYMBOL        slen
  -------         ENDDO         
  C:90ABH         LINE#         391
  C:90B2H         LINE#         392
  C:90B2H         LINE#         395
  C:90BDH         LINE#         396
  C:90C4H         LINE#         397
  C:90CBH         LINE#         398
  C:90CBH         LINE#         399
  C:90D8H         LINE#         400
  C:90DFH         LINE#         401
  C:90E2H         LINE#         402
  C:90E2H         LINE#         403
  C:90E7H         LINE#         404
  C:90E9H         LINE#         405
  C:90E9H         LINE#         406
  C:90F6H         LINE#         407
  C:90FDH         LINE#         408
  C:9100H         LINE#         409
  C:9100H         LINE#         410
  C:9105H         LINE#         411
BL51 BANKED LINKER/LOCATER V6.22                                                      11/30/2015  09:53:45  PAGE 75


  C:9105H         LINE#         412
  C:9108H         LINE#         413
  -------         ENDPROC       _PCT_SHOWOSDSTRING
  -------         ENDMOD        OSDCTRL

  -------         MODULE        TIMER
  C:0000H         SYMBOL        _ICE_DUMMY_
  D:0080H         PUBLIC        P0
  D:0090H         PUBLIC        P1
  D:00A0H         PUBLIC        P2
  D:00C0H         PUBLIC        XICON
  D:00B0H         PUBLIC        P3
  C:A5C9H         PUBLIC        InitialTimer0
  D:00E8H         PUBLIC        P4
  C:A2D0H         PUBLIC        InitialTimer2
  B:00A8H.7       PUBLIC        EA
  C:A542H         PUBLIC        Timer0_interrupt
  C:7C49H         PUBLIC        Timer2_interrupt
  D:00A8H         PUBLIC        IE
  D:00B8H         PUBLIC        IP
  D:00D8H         PUBLIC        CCON
  D:00C0H         PUBLIC        WDTC
  D:0098H         PUBLIC        SCON
  D:0088H         PUBLIC        TCON
  D:0040H         PUBLIC        user_timer
  B:0088H.5       PUBLIC        TF0
  B:00A8H.5       PUBLIC        ET2
  B:00C8H.7       PUBLIC        TF2
  D:008CH         PUBLIC        TH0
  D:00CDH         PUBLIC        TH2
  D:008AH         PUBLIC        TL0
  D:00CCH         PUBLIC        TL2
  B:00B8H.5       PUBLIC        PT2
  B:0088H.4       PUBLIC        TR0
  B:00C8H.2       PUBLIC        TR2
  D:00F8H         PUBLIC        IPA
  D:00C9H         PUBLIC        T2MOD
  D:00C8H         PUBLIC        T2CON
  D:00D0H         PUBLIC        PSW
  -------         PROC          INITIALTIMER0
  C:A5C9H         LINE#         70
  C:A5C9H         LINE#         82
  C:A5CBH         LINE#         89
  C:A5CEH         LINE#         101
  C:A5D1H         LINE#         109
  -------         ENDPROC       INITIALTIMER0
  -------         PROC          INITIALTIMER2
  -------         DO            
  D:0007H         SYMBOL        i
  -------         ENDDO         
  C:A2D0H         LINE#         113
  C:A2D0H         LINE#         114
  C:A2D0H         LINE#         117
  C:A2D2H         LINE#         118
  C:A2D4H         LINE#         119
  C:A2D6H         LINE#         120
  C:A2D9H         LINE#         121
BL51 BANKED LINKER/LOCATER V6.22                                                      11/30/2015  09:53:45  PAGE 76


  C:A2DCH         LINE#         123
  C:A2DEH         LINE#         124
  C:A2E1H         LINE#         125
  C:A2E3H         LINE#         127
  C:A2E3H         LINE#         128
  C:A2ECH         LINE#         130
  -------         ENDPROC       INITIALTIMER2
  -------         PROC          TIMER0_INTERRUPT
  C:A542H         LINE#         141
  C:A542H         LINE#         144
  C:A544H         LINE#         145
  C:A547H         LINE#         146
  C:A54AH         LINE#         147
  C:A54CH         LINE#         155
  C:A54EH         LINE#         156
  -------         ENDPROC       TIMER0_INTERRUPT
  -------         PROC          TIMER2_INTERRUPT
  C:7C49H         LINE#         160
  C:7C51H         LINE#         163
  C:7C53H         LINE#         164
  C:7C56H         LINE#         165
  C:7C59H         LINE#         170
  C:7C5BH         LINE#         174
  C:7C70H         LINE#         175
  C:7C85H         LINE#         176
  C:7C9AH         LINE#         178
  C:7CAFH         LINE#         180
  C:7CC4H         LINE#         181
  C:7CD9H         LINE#         183
  C:7CF4H         LINE#         184
  C:7D0FH         LINE#         190
  C:7D1BH         LINE#         191
  C:7D1DH         LINE#         192
  -------         ENDPROC       TIMER2_INTERRUPT
  -------         ENDMOD        TIMER

  -------         MODULE        TW28XX_AUDIO
  C:0000H         SYMBOL        _ICE_DUMMY_
  D:0080H         PUBLIC        P0
  D:0090H         PUBLIC        P1
  D:00A0H         PUBLIC        P2
  D:00C0H         PUBLIC        XICON
  D:00B0H         PUBLIC        P3
  D:00E8H         PUBLIC        P4
  C:8B07H         PUBLIC        _PCT_AudioMixCtrl
  C:9CA7H         PUBLIC        _PCT_AudioMixMute
  D:00A8H         PUBLIC        IE
  D:00B8H         PUBLIC        IP
  D:00D8H         PUBLIC        CCON
  D:00C0H         PUBLIC        WDTC
  D:0098H         PUBLIC        SCON
  D:0088H         PUBLIC        TCON
  C:8BE8H         PUBLIC        _PCT_AudioGainCtrl
  D:00F8H         PUBLIC        IPA
  D:00C8H         PUBLIC        T2CON
  C:9E13H         PUBLIC        _PCT_AudioSelLive
  D:00D0H         PUBLIC        PSW
BL51 BANKED LINKER/LOCATER V6.22                                                      11/30/2015  09:53:45  PAGE 77


  C:5ED2H         PUBLIC        PCT_AudioRegList
  C:9C03H         SYMBOL        Com0016
  C:9C03H         SYMBOL        L?0023
  C:9C06H         SYMBOL        L?0024
  C:9C12H         SYMBOL        L?0025
  C:9C1EH         SYMBOL        L?0027
  C:9C22H         SYMBOL        L?0028
  C:9C2EH         SYMBOL        L?0030
  -------         PROC          COM0016
  -------         ENDPROC       COM0016
  C:5FC4H         SYMBOL        L?0013
  C:5FD9H         SYMBOL        L?0014
  C:5FEEH         SYMBOL        L?0015
  C:6003H         SYMBOL        L?0016
  C:6018H         SYMBOL        L?0017
  C:602DH         SYMBOL        L?0018
  C:6042H         SYMBOL        L?0019
  C:6057H         SYMBOL        L?0020
  C:606CH         SYMBOL        L?0021
  C:6081H         SYMBOL        L?0026
  C:6096H         SYMBOL        L?0029
  -------         PROC          PCT_AUDIOREGLIST
  C:5ED2H         LINE#         60
  C:5ED2H         LINE#         61
  C:5ED2H         LINE#         62
  C:5EDDH         LINE#         63
  C:5EE8H         LINE#         64
  C:5EF3H         LINE#         65
  C:5EFEH         LINE#         66
  C:5F09H         LINE#         68
  C:5F14H         LINE#         69
  C:5F1FH         LINE#         70
  C:5F2AH         LINE#         71
  C:5F35H         LINE#         72
  C:5F40H         LINE#         73
  C:5F4BH         LINE#         74
  C:5F56H         LINE#         75
  C:5F61H         LINE#         77
  C:5F6CH         LINE#         78
  C:5F77H         LINE#         79
  C:5F82H         LINE#         80
  C:5F8DH         LINE#         81
  C:5F98H         LINE#         83
  C:5FA3H         LINE#         84
  C:5FAEH         LINE#         85
  C:5FB9H         LINE#         86
  C:5FC4H         LINE#         87
  -------         ENDPROC       PCT_AUDIOREGLIST
  -------         PROC          _PCT_AUDIOGAINCTRL
  D:0007H         SYMBOL        _dvc
  X:03CCH         SYMBOL        _channel
  X:03CDH         SYMBOL        _gain
  -------         DO            
  D:0004H         SYMBOL        dat
  X:03CEH         SYMBOL        result
  C:998DH         SYMBOL        chanData
  -------         ENDDO         
BL51 BANKED LINKER/LOCATER V6.22                                                      11/30/2015  09:53:45  PAGE 78


  C:8BE8H         LINE#         93
  C:8BF2H         LINE#         94
  C:8BF2H         LINE#         110
  C:8BF4H         LINE#         111
  C:8C01H         LINE#         113
  C:8C11H         LINE#         114
  C:8C30H         LINE#         116
  C:8C40H         LINE#         117
  C:8C50H         LINE#         118
  C:8C52H         LINE#         119
  -------         ENDPROC       _PCT_AUDIOGAINCTRL
  -------         PROC          _PCT_AUDIOMIXCTRL
  X:03BBH         SYMBOL        _dvc
  X:03BCH         SYMBOL        _channel
  X:03BDH         SYMBOL        _gain
  -------         DO            
  D:0004H         SYMBOL        dat
  X:03BEH         SYMBOL        result
  C:99A1H         SYMBOL        chanData
  -------         ENDDO         
  C:8B07H         LINE#         126
  C:8B12H         LINE#         127
  C:8B12H         LINE#         143
  C:8B17H         LINE#         144
  C:8B22H         LINE#         146
  C:8B32H         LINE#         147
  C:8B51H         LINE#         149
  C:8B5EH         LINE#         150
  C:8B6BH         LINE#         152
  C:8B75H         LINE#         153
  C:8B77H         LINE#         154
  -------         ENDPROC       _PCT_AUDIOMIXCTRL
  -------         PROC          _PCT_AUDIOMIXMUTE
  D:0007H         SYMBOL        _dvc
  X:03D5H         SYMBOL        _ch
  X:03D6H         SYMBOL        _ctrl
  -------         DO            
  D:0060H         SYMBOL        dat
  -------         ENDDO         
  C:9CA7H         LINE#         160
  C:9CAFH         LINE#         161
  C:9CAFH         LINE#         167
  C:9CB1H         LINE#         168
  C:9CB9H         LINE#         169
  C:9CC3H         LINE#         170
  C:9CC7H         LINE#         171
  C:9CC9H         LINE#         172
  C:9CCCH         LINE#         173
  C:9CCCH         LINE#         174
  C:9CDAH         LINE#         176
  C:9CDCH         LINE#         177
  -------         ENDPROC       _PCT_AUDIOMIXMUTE
  -------         PROC          _PCT_AUDIOSELLIVE
  D:0007H         SYMBOL        _dvc
  X:03DDH         SYMBOL        _chan
  C:9E13H         LINE#         183
  C:9E18H         LINE#         184
BL51 BANKED LINKER/LOCATER V6.22                                                      11/30/2015  09:53:45  PAGE 79


  C:9E18H         LINE#         188
  C:9E1AH         LINE#         189
  C:9E1DH         LINE#         190
  C:9E2AH         LINE#         191
  C:9E2DH         LINE#         192
  C:9E2DH         LINE#         194
  C:9E34H         LINE#         195
  C:9E40H         LINE#         196
  C:9E42H         LINE#         197
  -------         ENDPROC       _PCT_AUDIOSELLIVE
  -------         ENDMOD        TW28XX_AUDIO

  -------         MODULE        TW28XX_VIDEO
  C:0000H         SYMBOL        _ICE_DUMMY_
  D:0080H         PUBLIC        P0
  C:99B5H         PUBLIC        _PCT_WinAttrClear
  D:0090H         PUBLIC        P1
  D:00A0H         PUBLIC        P2
  D:00C0H         PUBLIC        XICON
  D:00B0H         PUBLIC        P3
  D:00E8H         PUBLIC        P4
  C:3F17H         PUBLIC        VidoW2_ModifyACHM
  C:9AABH         PUBLIC        _PCT_WinAttrCtrlY
  C:3F0BH         PUBLIC        VidoW2_ModifyACNM
  C:93EDH         PUBLIC        _PCT_DetectVideoFormat
  D:00A8H         PUBLIC        IE
  C:3EFBH         PUBLIC        Video_HDelay
  C:3F2FH         PUBLIC        VidoW2_ModifyRBHM
  C:724FH         PUBLIC        _PCT_RecompenseYHdelay
  D:00B8H         PUBLIC        IP
  C:3F23H         PUBLIC        VidoW2_ModifyRBNM
  C:3FC8H         PUBLIC        XWinAttr_RegAddr
  D:00D8H         PUBLIC        CCON
  C:3FE8H         PUBLIC        YWinAttr_RegAddr
  C:3EDDH         PUBLIC        Video_HDelayInit
  C:5155H         PUBLIC        _PCT_SetVideoHDelay
  C:9D12H         PUBLIC        _PCT_WinAttrCtrl
  C:8499H         PUBLIC        _PCT_SetChanelScale
  D:00C0H         PUBLIC        WDTC
  D:0098H         PUBLIC        SCON
  D:0088H         PUBLIC        TCON
  C:6282H         PUBLIC        _PCT_SetXVideoMixing
  C:A40DH         PUBLIC        _PCT_SetYVideoMixing
  C:3F47H         PUBLIC        Init_Vido_Y
  C:3F3BH         PUBLIC        VidoW2_ModifyACHM_PAL
  C:86F9H         PUBLIC        PCT_VideoLastModify
  D:00F8H         PUBLIC        IPA
  C:9E43H         PUBLIC        _PCT_SetVideoFormat
  C:A1C8H         PUBLIC        _PCT_WinPOPupCtrl
  D:00C8H         PUBLIC        T2CON
  C:3BA7H         PUBLIC        Init_Vido_W1
  C:3C19H         PUBLIC        Init_Vido_W2
  C:3CA3H         PUBLIC        Init_Vido_W3
  C:3FD8H         PUBLIC        XWinPOP_RegAddr
  C:3E6BH         PUBLIC        Init_Vido_W4
  D:00D0H         PUBLIC        PSW
  C:794DH         SYMBOL        Com0076
BL51 BANKED LINKER/LOCATER V6.22                                                      11/30/2015  09:53:45  PAGE 80


  C:794DH         SYMBOL        L?0119
  C:794DH         SYMBOL        L?0120
  C:7965H         SYMBOL        L?0121
  C:7966H         SYMBOL        L?0122
  C:7969H         SYMBOL        L?0123
  C:796FH         SYMBOL        L?0124
  C:7973H         SYMBOL        L?0125
  C:7976H         SYMBOL        L?0126
  C:797FH         SYMBOL        L?0134
  C:797FH         SYMBOL        L?0135
  C:7982H         SYMBOL        L?0136
  C:7985H         SYMBOL        L?0137
  C:798CH         SYMBOL        L?0138
  C:798DH         SYMBOL        L?0139
  C:7996H         SYMBOL        L?0140
  C:79A2H         SYMBOL        L?0141
  C:79A2H         SYMBOL        L?0142
  C:79A6H         SYMBOL        L?0143
  C:79AFH         SYMBOL        L?0144
  C:79B2H         SYMBOL        L?0145
  C:79B5H         SYMBOL        L?0146
  C:79C1H         SYMBOL        L?0147
  C:79C1H         SYMBOL        L?0148
  C:79C6H         SYMBOL        L?0149
  C:79C9H         SYMBOL        L?0150
  C:79D1H         SYMBOL        L?0152
  C:79D4H         SYMBOL        L?0153
  C:79D8H         SYMBOL        L?0154
  C:79DBH         SYMBOL        L?0155
  C:79E3H         SYMBOL        L?0158
  C:79E3H         SYMBOL        L?0159
  C:79E6H         SYMBOL        L?0160
  C:79EEH         SYMBOL        L?0162
  C:7A0DH         SYMBOL        L?0165
  C:7A0DH         SYMBOL        L?0166
  C:7A10H         SYMBOL        L?0167
  C:7A19H         SYMBOL        L?0171
  C:7A19H         SYMBOL        L?0172
  C:7A21H         SYMBOL        L?0175
  C:7A21H         SYMBOL        L?0176
  C:7A28H         SYMBOL        L?0178
  C:7A28H         SYMBOL        L?0179
  C:7A30H         SYMBOL        L?0181
  C:7A3AH         SYMBOL        L?0182
  C:7A3AH         SYMBOL        L?0183
  C:7A40H         SYMBOL        L?0184
  C:7A40H         SYMBOL        L?0185
  C:7A47H         SYMBOL        L?0186
  C:7A47H         SYMBOL        L?0187
  C:7A4DH         SYMBOL        L?0188
  C:7A4DH         SYMBOL        L?0189
  C:7A54H         SYMBOL        L?0190
  C:7A5EH         SYMBOL        L?0191
  -------         PROC          COM0076
  -------         ENDPROC       COM0076
  -------         PROC          _PCT_DETECTVIDEOFORMAT
  X:01D5H         SYMBOL        _ch
BL51 BANKED LINKER/LOCATER V6.22                                                      11/30/2015  09:53:45  PAGE 81


  -------         DO            
  X:01D6H         SYMBOL        tmpSta
  -------         ENDDO         
  C:93EDH         LINE#         77
  C:93F2H         LINE#         78
  C:93F2H         LINE#         84
  C:93F5H         LINE#         86
  C:9402H         LINE#         87
  C:9415H         LINE#         90
  C:941CH         LINE#         91
  C:941FH         LINE#         92
  C:9426H         LINE#         93
  C:942CH         LINE#         94
  C:9437H         LINE#         105
  -------         ENDPROC       _PCT_DETECTVIDEOFORMAT
  -------         PROC          _PCT_SETVIDEOFORMAT
  D:0007H         SYMBOL        _dvc
  D:0005H         SYMBOL        _ch
  X:03D7H         SYMBOL        _fmat
  -------         DO            
  D:0007H         SYMBOL        tmpSta
  X:03D8H         SYMBOL        addr
  -------         ENDDO         
  C:9E43H         LINE#         111
  C:9E48H         LINE#         112
  C:9E48H         LINE#         115
  C:9E48H         LINE#         116
  C:9E53H         LINE#         117
  C:9E59H         LINE#         120
  C:9E5DH         LINE#         122
  C:9E63H         LINE#         123
  -------         ENDPROC       _PCT_SETVIDEOFORMAT
  C:84F8H         SYMBOL        L?0133
  -------         PROC          _PCT_SETCHANELSCALE
  D:0007H         SYMBOL        _ch
  X:01E4H         SYMBOL        datptr
  -------         DO            
  C:3FF0H         SYMBOL        ScaleRgeAddr
  X:01E7H         SYMBOL        addrptr
  X:01EAH         SYMBOL        value
  -------         ENDDO         
  C:8499H         LINE#         132
  C:84A0H         LINE#         133
  C:84A0H         LINE#         145
  C:84B0H         LINE#         146
  C:84C4H         LINE#         147
  C:84C9H         LINE#         148
  C:84C9H         LINE#         149
  C:84D2H         LINE#         150
  C:84DCH         LINE#         151
  C:84EFH         LINE#         152
  C:84EFH         LINE#         153
  C:84F8H         LINE#         154
  -------         ENDPROC       _PCT_SETCHANELSCALE
  C:536AH         SYMBOL        L?0127
  C:5387H         SYMBOL        L?0128
  C:53A4H         SYMBOL        L?0129
BL51 BANKED LINKER/LOCATER V6.22                                                      11/30/2015  09:53:45  PAGE 82


  C:53C1H         SYMBOL        L?0130
  C:53D9H         SYMBOL        L?0131
  C:53F3H         SYMBOL        L?0132
  C:5408H         SYMBOL        L?0151
  C:5419H         SYMBOL        L?0157
  C:5425H         SYMBOL        L?0163
  C:5431H         SYMBOL        L?0164
  C:5442H         SYMBOL        L?0173
  -------         PROC          _PCT_SETVIDEOHDELAY
  D:0007H         SYMBOL        _typ
  X:01DEH         SYMBOL        _winch
  X:01E1H         SYMBOL        _cattr
  -------         DO            
  X:01E4H         SYMBOL        hdelay
  -------         ENDDO         
  C:5155H         LINE#         157
  C:515CH         LINE#         158
  C:515CH         LINE#         166
  C:5188H         LINE#         167
  C:5188H         LINE#         168
  C:5188H         LINE#         174
  C:518EH         LINE#         175
  C:5197H         LINE#         176
  C:51A4H         LINE#         177
  C:51AAH         LINE#         179
  C:51ACH         LINE#         183
  C:51ADH         LINE#         191
  C:51AFH         LINE#         193
  C:51AFH         LINE#         194
  C:51AFH         LINE#         208
  C:51AFH         LINE#         210
  C:51AFH         LINE#         211
  C:51AFH         LINE#         213
  C:51AFH         LINE#         214
  C:51B8H         LINE#         222
  C:51C6H         LINE#         226
  C:51C6H         LINE#         227
  C:51C6H         LINE#         232
  C:51D4H         LINE#         234
  C:51D7H         LINE#         236
  C:51D7H         LINE#         237
  C:51D7H         LINE#         239
  C:51DDH         LINE#         240
  C:51E6H         LINE#         241
  C:51EEH         LINE#         242
  C:51F4H         LINE#         244
  C:51F4H         LINE#         245
  C:5200H         LINE#         246
  C:5208H         LINE#         247
  C:520EH         LINE#         249
  C:5211H         LINE#         250
  C:521AH         LINE#         251
  C:5225H         LINE#         252
  C:522FH         LINE#         253
  C:5232H         LINE#         255
  C:5232H         LINE#         256
  C:5232H         LINE#         257
BL51 BANKED LINKER/LOCATER V6.22                                                      11/30/2015  09:53:45  PAGE 83


  C:5232H         LINE#         259
  C:5232H         LINE#         260
  C:5232H         LINE#         263
  C:5232H         LINE#         264
  C:523BH         LINE#         265
  C:5243H         LINE#         266
  C:5249H         LINE#         268
  C:5249H         LINE#         269
  C:5249H         LINE#         270
  C:5251H         LINE#         271
  C:5257H         LINE#         273
  C:525AH         LINE#         274
  C:5263H         LINE#         275
  C:526EH         LINE#         276
  C:5278H         LINE#         277
  C:527BH         LINE#         279
  C:527BH         LINE#         280
  C:527BH         LINE#         283
  C:527BH         LINE#         284
  C:5284H         LINE#         285
  C:5292H         LINE#         286
  C:529EH         LINE#         288
  C:529EH         LINE#         289
  C:529EH         LINE#         290
  C:52A6H         LINE#         291
  C:52B2H         LINE#         293
  C:52B2H         LINE#         294
  C:52BEH         LINE#         295
  C:52CCH         LINE#         296
  C:52D6H         LINE#         297
  C:52D9H         LINE#         299
  C:52D9H         LINE#         300
  C:52D9H         LINE#         303
  C:52D9H         LINE#         304
  C:52E2H         LINE#         305
  C:52F0H         LINE#         306
  C:52FCH         LINE#         308
  C:52FCH         LINE#         309
  C:52FCH         LINE#         310
  C:5304H         LINE#         311
  C:5310H         LINE#         313
  C:5310H         LINE#         314
  C:531CH         LINE#         315
  C:5327H         LINE#         316
  C:5331H         LINE#         318
  C:5334H         LINE#         319
  C:533DH         LINE#         320
  C:5355H         LINE#         321
  C:5369H         LINE#         322
  C:5369H         LINE#         324
  C:5369H         LINE#         325
  C:5369H         LINE#         326
  C:5369H         LINE#         327
  -------         ENDPROC       _PCT_SETVIDEOHDELAY
  C:6402H         SYMBOL        L?0169
  C:6409H         SYMBOL        L?0170
  C:6414H         SYMBOL        L?0174
BL51 BANKED LINKER/LOCATER V6.22                                                      11/30/2015  09:53:45  PAGE 84


  C:641EH         SYMBOL        L?0192
  -------         PROC          _PCT_SETXVIDEOMIXING
  X:01DDH         SYMBOL        _typ
  X:01DEH         SYMBOL        _winch
  -------         DO            
  X:01E1H         SYMBOL        wregptr
  -------         ENDDO         
  C:6282H         LINE#         330
  C:628CH         LINE#         331
  C:628CH         LINE#         335
  C:629AH         LINE#         336
  C:62A8H         LINE#         337
  C:62BDH         LINE#         338
  C:62D2H         LINE#         347
  C:6309H         LINE#         348
  C:6309H         LINE#         349
  C:6309H         LINE#         353
  C:6319H         LINE#         354
  C:6322H         LINE#         355
  C:6322H         LINE#         356
  C:6325H         LINE#         358
  C:6325H         LINE#         359
  C:6325H         LINE#         360
  C:6325H         LINE#         361
  C:6325H         LINE#         362
  C:6335H         LINE#         363
  C:6337H         LINE#         365
  C:6343H         LINE#         367
  C:634FH         LINE#         369
  C:6354H         LINE#         370
  C:6357H         LINE#         372
  C:6357H         LINE#         373
  C:6357H         LINE#         374
  C:6357H         LINE#         375
  C:6357H         LINE#         376
  C:6357H         LINE#         377
  C:6357H         LINE#         378
  C:6357H         LINE#         379
  C:6357H         LINE#         380
  C:6367H         LINE#         381
  C:6369H         LINE#         383
  C:6375H         LINE#         384
  C:6381H         LINE#         385
  C:6396H         LINE#         386
  C:639BH         LINE#         387
  C:639EH         LINE#         389
  C:639EH         LINE#         390
  C:639EH         LINE#         391
  C:63AEH         LINE#         392
  C:63BAH         LINE#         393
  C:63CAH         LINE#         394
  C:63DDH         LINE#         395
  C:63F3H         LINE#         396
  C:6401H         LINE#         397
  C:6401H         LINE#         399
  C:6401H         LINE#         400
  C:6401H         LINE#         401
BL51 BANKED LINKER/LOCATER V6.22                                                      11/30/2015  09:53:45  PAGE 85


  C:6401H         LINE#         402
  -------         ENDPROC       _PCT_SETXVIDEOMIXING
  -------         PROC          _PCT_SETYVIDEOMIXING
  D:0007H         SYMBOL        _typ
  C:A40DH         LINE#         408
  C:A40DH         LINE#         409
  C:A40DH         LINE#         410
  -------         ENDPROC       _PCT_SETYVIDEOMIXING
  C:7359H         SYMBOL        L?0156
  C:7365H         SYMBOL        L?0161
  C:7371H         SYMBOL        L?0168
  C:737DH         SYMBOL        L?0177
  C:7384H         SYMBOL        L?0180
  -------         PROC          _PCT_RECOMPENSEYHDELAY
  X:01DDH         SYMBOL        _chmiro
  C:724FH         LINE#         414
  C:7256H         LINE#         415
  C:7256H         LINE#         416
  C:7283H         LINE#         417
  C:7283H         LINE#         419
  C:7294H         LINE#         420
  C:729EH         LINE#         421
  C:72AFH         LINE#         422
  C:72B9H         LINE#         423
  C:72CAH         LINE#         424
  C:72D7H         LINE#         425
  C:72EBH         LINE#         426
  C:72EBH         LINE#         427
  C:72EEH         LINE#         429
  C:72EEH         LINE#         430
  C:72FFH         LINE#         431
  C:7306H         LINE#         432
  C:7309H         LINE#         434
  C:7309H         LINE#         435
  C:7317H         LINE#         436
  C:731EH         LINE#         437
  C:7320H         LINE#         439
  C:7320H         LINE#         440
  C:7331H         LINE#         441
  C:7338H         LINE#         442
  C:733AH         LINE#         444
  C:733AH         LINE#         445
  C:734BH         LINE#         446
  C:7358H         LINE#         447
  C:7358H         LINE#         448
  C:7358H         LINE#         449
  -------         ENDPROC       _PCT_RECOMPENSEYHDELAY
  -------         PROC          PCT_VIDEOLASTMODIFY
  -------         DO            
  D:0061H         SYMBOL        state
  -------         ENDDO         
  C:86F9H         LINE#         457
  C:86F9H         LINE#         458
  C:86F9H         LINE#         459
  C:86FCH         LINE#         461
  C:8706H         LINE#         462
  C:8711H         LINE#         463
BL51 BANKED LINKER/LOCATER V6.22                                                      11/30/2015  09:53:45  PAGE 86


  C:871FH         LINE#         464
  C:872CH         LINE#         466
  C:874CH         LINE#         467
  C:874CH         LINE#         468
  C:874CH         LINE#         469
  C:8752H         LINE#         470
  C:8754H         LINE#         472
  C:8754H         LINE#         473
  C:8754H         LINE#         475
  C:875DH         LINE#         476
  C:8763H         LINE#         478
  C:8767H         LINE#         479
  C:8769H         LINE#         481
  C:8769H         LINE#         482
  C:8769H         LINE#         483
  C:876EH         LINE#         484
  C:8774H         LINE#         485
  C:8776H         LINE#         486
  C:8776H         LINE#         487
  C:8776H         LINE#         488
  C:877BH         LINE#         489
  C:8786H         LINE#         490
  C:8786H         LINE#         491
  C:8786H         LINE#         492
  -------         ENDPROC       PCT_VIDEOLASTMODIFY
  -------         PROC          _PCT_WINATTRCTRL
  X:01DDH         SYMBOL        _wid
  X:01DEH         SYMBOL        _attrsel
  X:01DFH         SYMBOL        _setval
  -------         DO            
  D:0004H         SYMBOL        dat
  -------         ENDDO         
  C:9D12H         LINE#         500
  C:9D1FH         LINE#         501
  C:9D1FH         LINE#         507
  C:9D29H         LINE#         508
  C:9D3BH         LINE#         509
  -------         ENDPROC       _PCT_WINATTRCTRL
  -------         PROC          _PCT_WINATTRCTRLY
  X:01DDH         SYMBOL        _wid
  X:01DEH         SYMBOL        _attrsel
  X:01DFH         SYMBOL        _setval
  -------         DO            
  D:0004H         SYMBOL        dat
  -------         ENDDO         
  C:9AABH         LINE#         518
  C:9AB8H         LINE#         519
  C:9AB8H         LINE#         524
  C:9AC5H         LINE#         525
  C:9AD7H         LINE#         526
  -------         ENDPROC       _PCT_WINATTRCTRLY
  -------         PROC          _PCT_WINATTRCLEAR
  X:03CFH         SYMBOL        _attrsel
  -------         DO            
  X:03D0H         SYMBOL        _wid
  X:03D1H         SYMBOL        dat
  -------         ENDDO         
BL51 BANKED LINKER/LOCATER V6.22                                                      11/30/2015  09:53:45  PAGE 87


  C:99B5H         LINE#         535
  C:99BAH         LINE#         536
  C:99BAH         LINE#         543
  C:99C7H         LINE#         544
  C:99D5H         LINE#         545
  C:99E0H         LINE#         546
  C:99ECH         LINE#         547
  C:99F4H         LINE#         548
  -------         ENDPROC       _PCT_WINATTRCLEAR
  -------         PROC          _PCT_WINPOPUPCTRL
  X:03DEH         SYMBOL        _wid
  -------         DO            
  D:0004H         SYMBOL        dat
  -------         ENDDO         
  C:A1C8H         LINE#         555
  C:A1CDH         LINE#         556
  C:A1CDH         LINE#         562
  C:A1DAH         LINE#         563
  C:A1DEH         LINE#         564
  -------         ENDPROC       _PCT_WINPOPUPCTRL
  -------         ENDMOD        TW28XX_VIDEO

  -------         MODULE        TW2835_INIT
  C:0000H         SYMBOL        _ICE_DUMMY_
  D:0080H         PUBLIC        P0
  D:0090H         PUBLIC        P1
  D:00A0H         PUBLIC        P2
  D:00C0H         PUBLIC        XICON
  D:00B0H         PUBLIC        P3
  D:00E8H         PUBLIC        P4
  D:00A8H         PUBLIC        IE
  C:4000H         PUBLIC        TW2835_Page0
  C:4200H         PUBLIC        TW2835_Page1
  C:98F1H         PUBLIC        PCT_InitialTW2835
  D:00B8H         PUBLIC        IP
  C:A470H         PUBLIC        PCT_TW2835ResetN
  D:00D8H         PUBLIC        CCON
  D:00C0H         PUBLIC        WDTC
  D:0098H         PUBLIC        SCON
  D:0088H         PUBLIC        TCON
  C:8EC1H         PUBLIC        _PCT_ChangeSystemType
  D:00F8H         PUBLIC        IPA
  D:00C8H         PUBLIC        T2CON
  B:00E8H.0       PUBLIC        RSTn
  C:8D8FH         PUBLIC        PCT_TW2835_Initial
  D:00D0H         PUBLIC        PSW
  C:A359H         SYMBOL        Com000C
  C:A359H         SYMBOL        L?0013
  C:A362H         SYMBOL        L?0014
  -------         PROC          COM000C
  -------         ENDPROC       COM000C
  -------         PROC          PCT_INITIALTW2835
  C:98F1H         LINE#         77
  C:98F1H         LINE#         78
  C:98F1H         LINE#         79
  C:98F4H         LINE#         80
  C:98F9H         LINE#         83
BL51 BANKED LINKER/LOCATER V6.22                                                      11/30/2015  09:53:45  PAGE 88


  C:98FEH         LINE#         84
  C:9906H         LINE#         86
  C:9914H         LINE#         87
  C:9914H         LINE#         88
  C:991EH         LINE#         92
  C:9920H         LINE#         93
  C:9920H         LINE#         95
  C:9927H         LINE#         100
  C:9929H         LINE#         101
  C:992EH         LINE#         103
  C:9931H         LINE#         105
  -------         ENDPROC       PCT_INITIALTW2835
  -------         PROC          PCT_TW2835RESETN
  -------         DO            
  D:0006H         SYMBOL        _delay
  -------         ENDDO         
  C:A470H         LINE#         113
  C:A470H         LINE#         114
  C:A470H         LINE#         129
  C:A472H         LINE#         132
  C:A480H         LINE#         134
  C:A482H         LINE#         138
  -------         ENDPROC       PCT_TW2835RESETN
  C:8DEAH         SYMBOL        L?0015
  -------         PROC          PCT_TW2835_INITIAL
  -------         DO            
  X:01D5H         SYMBOL        offset
  -------         ENDDO         
  C:8D8FH         LINE#         144
  C:8D8FH         LINE#         145
  C:8D8FH         LINE#         148
  C:8D9AH         LINE#         149
  C:8DA6H         LINE#         150
  C:8DB8H         LINE#         152
  C:8DCFH         LINE#         154
  C:8DEAH         LINE#         155
  -------         ENDPROC       PCT_TW2835_INITIAL
  C:8F19H         SYMBOL        L?0016
  -------         PROC          _PCT_CHANGESYSTEMTYPE
  D:0007H         SYMBOL        _sys
  -------         DO            
  X:0006H         SYMBOL        offset
  -------         ENDDO         
  C:8EC1H         LINE#         161
  C:8EC1H         LINE#         162
  C:8EC1H         LINE#         165
  C:8EC9H         LINE#         166
  C:8ED5H         LINE#         168
  C:8EE8H         LINE#         170
  C:8EFEH         LINE#         171
  C:8F19H         LINE#         172
  -------         ENDPROC       _PCT_CHANGESYSTEMTYPE
  -------         ENDMOD        TW2835_INIT

  -------         MODULE        NED
  C:0000H         SYMBOL        _ICE_DUMMY_
  X:020BH         PUBLIC        SC16_Com
BL51 BANKED LINKER/LOCATER V6.22                                                      11/30/2015  09:53:45  PAGE 89


  C:A621H         PUBLIC        _GPIOGetPortState
  C:A58DH         PUBLIC        _WriteI2C2
  D:0080H         PUBLIC        P0
  D:0090H         PUBLIC        P1
  C:9934H         PUBLIC        _SC16_data_reset
  D:00A0H         PUBLIC        P2
  C:A4A7H         PUBLIC        I2CStart2
  C:9B21H         PUBLIC        Sent_DVR_temp
  D:00C0H         PUBLIC        XICON
  D:00B0H         PUBLIC        P3
  C:A506H         PUBLIC        I2Cdelay2
  D:00E8H         PUBLIC        P4
  C:A61BH         PUBLIC        _Command_Check
  X:0214H         PUBLIC        DVR_temp
  X:0216H         PUBLIC        Cam_startup_flag
  C:9FA9H         PUBLIC        Get_DVR_temp
  C:8A94H         PUBLIC        _Bound_Set
  C:A515H         PUBLIC        _Sent_Camera_IRD
  C:A5E4H         PUBLIC        _GPIOSetPortState
  C:A4C9H         PUBLIC        _Power_onoff
  C:A2EDH         PUBLIC        _WriteI2CWORD
  X:0217H         PUBLIC        Camera_press0
  D:00A8H         PUBLIC        IE
  X:0218H         PUBLIC        Camera_press1
  C:A5DBH         PUBLIC        _GPIOSetPortMode
  C:9868H         PUBLIC        _Get_Camera_IRD
  X:0219H         PUBLIC        Camera_press2
  X:021AH         PUBLIC        Camera_press3
  C:8F25H         PUBLIC        GPIO_check
  B:00A0H.0       PUBLIC        P2_0
  X:021BH         PUBLIC        Cam_Com
  B:00A0H.1       PUBLIC        P2_1
  C:9709H         PUBLIC        Sent_Camera_RAng
  B:00A0H.2       PUBLIC        P2_2
  C:A569H         PUBLIC        _ReadByte
  C:8920H         PUBLIC        SC16_init
  B:00E8H.1       PUBLIC        P4_1
  B:00A0H.3       PUBLIC        P2_3
  X:0220H         PUBLIC        Camera_temp0
  B:00E8H.2       PUBLIC        P4_2
  X:0221H         PUBLIC        Camera_RAng
  X:0225H         PUBLIC        Camera_temp1
  B:00B0H.4       PUBLIC        P3_4
  B:00A0H.5       PUBLIC        P2_5
  B:00B0H.5       PUBLIC        P3_5
  B:00A0H.6       PUBLIC        P2_6
  X:0226H         PUBLIC        data_flag
  X:0227H         PUBLIC        GPIO_current
  C:9750H         PUBLIC        Sent_DVR_ver
  C:9F7DH         PUBLIC        Get_Camera_RAng
  D:00B8H         PUBLIC        IP
  C:A55CH         PUBLIC        I2CStop2
  X:0228H         PUBLIC        DVR_ver
  X:022BH         PUBLIC        Com_flag
  C:A3CEH         PUBLIC        _parity
  C:A62DH         PUBLIC        _FIFOAvailableSpace
  X:022CH         PUBLIC        Com_addr
BL51 BANKED LINKER/LOCATER V6.22                                                      11/30/2015  09:53:45  PAGE 90


  C:9FD5H         PUBLIC        Get_DVR_ver
  D:00C6H         PUBLIC        ADCV
  X:022DH         PUBLIC        SC16_busy_flag
  C:83F6H         PUBLIC        _TW2835_get
  C:9482H         PUBLIC        I2C_ACK2
  C:A2B2H         PUBLIC        _EnableTransmit
  X:022FH         PUBLIC        peek_flag
  D:00D8H         PUBLIC        CCON
  X:0230H         PUBLIC        SC16_com_buff
  C:A5EDH         PUBLIC        _WriteByte
  C:A598H         PUBLIC        _flush
  X:0239H         PUBLIC        Cam_boot_flag
  X:023AH         PUBLIC        DVR_Y
  C:A5A3H         PUBLIC        _peek
  C:A627H         PUBLIC        _FIFOAvailableData
  C:A085H         PUBLIC        I2CReadDataWithACK
  C:9797H         PUBLIC        Send_Camera_Press
  X:023EH         PUBLIC        Camera_ver0
  X:023FH         PUBLIC        Camera_ver1
  X:0240H         PUBLIC        Camera_ver2
  C:A293H         PUBLIC        _ping
  D:0087H         PUBLIC        PCON
  X:0241H         PUBLIC        Com_start
  C:A5F6H         PUBLIC        MCTRL_set
  C:9B5BH         PUBLIC        Send_Camera_Temp
  D:00C0H         PUBLIC        WDTC
  D:0098H         PUBLIC        SCON
  D:0088H         PUBLIC        TCON
  C:8DF6H         PUBLIC        _SetLine
  X:0242H         PUBLIC        Com_temp
  X:0243H         PUBLIC        Shrink_f
  X:0244H         PUBLIC        Back_f
  X:0245H         PUBLIC        Com_end
  C:A0B0H         PUBLIC        _BCC_Cal
  C:A1EEH         PUBLIC        I2CReadData
  C:9DAFH         PUBLIC        Repeat_PWM_Com
  X:0246H         PUBLIC        get_data_addr
  C:9DE1H         PUBLIC        SC16_DataCheck
  C:A30AH         PUBLIC        _ReadI2C
  X:0247H         PUBLIC        DVR_Com_p
  B:0088H.1       PUBLIC        IE0
  B:0088H.3       PUBLIC        IE1
  B:00C0H.1       PUBLIC        IE2
  C:96C2H         PUBLIC        Sent_Camera_Ang
  C:9A60H         SYMBOL        _?ix1000
  C:9A63H         SYMBOL        _?ix1001
  X:0248H         PUBLIC        Camera_Ang
  C:9A67H         SYMBOL        _?ix1002
  C:9A6BH         SYMBOL        _?ix1003
  X:024CH         PUBLIC        peek_buf
  C:9F51H         PUBLIC        Get_Camera_Ang
  C:A254H         PUBLIC        _ADC_read
  C:967BH         PUBLIC        Send_Camera_Ver
  X:024DH         PUBLIC        Camera_flag
  C:8A2FH         PUBLIC        _I2CWriteData
  C:5B01H         PUBLIC        _SC16_SendDataSelect
  C:A379H         PUBLIC        _WriteI2C
BL51 BANKED LINKER/LOCATER V6.22                                                      11/30/2015  09:53:45  PAGE 91


  B:00A8H.0       PUBLIC        EX0
  B:0088H.0       PUBLIC        IT0
  D:008DH         PUBLIC        TH1
  X:024EH         PUBLIC        Camera_IRDA
  C:A63BH         PUBLIC        Sent_DVR_MDr
  B:00A8H.2       PUBLIC        EX1
  B:0088H.2       PUBLIC        IT1
  C:94CCH         PUBLIC        _Set_Camera_speed
  B:00C0H.0       PUBLIC        IT2
  B:00C0H.2       PUBLIC        EX2
  C:A495H         PUBLIC        I2CStart
  C:A4F7H         PUBLIC        I2Cdelay
  X:026AH         PUBLIC        DRP_ID
  X:0273H         PUBLIC        Com_pos
  X:0274H         PUBLIC        Monitor_current
  X:0275H         PUBLIC        Com_run
  C:A524H         PUBLIC        _ResetDevice
  D:00F8H         PUBLIC        IPA
  C:8077H         PUBLIC        _SetBaudrate
  X:0276H         PUBLIC        Crop_f
  C:9E71H         PUBLIC        I2CReadDataWithACK2
  C:A104H         PUBLIC        ADT75_init
  C:97DDH         PUBLIC        Sent_DVR_Year
  C:9F25H         PUBLIC        Get_Camera_Ver
  X:0277H         PUBLIC        DVR_MD
  C:A421H         PUBLIC        I2C_100Khz
  C:829FH         PUBLIC        _SC16_ComCheck
  C:A02DH         PUBLIC        Get_DVR_MD
  X:027BH         PUBLIC        DVR_MH
  X:027FH         PUBLIC        DVR_startup_flag
  C:A001H         PUBLIC        Get_DVR_Year
  X:0280H         PUBLIC        get_data_val
  X:0281H         PUBLIC        Cam_Com_p
  C:A63CH         PUBLIC        Sent_DVR_HS
  C:8532H         PUBLIC        Camera_move
  C:A213H         PUBLIC        _SC16_SendData
  C:8663H         PUBLIC        Check_other_Com
  C:A54FH         PUBLIC        I2CStop
  D:00C8H         PUBLIC        T2CON
  X:0282H         PUBLIC        INT_flag
  C:60ABH         PUBLIC        _SC16_BCC_Check
  D:00C5H         PUBLIC        ADCTL
  C:A059H         PUBLIC        Get_DVR_HS
  C:89A0H         PUBLIC        _Set_channel
  D:00BEH         PUBLIC        ADCVL
  C:A12DH         PUBLIC        I2CReadData2
  X:0283H         PUBLIC        DVR_Com
  C:A5D2H         PUBLIC        I2C_ACK
  C:000EH         PUBLIC        _ReadI2C2
  X:0288H         PUBLIC        Monitor_state
  X:0289H         PUBLIC        OUTPUT
  X:028AH         PUBLIC        Monitor_mode
  C:A38AH         PUBLIC        _Set_INT
  C:85CBH         PUBLIC        _check_startup
  D:00D0H         PUBLIC        PSW
  C:9C3AH         PUBLIC        _ReadI2CWORD
  X:028BH         PUBLIC        SC16_ComAddr
BL51 BANKED LINKER/LOCATER V6.22                                                      11/30/2015  09:53:45  PAGE 92


  C:8C53H         PUBLIC        _I2CWriteData2
  C:8D26H         PUBLIC        _Get_Data
  C:68BBH         SYMBOL        Com01B6
  C:68BBH         SYMBOL        L?0439
  C:68BCH         SYMBOL        L?0440
  C:68BDH         SYMBOL        L?0441
  C:68BEH         SYMBOL        L?0442
  C:68C1H         SYMBOL        L?0443
  C:68C2H         SYMBOL        L?0444
  C:68C4H         SYMBOL        L?0445
  C:68CCH         SYMBOL        L?0446
  C:68CDH         SYMBOL        L?0447
  C:68D0H         SYMBOL        L?0448
  C:68D3H         SYMBOL        L?0449
  C:68DDH         SYMBOL        L?0450
  C:68DDH         SYMBOL        L?0451
  C:68E1H         SYMBOL        L?0452
  C:68EFH         SYMBOL        L?0453
  C:68EFH         SYMBOL        L?0454
  C:68F1H         SYMBOL        L?0455
  C:68F4H         SYMBOL        L?0456
  C:68FCH         SYMBOL        L?0457
  C:68FCH         SYMBOL        L?0458
  C:68FFH         SYMBOL        L?0459
  C:6909H         SYMBOL        L?0461
  C:6909H         SYMBOL        L?0462
  C:690EH         SYMBOL        L?0463
  C:6916H         SYMBOL        L?0464
  C:6916H         SYMBOL        L?0465
  C:6922H         SYMBOL        L?0468
  C:6922H         SYMBOL        L?0469
  C:6925H         SYMBOL        L?0470
  C:692DH         SYMBOL        L?0481
  C:6931H         SYMBOL        L?0482
  C:6938H         SYMBOL        L?0483
  C:6938H         SYMBOL        L?0484
  C:693FH         SYMBOL        L?0486
  C:6941H         SYMBOL        L?0487
  C:694BH         SYMBOL        L?0488
  C:694BH         SYMBOL        L?0489
  C:6957H         SYMBOL        L?0491
  C:695EH         SYMBOL        L?0492
  C:6965H         SYMBOL        L?0493
  C:6968H         SYMBOL        L?0494
  C:696FH         SYMBOL        L?0496
  C:6970H         SYMBOL        L?0497
  C:6978H         SYMBOL        L?0498
  C:697AH         SYMBOL        L?0499
  C:6982H         SYMBOL        L?0500
  C:698FH         SYMBOL        L?0501
  C:699CH         SYMBOL        L?0502
  C:69A6H         SYMBOL        L?0503
  C:69A6H         SYMBOL        L?0504
  C:69AEH         SYMBOL        L?0508
  C:69B9H         SYMBOL        L?0509
  C:69C4H         SYMBOL        L?0510
  C:69CFH         SYMBOL        L?0512
BL51 BANKED LINKER/LOCATER V6.22                                                      11/30/2015  09:53:45  PAGE 93


  C:69D9H         SYMBOL        L?0513
  C:69E3H         SYMBOL        L?0514
  C:69E3H         SYMBOL        L?0515
  C:69EAH         SYMBOL        L?0516
  C:69EAH         SYMBOL        L?0517
  C:69F1H         SYMBOL        L?0518
  C:69F1H         SYMBOL        L?0519
  C:69F8H         SYMBOL        L?0520
  C:69F8H         SYMBOL        L?0521
  C:69FFH         SYMBOL        L?0522
  C:69FFH         SYMBOL        L?0523
  C:6A06H         SYMBOL        L?0524
  C:6A06H         SYMBOL        L?0525
  C:6A0DH         SYMBOL        L?0526
  C:6A17H         SYMBOL        L?0527
  C:6A21H         SYMBOL        L?0528
  -------         PROC          COM01B6
  -------         ENDPROC       COM01B6
  -------         PROC          I2CDELAY
  -------         DO            
  D:0006H         SYMBOL        i
  -------         ENDDO         
  C:A4F7H         LINE#         120
  C:A4F7H         LINE#         121
  C:A4F7H         LINE#         124
  C:A4FAH         LINE#         125
  C:A4FAH         LINE#         126
  C:A505H         LINE#         133
  -------         ENDPROC       I2CDELAY
  -------         PROC          I2CDELAY2
  -------         DO            
  D:0006H         SYMBOL        i
  -------         ENDDO         
  C:A506H         LINE#         134
  C:A506H         LINE#         135
  C:A506H         LINE#         137
  C:A509H         LINE#         139
  C:A514H         LINE#         140
  -------         ENDPROC       I2CDELAY2
  -------         PROC          I2C_100KHZ
  C:A421H         LINE#         142
  C:A421H         LINE#         143
  C:A421H         LINE#         145
  C:A42EH         LINE#         146
  C:A434H         LINE#         147
  -------         ENDPROC       I2C_100KHZ
  -------         PROC          I2CSTART
  C:A495H         LINE#         149
  C:A495H         LINE#         150
  C:A495H         LINE#         152
  C:A49AH         LINE#         153
  C:A49FH         LINE#         154
  C:A4A4H         LINE#         155
  C:A4A6H         LINE#         171
  -------         ENDPROC       I2CSTART
  -------         PROC          I2CSTART2
  C:A4A7H         LINE#         173
BL51 BANKED LINKER/LOCATER V6.22                                                      11/30/2015  09:53:45  PAGE 94


  C:A4A7H         LINE#         174
  C:A4A7H         LINE#         176
  C:A4ACH         LINE#         177
  C:A4B1H         LINE#         178
  C:A4B6H         LINE#         179
  C:A4B8H         LINE#         180
  -------         ENDPROC       I2CSTART2
  -------         PROC          I2CSTOP
  C:A54FH         LINE#         181
  C:A54FH         LINE#         182
  C:A54FH         LINE#         184
  C:A554H         LINE#         185
  C:A559H         LINE#         186
  C:A55BH         LINE#         201
  -------         ENDPROC       I2CSTOP
  -------         PROC          I2CSTOP2
  C:A55CH         LINE#         203
  C:A55CH         LINE#         204
  C:A55CH         LINE#         206
  C:A561H         LINE#         207
  C:A566H         LINE#         208
  C:A568H         LINE#         209
  -------         ENDPROC       I2CSTOP2
  C:8A25H         SYMBOL        L?0467
  -------         PROC          L?0466
  -------         ENDPROC       L?0466
  C:8A25H         SYMBOL        L?0467
  -------         PROC          _I2CWRITEDATA
  D:0005H         SYMBOL        value
  C:8A2FH         LINE#         211
  C:8A31H         LINE#         212
  C:8A31H         LINE#         214
  C:8A3BH         LINE#         215
  C:8A46H         LINE#         216
  C:8A51H         LINE#         217
  C:8A5CH         LINE#         219
  C:8A67H         LINE#         220
  C:8A72H         LINE#         221
  C:8A7DH         LINE#         222
  C:8A88H         LINE#         225
  C:8A8BH         LINE#         226
  C:8A8BH         LINE#         227
  C:8A8BH         LINE#         228
  C:8A8BH         LINE#         230
  C:8A8BH         LINE#         231
  C:8A8EH         LINE#         232
  C:8A8EH         LINE#         233
  C:8A8EH         LINE#         234
  C:8A91H         LINE#         235
  -------         ENDPROC       _I2CWRITEDATA
  -------         PROC          _I2CWRITEDATA2
  D:0005H         SYMBOL        value
  C:8C53H         LINE#         280
  C:8C55H         LINE#         281
  C:8C55H         LINE#         283
  C:8C5FH         LINE#         284
  C:8C6AH         LINE#         285
BL51 BANKED LINKER/LOCATER V6.22                                                      11/30/2015  09:53:45  PAGE 95


  C:8C75H         LINE#         286
  C:8C85H         LINE#         288
  C:8C90H         LINE#         289
  C:8C9BH         LINE#         290
  C:8CA6H         LINE#         291
  C:8CB1H         LINE#         294
  C:8CB4H         LINE#         295
  C:8CB4H         LINE#         296
  C:8CB4H         LINE#         297
  C:8CB4H         LINE#         299
  C:8CB4H         LINE#         300
  C:8CB7H         LINE#         301
  C:8CB7H         LINE#         302
  C:8CB7H         LINE#         303
  C:8CBAH         LINE#         304
  -------         ENDPROC       _I2CWRITEDATA2
  -------         PROC          I2CREADDATA
  -------         DO            
  D:0002H         SYMBOL        i
  D:0005H         SYMBOL        value
  -------         ENDDO         
  C:A1EEH         LINE#         309
  C:A1EEH         LINE#         310
  C:A1EEH         LINE#         313
  C:A1EEH         LINE#         315
  C:A1EEH         LINE#         316
  C:A1EEH         LINE#         318
  C:A1F1H         LINE#         319
  C:A1F1H         LINE#         320
  C:A1F1H         LINE#         321
  C:A1F4H         LINE#         322
  C:A1FAH         LINE#         323
  C:A1FAH         LINE#         324
  C:A1FAH         LINE#         325
  C:A1FAH         LINE#         326
  C:A207H         LINE#         328
  C:A20AH         LINE#         332
  C:A20DH         LINE#         334
  C:A210H         LINE#         335
  C:A212H         LINE#         395
  -------         ENDPROC       I2CREADDATA
  -------         PROC          I2CREADDATA2
  -------         DO            
  D:0002H         SYMBOL        i
  D:0005H         SYMBOL        value
  -------         ENDDO         
  C:A12DH         LINE#         397
  C:A12DH         LINE#         398
  C:A12DH         LINE#         401
  C:A12DH         LINE#         403
  C:A12DH         LINE#         404
  C:A12DH         LINE#         406
  C:A130H         LINE#         407
  C:A133H         LINE#         408
  C:A133H         LINE#         409
  C:A136H         LINE#         410
  C:A13CH         LINE#         411
BL51 BANKED LINKER/LOCATER V6.22                                                      11/30/2015  09:53:45  PAGE 96


  C:A13CH         LINE#         412
  C:A13CH         LINE#         413
  C:A13CH         LINE#         414
  C:A149H         LINE#         416
  C:A14CH         LINE#         420
  C:A14FH         LINE#         422
  C:A152H         LINE#         423
  C:A154H         LINE#         424
  -------         ENDPROC       I2CREADDATA2
  -------         PROC          I2CREADDATAWITHACK
  -------         DO            
  D:0002H         SYMBOL        i
  D:0005H         SYMBOL        value
  -------         ENDDO         
  C:A085H         LINE#         426
  C:A085H         LINE#         427
  C:A085H         LINE#         430
  C:A085H         LINE#         432
  C:A085H         LINE#         433
  C:A085H         LINE#         435
  C:A088H         LINE#         436
  C:A088H         LINE#         437
  C:A088H         LINE#         438
  C:A08BH         LINE#         439
  C:A091H         LINE#         440
  C:A091H         LINE#         441
  C:A091H         LINE#         442
  C:A091H         LINE#         443
  C:A09EH         LINE#         445
  C:A0A0H         LINE#         449
  C:A0A3H         LINE#         450
  C:A0A5H         LINE#         451
  C:A0A7H         LINE#         452
  C:A0A7H         LINE#         453
  C:A0A7H         LINE#         454
  C:A0AAH         LINE#         455
  C:A0ADH         LINE#         457
  C:A0AFH         LINE#         493
  -------         ENDPROC       I2CREADDATAWITHACK
  -------         PROC          I2CREADDATAWITHACK2
  -------         DO            
  D:0002H         SYMBOL        i
  D:0005H         SYMBOL        value
  -------         ENDDO         
  C:9E71H         LINE#         495
  C:9E71H         LINE#         496
  C:9E71H         LINE#         499
  C:9E71H         LINE#         501
  C:9E71H         LINE#         502
  C:9E71H         LINE#         504
  C:9E74H         LINE#         505
  C:9E77H         LINE#         506
  C:9E77H         LINE#         507
  C:9E7AH         LINE#         508
  C:9E80H         LINE#         509
  C:9E80H         LINE#         510
  C:9E80H         LINE#         511
BL51 BANKED LINKER/LOCATER V6.22                                                      11/30/2015  09:53:45  PAGE 97


  C:9E80H         LINE#         512
  C:9E8DH         LINE#         514
  C:9E8FH         LINE#         518
  C:9E92H         LINE#         519
  C:9E94H         LINE#         520
  C:9E96H         LINE#         521
  C:9E96H         LINE#         522
  C:9E96H         LINE#         523
  C:9E99H         LINE#         524
  C:9E9CH         LINE#         526
  C:9E9EH         LINE#         527
  -------         ENDPROC       I2CREADDATAWITHACK2
  -------         PROC          L?0511
  -------         ENDPROC       L?0511
  -------         PROC          _WRITEI2C
  D:0004H         SYMBOL        addr
  D:0002H         SYMBOL        index
  D:0003H         SYMBOL        val
  C:A379H         LINE#         529
  C:A379H         LINE#         530
  C:A379H         LINE#         533
  C:A379H         LINE#         534
  C:A37CH         LINE#         535
  C:A384H         LINE#         536
  C:A387H         LINE#         537
  -------         ENDPROC       _WRITEI2C
  -------         PROC          _READI2C
  D:0004H         SYMBOL        addr
  D:0003H         SYMBOL        index
  -------         DO            
  D:0005H         SYMBOL        val
  -------         ENDDO         
  C:A30AH         LINE#         551
  C:A30CH         LINE#         552
  C:A30CH         LINE#         556
  C:A30CH         LINE#         557
  C:A30FH         LINE#         558
  C:A318H         LINE#         559
  C:A318H         LINE#         560
  C:A31BH         LINE#         561
  C:A320H         LINE#         564
  C:A323H         LINE#         609
  C:A325H         LINE#         610
  -------         ENDPROC       _READI2C
  -------         PROC          _WRITEI2C2
  D:0004H         SYMBOL        addr
  D:0002H         SYMBOL        index
  D:0003H         SYMBOL        val
  C:A58DH         LINE#         612
  C:A58DH         LINE#         613
  C:A58DH         LINE#         614
  C:A58DH         LINE#         615
  C:A590H         LINE#         616
  C:A592H         LINE#         617
  C:A595H         LINE#         618
  -------         ENDPROC       _WRITEI2C2
  -------         PROC          _READI2C2
BL51 BANKED LINKER/LOCATER V6.22                                                      11/30/2015  09:53:45  PAGE 98


  D:0004H         SYMBOL        addr
  D:0003H         SYMBOL        index
  -------         DO            
  X:03DFH         SYMBOL        val
  -------         ENDDO         
  C:000EH         LINE#         622
  C:0012H         LINE#         623
  C:0012H         LINE#         626
  C:0012H         LINE#         627
  C:0012H         LINE#         628
  C:0012H         LINE#         629
  C:0012H         LINE#         630
  C:0015H         LINE#         631
  C:001DH         LINE#         633
  C:0020H         LINE#         634
  C:0022H         LINE#         635
  -------         ENDPROC       _READI2C2
  -------         PROC          I2C_ACK
  C:A5D2H         LINE#         638
  C:A5D2H         LINE#         639
  C:A5D2H         LINE#         643
  C:A5D2H         LINE#         644
  C:A5D2H         LINE#         645
  C:A5D2H         LINE#         646
  C:A5D5H         LINE#         647
  C:A5D8H         LINE#         648
  C:A5DAH         LINE#         649
  -------         ENDPROC       I2C_ACK
  -------         PROC          I2C_ACK2
  C:9482H         LINE#         651
  C:9482H         LINE#         652
  C:9482H         LINE#         658
  C:9499H         LINE#         659
  C:949BH         LINE#         660
  C:94B2H         LINE#         662
  C:94B4H         LINE#         663
  C:94CBH         LINE#         668
  -------         ENDPROC       I2C_ACK2
  -------         PROC          _READI2CWORD
  D:0004H         SYMBOL        addr
  D:0003H         SYMBOL        index
  -------         DO            
  X:0006H         SYMBOL        val
  -------         ENDDO         
  C:9C3AH         LINE#         671
  C:9C3EH         LINE#         672
  C:9C3EH         LINE#         673
  C:9C45H         LINE#         675
  C:9C45H         LINE#         676
  C:9C45H         LINE#         678
  C:9C45H         LINE#         681
  C:9C45H         LINE#         682
  C:9C48H         LINE#         684
  C:9C53H         LINE#         685
  C:9C5CH         LINE#         686
  C:9C65H         LINE#         687
  C:9C68H         LINE#         689
BL51 BANKED LINKER/LOCATER V6.22                                                      11/30/2015  09:53:45  PAGE 99


  C:9C70H         LINE#         690
  -------         ENDPROC       _READI2CWORD
  -------         PROC          _WRITEI2CWORD
  D:0001H         SYMBOL        addr
  D:0004H         SYMBOL        index
  D:0002H         SYMBOL        Data
  -------         DO            
  D:0003H         SYMBOL        tempL
  X:03E0H         SYMBOL        tempH
  -------         ENDDO         
  C:A2EDH         LINE#         693
  C:A2F1H         LINE#         694
  C:A2F1H         LINE#         697
  C:A2F6H         LINE#         698
  C:A2F6H         LINE#         699
  C:A2F9H         LINE#         700
  C:A2FEH         LINE#         701
  C:A303H         LINE#         702
  C:A304H         LINE#         703
  C:A307H         LINE#         704
  -------         ENDPROC       _WRITEI2CWORD
  C:8AFBH         SYMBOL        L?0505
  -------         PROC          _BOUND_SET
  X:01D5H         SYMBOL        val
  -------         DO            
  X:01D6H         SYMBOL        Mask
  -------         ENDDO         
  C:8A94H         LINE#         709
  C:8A99H         LINE#         710
  C:8A99H         LINE#         714
  C:8AACH         LINE#         737
  C:8ABCH         LINE#         738
  C:8ABCH         LINE#         739
  C:8AC1H         LINE#         740
  C:8AC1H         LINE#         741
  C:8AC3H         LINE#         742
  C:8AC8H         LINE#         743
  C:8AC8H         LINE#         744
  C:8ACAH         LINE#         745
  C:8AD6H         LINE#         746
  C:8AE1H         LINE#         747
  C:8AE3H         LINE#         748
  C:8AE3H         LINE#         751
  C:8AEAH         LINE#         752
  C:8AEFH         LINE#         753
  C:8AFAH         LINE#         754
  C:8AFAH         LINE#         755
  C:8AFAH         LINE#         774
  -------         ENDPROC       _BOUND_SET
  C:8A0FH         SYMBOL        L?0506
  -------         PROC          _SET_CHANNEL
  X:03E1H         SYMBOL        addr
  C:89A0H         LINE#         778
  C:89A5H         LINE#         779
  C:89A5H         LINE#         780
  C:89ACH         LINE#         781
  C:89B1H         LINE#         782
BL51 BANKED LINKER/LOCATER V6.22                                                      11/30/2015  09:53:45  PAGE 100


  C:89BCH         LINE#         785
  C:89E2H         LINE#         786
  C:89E2H         LINE#         787
  C:89ECH         LINE#         788
  C:89F6H         LINE#         789
  C:8A05H         LINE#         790
  C:8A05H         LINE#         791
  C:8A05H         LINE#         792
  C:8A05H         LINE#         793
  C:8A09H         LINE#         794
  C:8A0BH         LINE#         795
  C:8A0EH         LINE#         796
  C:8A0EH         LINE#         797
  C:8A0EH         LINE#         799
  C:8A0EH         LINE#         801
  -------         ENDPROC       _SET_CHANNEL
  -------         PROC          _ADC_READ
  D:0007H         SYMBOL        sel
  C:A254H         LINE#         807
  C:A254H         LINE#         808
  C:A254H         LINE#         810
  C:A259H         LINE#         812
  C:A25EH         LINE#         814
  C:A273H         LINE#         816
  -------         ENDPROC       _ADC_READ
  -------         PROC          SEND_CAMERA_VER
  -------         DO            
  X:03E2H         SYMBOL        loop
  -------         ENDDO         
  C:967BH         LINE#         820
  C:967BH         LINE#         821
  C:967BH         LINE#         824
  C:967BH         LINE#         825
  C:967BH         LINE#         826
  C:9681H         LINE#         827
  C:9689H         LINE#         828
  C:9691H         LINE#         829
  C:9699H         LINE#         830
  C:969CH         LINE#         831
  C:969CH         LINE#         832
  C:96A2H         LINE#         834
  C:96B3H         LINE#         835
  C:96B3H         LINE#         836
  C:96B9H         LINE#         837
  C:96C1H         LINE#         838
  -------         ENDPROC       SEND_CAMERA_VER
  C:9F43H         SYMBOL        L?0471
  -------         PROC          GET_CAMERA_VER
  C:9F25H         LINE#         840
  C:9F25H         LINE#         841
  C:9F25H         LINE#         842
  C:9F27H         LINE#         843
  C:9F2FH         LINE#         844
  C:9F31H         LINE#         845
  C:9F39H         LINE#         846
  C:9F43H         LINE#         847
  -------         ENDPROC       GET_CAMERA_VER
BL51 BANKED LINKER/LOCATER V6.22                                                      11/30/2015  09:53:45  PAGE 101


  -------         PROC          SEND_CAMERA_TEMP
  -------         DO            
  X:000CH         SYMBOL        loop
  -------         ENDDO         
  C:9B5BH         LINE#         850
  C:9B5BH         LINE#         851
  C:9B5BH         LINE#         855
  C:9B5BH         LINE#         856
  C:9B5BH         LINE#         857
  C:9B60H         LINE#         858
  C:9B68H         LINE#         859
  C:9B6BH         LINE#         860
  C:9B6BH         LINE#         861
  C:9B6EH         LINE#         862
  C:9B6EH         LINE#         863
  C:9B74H         LINE#         865
  C:9B85H         LINE#         866
  C:9B85H         LINE#         867
  C:9B8BH         LINE#         868
  C:9B93H         LINE#         871
  -------         ENDPROC       SEND_CAMERA_TEMP
  -------         PROC          SEND_CAMERA_PRESS
  -------         DO            
  X:000CH         SYMBOL        loop
  -------         ENDDO         
  C:9797H         LINE#         875
  C:9797H         LINE#         876
  C:9797H         LINE#         879
  C:9797H         LINE#         880
  C:9797H         LINE#         881
  C:979CH         LINE#         888
  C:97A4H         LINE#         889
  C:97ACH         LINE#         890
  C:97B4H         LINE#         891
  C:97B7H         LINE#         893
  C:97B7H         LINE#         894
  C:97BDH         LINE#         896
  C:97CEH         LINE#         897
  C:97CEH         LINE#         898
  C:97D4H         LINE#         899
  C:97DCH         LINE#         903
  -------         ENDPROC       SEND_CAMERA_PRESS
  C:9F6FH         SYMBOL        L?0472
  -------         PROC          GET_CAMERA_ANG
  C:9F51H         LINE#         906
  C:9F51H         LINE#         907
  C:9F51H         LINE#         908
  C:9F53H         LINE#         909
  C:9F5BH         LINE#         910
  C:9F5DH         LINE#         911
  C:9F65H         LINE#         912
  C:9F6FH         LINE#         914
  -------         ENDPROC       GET_CAMERA_ANG
  -------         PROC          SENT_CAMERA_ANG
  -------         DO            
  X:000CH         SYMBOL        loop
  -------         ENDDO         
BL51 BANKED LINKER/LOCATER V6.22                                                      11/30/2015  09:53:45  PAGE 102


  C:96C2H         LINE#         916
  C:96C2H         LINE#         917
  C:96C2H         LINE#         921
  C:96C2H         LINE#         922
  C:96C2H         LINE#         923
  C:96C8H         LINE#         924
  C:96D0H         LINE#         925
  C:96D8H         LINE#         926
  C:96E0H         LINE#         927
  C:96E3H         LINE#         928
  C:96E3H         LINE#         929
  C:96E9H         LINE#         931
  C:96FAH         LINE#         932
  C:96FAH         LINE#         933
  C:9700H         LINE#         934
  C:9708H         LINE#         936
  -------         ENDPROC       SENT_CAMERA_ANG
  C:9F9BH         SYMBOL        L?0473
  -------         PROC          GET_CAMERA_RANG
  C:9F7DH         LINE#         938
  C:9F7DH         LINE#         939
  C:9F7DH         LINE#         940
  C:9F7FH         LINE#         941
  C:9F87H         LINE#         942
  C:9F89H         LINE#         943
  C:9F91H         LINE#         944
  C:9F9BH         LINE#         945
  -------         ENDPROC       GET_CAMERA_RANG
  -------         PROC          SENT_CAMERA_RANG
  -------         DO            
  X:000CH         SYMBOL        loop
  -------         ENDDO         
  C:9709H         LINE#         947
  C:9709H         LINE#         948
  C:9709H         LINE#         952
  C:9709H         LINE#         953
  C:9709H         LINE#         954
  C:970FH         LINE#         955
  C:9717H         LINE#         956
  C:971FH         LINE#         957
  C:9727H         LINE#         958
  C:972AH         LINE#         959
  C:972AH         LINE#         960
  C:9730H         LINE#         962
  C:9741H         LINE#         963
  C:9741H         LINE#         964
  C:9747H         LINE#         965
  C:974FH         LINE#         967
  -------         ENDPROC       SENT_CAMERA_RANG
  C:989FH         SYMBOL        L?0474
  -------         PROC          _GET_CAMERA_IRD
  X:03D9H         SYMBOL        sel
  -------         DO            
  X:03DAH         SYMBOL        bcc_val
  -------         ENDDO         
  C:9868H         LINE#         970
  C:986DH         LINE#         971
BL51 BANKED LINKER/LOCATER V6.22                                                      11/30/2015  09:53:45  PAGE 103


  C:986DH         LINE#         973
  C:9870H         LINE#         975
  C:9873H         LINE#         976
  C:9876H         LINE#         977
  C:9878H         LINE#         978
  C:987BH         LINE#         982
  C:987DH         LINE#         983
  C:9885H         LINE#         984
  C:9892H         LINE#         985
  C:9894H         LINE#         986
  C:989FH         LINE#         988
  -------         ENDPROC       _GET_CAMERA_IRD
  -------         PROC          _SENT_CAMERA_IRD
  X:000CH         SYMBOL        sel
  -------         DO            
  X:000DH         SYMBOL        loop
  X:000EH         SYMBOL        temp
  -------         ENDDO         
  C:A515H         LINE#         989
  C:A51AH         LINE#         990
  C:A51AH         LINE#         993
  C:A51FH         LINE#         995
  -------         ENDPROC       _SENT_CAMERA_IRD
  C:9FC7H         SYMBOL        L?0475
  -------         PROC          GET_DVR_TEMP
  C:9FA9H         LINE#         1018
  C:9FA9H         LINE#         1019
  C:9FA9H         LINE#         1020
  C:9FABH         LINE#         1021
  C:9FB3H         LINE#         1022
  C:9FB5H         LINE#         1023
  C:9FBDH         LINE#         1024
  C:9FC7H         LINE#         1025
  -------         ENDPROC       GET_DVR_TEMP
  -------         PROC          SENT_DVR_TEMP
  -------         DO            
  X:000CH         SYMBOL        loop
  -------         ENDDO         
  C:9B21H         LINE#         1028
  C:9B21H         LINE#         1029
  C:9B21H         LINE#         1032
  C:9B21H         LINE#         1033
  C:9B21H         LINE#         1034
  C:9B27H         LINE#         1035
  C:9B2FH         LINE#         1036
  C:9B32H         LINE#         1037
  C:9B32H         LINE#         1038
  C:9B35H         LINE#         1039
  C:9B35H         LINE#         1040
  C:9B3BH         LINE#         1042
  C:9B4CH         LINE#         1043
  C:9B4CH         LINE#         1044
  C:9B52H         LINE#         1045
  C:9B5AH         LINE#         1048
  -------         ENDPROC       SENT_DVR_TEMP
  C:9FF3H         SYMBOL        L?0476
  -------         PROC          GET_DVR_VER
BL51 BANKED LINKER/LOCATER V6.22                                                      11/30/2015  09:53:45  PAGE 104


  C:9FD5H         LINE#         1049
  C:9FD5H         LINE#         1050
  C:9FD5H         LINE#         1051
  C:9FD7H         LINE#         1052
  C:9FDFH         LINE#         1053
  C:9FE1H         LINE#         1054
  C:9FE9H         LINE#         1055
  C:9FF3H         LINE#         1056
  -------         ENDPROC       GET_DVR_VER
  -------         PROC          SENT_DVR_VER
  -------         DO            
  X:03E3H         SYMBOL        loop
  -------         ENDDO         
  C:9750H         LINE#         1057
  C:9750H         LINE#         1058
  C:9750H         LINE#         1061
  C:9750H         LINE#         1062
  C:9750H         LINE#         1063
  C:9756H         LINE#         1064
  C:975EH         LINE#         1065
  C:9766H         LINE#         1066
  C:976EH         LINE#         1067
  C:9771H         LINE#         1068
  C:9771H         LINE#         1069
  C:9777H         LINE#         1071
  C:9788H         LINE#         1072
  C:9788H         LINE#         1073
  C:978EH         LINE#         1074
  C:9796H         LINE#         1076
  -------         ENDPROC       SENT_DVR_VER
  C:A01FH         SYMBOL        L?0477
  -------         PROC          GET_DVR_YEAR
  C:A001H         LINE#         1077
  C:A001H         LINE#         1078
  C:A001H         LINE#         1079
  C:A003H         LINE#         1080
  C:A00BH         LINE#         1081
  C:A00DH         LINE#         1082
  C:A015H         LINE#         1083
  C:A01FH         LINE#         1084
  -------         ENDPROC       GET_DVR_YEAR
  -------         PROC          SENT_DVR_YEAR
  -------         DO            
  X:03E4H         SYMBOL        loop
  -------         ENDDO         
  C:97DDH         LINE#         1086
  C:97DDH         LINE#         1087
  C:97DDH         LINE#         1090
  C:97DDH         LINE#         1091
  C:97DDH         LINE#         1092
  C:97E2H         LINE#         1093
  C:97EAH         LINE#         1094
  C:97F2H         LINE#         1095
  C:97FAH         LINE#         1096
  C:97FDH         LINE#         1097
  C:97FDH         LINE#         1098
  C:9803H         LINE#         1100
BL51 BANKED LINKER/LOCATER V6.22                                                      11/30/2015  09:53:45  PAGE 105


  C:9814H         LINE#         1101
  C:9814H         LINE#         1102
  C:981AH         LINE#         1103
  C:9822H         LINE#         1106
  -------         ENDPROC       SENT_DVR_YEAR
  C:A04BH         SYMBOL        L?0478
  -------         PROC          GET_DVR_MD
  C:A02DH         LINE#         1107
  C:A02DH         LINE#         1108
  C:A02DH         LINE#         1109
  C:A02FH         LINE#         1110
  C:A037H         LINE#         1111
  C:A039H         LINE#         1112
  C:A041H         LINE#         1113
  C:A04BH         LINE#         1114
  -------         ENDPROC       GET_DVR_MD
  -------         PROC          SENT_DVR_MDR
  C:A63BH         LINE#         1115
  C:A63BH         LINE#         1116
  -------         ENDPROC       SENT_DVR_MDR
  C:A077H         SYMBOL        L?0479
  -------         PROC          GET_DVR_HS
  C:A059H         LINE#         1117
  C:A059H         LINE#         1118
  C:A059H         LINE#         1119
  C:A05BH         LINE#         1120
  C:A063H         LINE#         1121
  C:A065H         LINE#         1122
  C:A06DH         LINE#         1123
  C:A077H         LINE#         1124
  -------         ENDPROC       GET_DVR_HS
  -------         PROC          SENT_DVR_HS
  C:A63CH         LINE#         1125
  -------         ENDPROC       SENT_DVR_HS
  C:94ECH         SYMBOL        L?0460
  C:9504H         SYMBOL        L?0490
  -------         PROC          _SET_CAMERA_SPEED
  D:0007H         SYMBOL        val
  C:94CCH         LINE#         1128
  C:94CCH         LINE#         1129
  C:94CCH         LINE#         1130
  C:94D2H         LINE#         1131
  C:94D2H         LINE#         1132
  C:94D2H         LINE#         1133
  C:94D5H         LINE#         1134
  C:94D7H         LINE#         1135
  C:94D7H         LINE#         1136
  C:94DCH         LINE#         1137
  C:94DEH         LINE#         1139
  C:94DEH         LINE#         1140
  C:94DEH         LINE#         1141
  C:94E1H         LINE#         1142
  C:94E3H         LINE#         1143
  C:94E3H         LINE#         1144
  C:94EBH         LINE#         1145
  C:94EBH         LINE#         1151
  -------         ENDPROC       _SET_CAMERA_SPEED
BL51 BANKED LINKER/LOCATER V6.22                                                      11/30/2015  09:53:45  PAGE 106


  -------         PROC          GPIO_CHECK
  -------         DO            
  D:0007H         SYMBOL        GPIO_state
  X:0006H         SYMBOL        IO_flag
  X:0007H         SYMBOL        count
  -------         ENDDO         
  C:8F25H         LINE#         1155
  C:8F25H         LINE#         1156
  C:8F25H         LINE#         1157
  C:8F2EH         LINE#         1159
  C:8F37H         LINE#         1161
  C:8F3FH         LINE#         1164
  C:8F3FH         LINE#         1165
  C:8F44H         LINE#         1166
  C:8F4BH         LINE#         1167
  C:8F4BH         LINE#         1168
  C:8F4EH         LINE#         1169
  C:8F52H         LINE#         1170
  C:8F54H         LINE#         1171
  C:8F54H         LINE#         1172
  C:8F65H         LINE#         1173
  C:8F65H         LINE#         1175
  C:8F65H         LINE#         1176
  C:8F65H         LINE#         1177
  C:8F65H         LINE#         1178
  C:8F67H         LINE#         1179
  C:8F6AH         LINE#         1180
  C:8F6AH         LINE#         1181
  C:8F6CH         LINE#         1182
  C:8F6CH         LINE#         1183
  C:8F6FH         LINE#         1184
  C:8F72H         LINE#         1185
  C:8F74H         LINE#         1186
  C:8F74H         LINE#         1187
  C:8F77H         LINE#         1188
  C:8F7AH         LINE#         1189
  C:8F7CH         LINE#         1190
  C:8F7FH         LINE#         1191
  C:8F82H         LINE#         1192
  C:8F82H         LINE#         1193
  C:8F82H         LINE#         1196
  C:8F87H         LINE#         1202
  -------         ENDPROC       GPIO_CHECK
  -------         PROC          _POWER_ONOFF
  D:0007H         SYMBOL        sel
  C:A4C9H         LINE#         1205
  C:A4C9H         LINE#         1206
  C:A4C9H         LINE#         1208
  C:A4CEH         LINE#         1209
  C:A4D0H         LINE#         1210
  C:A4D2H         LINE#         1211
  -------         ENDPROC       _POWER_ONOFF
  -------         PROC          SC16_INIT
  -------         DO            
  X:0006H         SYMBOL        Dev_ID
  -------         ENDDO         
  C:8920H         LINE#         1218
BL51 BANKED LINKER/LOCATER V6.22                                                      11/30/2015  09:53:45  PAGE 107


  C:8920H         LINE#         1219
  C:8920H         LINE#         1223
  C:8922H         LINE#         1224
  C:8929H         LINE#         1225
  C:892BH         LINE#         1226
  C:8932H         LINE#         1229
  C:8941H         LINE#         1230
  C:8941H         LINE#         1231
  C:894AH         LINE#         1232
  C:8961H         LINE#         1233
  C:8974H         LINE#         1234
  C:8981H         LINE#         1235
  C:8989H         LINE#         1242
  C:8993H         LINE#         1243
  C:899DH         LINE#         1244
  C:899FH         LINE#         1245
  -------         ENDPROC       SC16_INIT
  -------         PROC          _SC16_SENDDATA
  X:000CH         SYMBOL        val
  -------         DO            
  X:000DH         SYMBOL        error
  -------         ENDDO         
  C:A213H         LINE#         1247
  C:A219H         LINE#         1248
  C:A219H         LINE#         1249
  C:A21CH         LINE#         1261
  C:A224H         LINE#         1262
  C:A231H         LINE#         1269
  C:A233H         LINE#         1271
  -------         ENDPROC       _SC16_SENDDATA
  C:5CECH         SYMBOL        L?0485
  -------         PROC          _SC16_SENDDATASELECT
  X:0009H         SYMBOL        addr
  -------         DO            
  X:000AH         SYMBOL        loop
  X:000BH         SYMBOL        Error
  X:000CH         SYMBOL        count
  X:000DH         SYMBOL        data_temp
  X:000EH         SYMBOL        buff_flag
  X:000FH         SYMBOL        loop_temp
  X:0010H         SYMBOL        error_flag
  X:0011H         SYMBOL        etx_flag
  -------         ENDDO         
  C:5B01H         LINE#         1274
  C:5B04H         LINE#         1275
  C:5B04H         LINE#         1277
  C:5B09H         LINE#         1279
  C:5B0FH         LINE#         1280
  C:5B12H         LINE#         1281
  C:5B14H         LINE#         1316
  C:5B23H         LINE#         1317
  C:5B23H         LINE#         1318
  C:5B30H         LINE#         1321
  C:5B35H         LINE#         1333
  C:5B40H         LINE#         1335
  C:5B48H         LINE#         1336
  C:5B48H         LINE#         1337
BL51 BANKED LINKER/LOCATER V6.22                                                      11/30/2015  09:53:45  PAGE 108


  C:5B50H         LINE#         1343
  C:5B5BH         LINE#         1344
  C:5B6EH         LINE#         1349
  C:5B71H         LINE#         1350
  C:5B7CH         LINE#         1352
  C:5B90H         LINE#         1353
  C:5B90H         LINE#         1355
  C:5B96H         LINE#         1357
  C:5B9CH         LINE#         1358
  C:5BADH         LINE#         1359
  C:5BADH         LINE#         1361
  C:5BB9H         LINE#         1362
  C:5BB9H         LINE#         1363
  C:5BBFH         LINE#         1365
  C:5BBFH         LINE#         1367
  C:5BD1H         LINE#         1371
  C:5BF1H         LINE#         1372
  C:5BF1H         LINE#         1373
  C:5BF4H         LINE#         1378
  C:5BF6H         LINE#         1379
  C:5BFAH         LINE#         1380
  C:5BFAH         LINE#         1381
  C:5BFFH         LINE#         1382
  C:5C10H         LINE#         1383
  C:5C15H         LINE#         1385
  C:5C15H         LINE#         1398
  C:5C18H         LINE#         1400
  C:5C1BH         LINE#         1403
  C:5C24H         LINE#         1405
  C:5C2DH         LINE#         1406
  C:5C2DH         LINE#         1409
  C:5C38H         LINE#         1410
  C:5C38H         LINE#         1413
  C:5C3BH         LINE#         1418
  C:5C40H         LINE#         1420
  C:5C43H         LINE#         1421
  C:5C43H         LINE#         1422
  C:5C50H         LINE#         1423
  C:5C50H         LINE#         1427
  C:5C5BH         LINE#         1428
  C:5C5BH         LINE#         1431
  C:5C5EH         LINE#         1436
  C:5C63H         LINE#         1437
  C:5C66H         LINE#         1438
  C:5C66H         LINE#         1442
  C:5C78H         LINE#         1443
  C:5C78H         LINE#         1444
  C:5C7BH         LINE#         1445
  C:5C7BH         LINE#         1447
  C:5C81H         LINE#         1448
  C:5C81H         LINE#         1450
  C:5C89H         LINE#         1452
  C:5C96H         LINE#         1453
  C:5CABH         LINE#         1455
  C:5CB7H         LINE#         1456
  C:5CB7H         LINE#         1459
  C:5CCAH         LINE#         1460
BL51 BANKED LINKER/LOCATER V6.22                                                      11/30/2015  09:53:45  PAGE 109


  C:5CCAH         LINE#         1463
  C:5CD5H         LINE#         1471
  C:5CDBH         LINE#         1472
  C:5CE0H         LINE#         1473
  C:5CE0H         LINE#         1477
  C:5CE3H         LINE#         1478
  C:5CE3H         LINE#         1480
  C:5CE6H         LINE#         1481
  C:5CE6H         LINE#         1483
  C:5CE6H         LINE#         1509
  C:5CE6H         LINE#         1534
  C:5CE6H         LINE#         1575
  C:5CEBH         LINE#         1577
  -------         ENDPROC       _SC16_SENDDATASELECT
  -------         PROC          _COMMAND_CHECK
  X:03E5H         SYMBOL        val
  C:A61BH         LINE#         1579
  C:A620H         LINE#         1580
  C:A620H         LINE#         1583
  -------         ENDPROC       _COMMAND_CHECK
  C:9DD9H         SYMBOL        L?0495
  -------         PROC          REPEAT_PWM_COM
  C:9DAFH         LINE#         1585
  C:9DAFH         LINE#         1586
  C:9DAFH         LINE#         1587
  C:9DB5H         LINE#         1588
  C:9DBBH         LINE#         1589
  C:9DC5H         LINE#         1590
  C:9DCFH         LINE#         1591
  C:9DD9H         LINE#         1594
  -------         ENDPROC       REPEAT_PWM_COM
  -------         PROC          SC16_DATACHECK
  -------         DO            
  X:0006H         SYMBOL        Dev_ID
  X:0007H         SYMBOL        Error
  X:0008H         SYMBOL        count
  -------         ENDDO         
  C:9DE1H         LINE#         1598
  C:9DE1H         LINE#         1599
  C:9DE1H         LINE#         1601
  C:9DEAH         LINE#         1658
  C:9DF0H         LINE#         1659
  C:9DF0H         LINE#         1660
  C:9DF4H         LINE#         1662
  C:9DFAH         LINE#         1663
  C:9DFCH         LINE#         1664
  C:9E03H         LINE#         1665
  C:9E03H         LINE#         1666
  C:9E08H         LINE#         1668
  C:9E0DH         LINE#         1669
  C:9E0DH         LINE#         1677
  C:9E12H         LINE#         1678
  -------         ENDPROC       SC16_DATACHECK
  -------         PROC          _SC16_DATA_RESET
  D:0006H         SYMBOL        sel
  C:9934H         LINE#         1681
  C:9934H         LINE#         1682
BL51 BANKED LINKER/LOCATER V6.22                                                      11/30/2015  09:53:45  PAGE 110


  C:9934H         LINE#         1696
  C:9940H         LINE#         1698
  C:9962H         LINE#         1699
  C:9962H         LINE#         1700
  C:9965H         LINE#         1701
  C:9968H         LINE#         1702
  C:996BH         LINE#         1703
  C:996EH         LINE#         1704
  C:996EH         LINE#         1705
  C:996EH         LINE#         1706
  C:996EH         LINE#         1707
  C:996EH         LINE#         1708
  C:996EH         LINE#         1709
  C:996EH         LINE#         1710
  C:996EH         LINE#         1711
  C:9971H         LINE#         1712
  C:9974H         LINE#         1718
  C:9974H         LINE#         1719
  C:9974H         LINE#         1722
  -------         ENDPROC       _SC16_DATA_RESET
  C:85BDH         SYMBOL        L?0480
  -------         PROC          CAMERA_MOVE
  -------         DO            
  X:0006H         SYMBOL        mask
  X:000AH         SYMBOL        cam
  X:000EH         SYMBOL        BCC
  X:0012H         SYMBOL        loop
  -------         ENDDO         
  C:8532H         LINE#         1725
  C:8532H         LINE#         1726
  C:8532H         LINE#         1727
  C:853DH         LINE#         1728
  C:8548H         LINE#         1729
  C:8557H         LINE#         1732
  C:8566H         LINE#         1733
  C:8566H         LINE#         1734
  C:857CH         LINE#         1735
  C:857CH         LINE#         1736
  C:857EH         LINE#         1737
  C:8586H         LINE#         1738
  C:859DH         LINE#         1739
  C:859FH         LINE#         1740
  C:85B4H         LINE#         1741
  C:85B4H         LINE#         1742
  C:85BCH         LINE#         1745
  -------         ENDPROC       CAMERA_MOVE
  -------         PROC          _CHECK_STARTUP
  X:03BFH         SYMBOL        addr
  -------         DO            
  X:03C0H         SYMBOL        loop
  X:03C1H         SYMBOL        Error
  X:03C2H         SYMBOL        count
  D:0001H         SYMBOL        data_temp
  -------         ENDDO         
  C:85CBH         LINE#         1748
  C:85CEH         LINE#         1749
  C:85CEH         LINE#         1751
BL51 BANKED LINKER/LOCATER V6.22                                                      11/30/2015  09:53:45  PAGE 111


  C:85D2H         LINE#         1754
  C:85E4H         LINE#         1755
  C:85E4H         LINE#         1756
  C:85F4H         LINE#         1758
  C:85FCH         LINE#         1767
  C:860FH         LINE#         1768
  C:860FH         LINE#         1769
  C:861AH         LINE#         1771
  C:8621H         LINE#         1772
  C:8621H         LINE#         1773
  C:8630H         LINE#         1774
  C:8630H         LINE#         1775
  C:8638H         LINE#         1779
  C:863AH         LINE#         1780
  C:863EH         LINE#         1781
  C:863EH         LINE#         1782
  C:864FH         LINE#         1783
  C:864FH         LINE#         1784
  C:865AH         LINE#         1788
  C:865AH         LINE#         1791
  C:8662H         LINE#         1793
  C:8662H         LINE#         1796
  -------         ENDPROC       _CHECK_STARTUP
  -------         PROC          _SC16_COMCHECK
  D:0001H         SYMBOL        addr
  -------         DO            
  X:0012H         SYMBOL        pos
  X:0013H         SYMBOL        temp
  -------         ENDDO         
  C:829FH         LINE#         1801
  C:829FH         LINE#         1802
  C:829FH         LINE#         1805
  C:82A6H         LINE#         1806
  C:82A7H         LINE#         1807
  C:82B5H         LINE#         1808
  C:82B5H         LINE#         1809
  C:82B5H         LINE#         1810
  C:82B5H         LINE#         1811
  C:82BDH         LINE#         1812
  C:82BDH         LINE#         1813
  C:82BEH         LINE#         1814
  C:82C4H         LINE#         1815
  C:82C4H         LINE#         1816
  C:82CAH         LINE#         1817
  C:82CAH         LINE#         1818
  C:82D0H         LINE#         1819
  C:82D0H         LINE#         1820
  C:82D7H         LINE#         1821
  C:82DDH         LINE#         1822
  C:82E0H         LINE#         1823
  C:82E0H         LINE#         1824
  C:82E5H         LINE#         1825
  C:82E5H         LINE#         1826
  C:82E6H         LINE#         1827
  C:82ECH         LINE#         1828
  C:82ECH         LINE#         1829
  C:82F2H         LINE#         1830
BL51 BANKED LINKER/LOCATER V6.22                                                      11/30/2015  09:53:45  PAGE 112


  C:82F2H         LINE#         1831
  C:82F8H         LINE#         1832
  C:82F8H         LINE#         1833
  C:82FFH         LINE#         1834
  C:8305H         LINE#         1835
  C:8307H         LINE#         1836
  C:8307H         LINE#         1855
  C:830EH         LINE#         1856
  C:830EH         LINE#         1857
  C:830FH         LINE#         1858
  C:8315H         LINE#         1859
  C:8315H         LINE#         1860
  C:831BH         LINE#         1861
  C:831BH         LINE#         1862
  C:8322H         LINE#         1863
  C:8328H         LINE#         1864
  C:832AH         LINE#         1865
  C:832AH         LINE#         1868
  C:832AH         LINE#         1869
  C:832AH         LINE#         1870
  C:832AH         LINE#         1871
  C:8331H         LINE#         1872
  C:8331H         LINE#         1873
  C:8332H         LINE#         1874
  C:8338H         LINE#         1875
  C:8338H         LINE#         1876
  C:833FH         LINE#         1877
  C:8346H         LINE#         1878
  C:8349H         LINE#         1879
  C:8349H         LINE#         1880
  C:8349H         LINE#         1900
  C:8349H         LINE#         1901
  C:834BH         LINE#         1902
  C:834BH         LINE#         1903
  C:834BH         LINE#         1931
  -------         ENDPROC       _SC16_COMCHECK
  -------         PROC          _BCC_CAL
  D:0001H         SYMBOL        addr
  X:000DH         SYMBOL        count
  -------         DO            
  D:0007H         SYMBOL        f_val
  X:000EH         SYMBOL        s_val
  D:0006H         SYMBOL        loop
  -------         ENDDO         
  C:A0B0H         LINE#         1935
  C:A0B5H         LINE#         1936
  C:A0B5H         LINE#         1937
  C:A0B7H         LINE#         1938
  C:A0B9H         LINE#         1939
  C:A0BAH         LINE#         1940
  C:A0C0H         LINE#         1942
  C:A0CAH         LINE#         1943
  C:A0CAH         LINE#         1946
  C:A0CFH         LINE#         1947
  C:A0D6H         LINE#         1948
  C:A0D9H         LINE#         1949
  C:A0D9H         LINE#         1981
BL51 BANKED LINKER/LOCATER V6.22                                                      11/30/2015  09:53:45  PAGE 113


  -------         ENDPROC       _BCC_CAL
  -------         PROC          _GET_DATA
  D:0007H         SYMBOL        addr
  X:03E6H         SYMBOL        val
  C:8D26H         LINE#         1984
  C:8D2BH         LINE#         1985
  C:8D2BH         LINE#         1987
  C:8D58H         LINE#         1988
  C:8D58H         LINE#         1989
  C:8D5DH         LINE#         1990
  C:8D62H         LINE#         1991
  C:8D67H         LINE#         1992
  C:8D6CH         LINE#         1993
  C:8D79H         LINE#         1994
  C:8D7EH         LINE#         1995
  C:8D83H         LINE#         1996
  C:8D8BH         LINE#         1997
  C:8D8BH         LINE#         1998
  C:8D8BH         LINE#         1999
  C:8D8EH         LINE#         2000
  -------         ENDPROC       _GET_DATA
  C:627AH         SYMBOL        L?0507
  -------         PROC          _SC16_BCC_CHECK
  D:0001H         SYMBOL        addr
  X:0006H         SYMBOL        sum
  -------         DO            
  X:0007H         SYMBOL        loop
  X:0008H         SYMBOL        f_val
  X:0009H         SYMBOL        s_val
  X:000AH         SYMBOL        com
  -------         ENDDO         
  C:60ABH         LINE#         2007
  C:60B0H         LINE#         2008
  C:60B0H         LINE#         2010
  C:60B5H         LINE#         2011
  C:60B7H         LINE#         2024
  C:60BAH         LINE#         2025
  C:60BAH         LINE#         2026
  C:60C0H         LINE#         2027
  C:60C0H         LINE#         2028
  C:60C0H         LINE#         2029
  C:60C6H         LINE#         2030
  C:60C6H         LINE#         2031
  C:60C6H         LINE#         2032
  C:60CEH         LINE#         2035
  C:60D6H         LINE#         2036
  C:60D6H         LINE#         2037
  C:60D8H         LINE#         2038
  C:60E3H         LINE#         2039
  C:60E3H         LINE#         2040
  C:60E7H         LINE#         2041
  C:60EEH         LINE#         2042
  C:60EEH         LINE#         2043
  C:60EFH         LINE#         2044
  C:60F9H         LINE#         2045
  C:60F9H         LINE#         2046
  C:60FCH         LINE#         2047
BL51 BANKED LINKER/LOCATER V6.22                                                      11/30/2015  09:53:45  PAGE 114


  C:60FCH         LINE#         2048
  C:60FFH         LINE#         2049
  C:60FFH         LINE#         2050
  C:6107H         LINE#         2052
  C:6107H         LINE#         2054
  C:6107H         LINE#         2059
  C:6115H         LINE#         2060
  C:6115H         LINE#         2061
  C:6135H         LINE#         2062
  C:6135H         LINE#         2063
  C:613AH         LINE#         2064
  C:6142H         LINE#         2065
  C:614AH         LINE#         2066
  C:614FH         LINE#         2067
  C:6157H         LINE#         2071
  C:6162H         LINE#         2072
  C:6162H         LINE#         2073
  C:6169H         LINE#         2074
  C:616FH         LINE#         2075
  C:6175H         LINE#         2076
  C:617CH         LINE#         2077
  C:6186H         LINE#         2078
  C:6186H         LINE#         2081
  C:6189H         LINE#         2082
  C:619EH         LINE#         2083
  C:619EH         LINE#         2084
  C:61A3H         LINE#         2085
  C:61A6H         LINE#         2087
  C:61B2H         LINE#         2088
  C:61B2H         LINE#         2089
  C:61B5H         LINE#         2093
  C:61B8H         LINE#         2094
  C:61C4H         LINE#         2095
  C:61C4H         LINE#         2096
  C:61C7H         LINE#         2100
  C:61CAH         LINE#         2101
  C:61D6H         LINE#         2102
  C:61D6H         LINE#         2103
  C:61D9H         LINE#         2107
  C:61DCH         LINE#         2108
  C:61E8H         LINE#         2109
  C:61E8H         LINE#         2110
  C:61EBH         LINE#         2114
  C:61EEH         LINE#         2116
  C:6203H         LINE#         2117
  C:6203H         LINE#         2118
  C:6208H         LINE#         2123
  C:620AH         LINE#         2125
  C:6216H         LINE#         2126
  C:6216H         LINE#         2127
  C:6219H         LINE#         2131
  C:621BH         LINE#         2132
  C:6227H         LINE#         2133
  C:6227H         LINE#         2134
  C:622AH         LINE#         2138
  C:622CH         LINE#         2139
  C:6238H         LINE#         2140
BL51 BANKED LINKER/LOCATER V6.22                                                      11/30/2015  09:53:45  PAGE 115


  C:6238H         LINE#         2141
  C:623BH         LINE#         2145
  C:623DH         LINE#         2159
  C:623DH         LINE#         2165
  C:6243H         LINE#         2166
  C:6243H         LINE#         2168
  C:6256H         LINE#         2169
  C:6267H         LINE#         2179
  C:6267H         LINE#         2181
  C:6267H         LINE#         2182
  C:626CH         LINE#         2187
  C:626CH         LINE#         2190
  C:626FH         LINE#         2191
  C:626FH         LINE#         2196
  C:6272H         LINE#         2198
  C:6272H         LINE#         2200
  C:6272H         LINE#         2201
  C:6277H         LINE#         2205
  C:6279H         LINE#         2206
  C:6279H         LINE#         2210
  -------         ENDPROC       _SC16_BCC_CHECK
  -------         PROC          CHECK_OTHER_COM
  C:8663H         LINE#         2214
  C:8663H         LINE#         2215
  C:8663H         LINE#         2217
  C:866BH         LINE#         2218
  C:866BH         LINE#         2219
  C:866EH         LINE#         2220
  C:866EH         LINE#         2224
  C:8686H         LINE#         2226
  C:868AH         LINE#         2227
  C:868AH         LINE#         2228
  C:8692H         LINE#         2229
  C:8692H         LINE#         2230
  C:8694H         LINE#         2231
  C:869BH         LINE#         2232
  C:869BH         LINE#         2233
  C:86A4H         LINE#         2234
  C:86A9H         LINE#         2235
  C:86ABH         LINE#         2237
  C:86B0H         LINE#         2240
  C:86B0H         LINE#         2241
  C:86B2H         LINE#         2242
  C:86B2H         LINE#         2244
  C:86C8H         LINE#         2246
  C:86CCH         LINE#         2247
  C:86CCH         LINE#         2248
  C:86D4H         LINE#         2249
  C:86D4H         LINE#         2250
  C:86D6H         LINE#         2251
  C:86DDH         LINE#         2252
  C:86DDH         LINE#         2253
  C:86E6H         LINE#         2254
  C:86EBH         LINE#         2255
  C:86EBH         LINE#         2257
  C:86EBH         LINE#         2258
  C:86EDH         LINE#         2259
BL51 BANKED LINKER/LOCATER V6.22                                                      11/30/2015  09:53:45  PAGE 116


  C:86EDH         LINE#         2262
  C:86F0H         LINE#         2264
  C:86F0H         LINE#         2265
  C:86F0H         LINE#         2266
  C:86F0H         LINE#         2267
  C:86F0H         LINE#         2270
  C:86F0H         LINE#         2272
  C:86F0H         LINE#         2277
  C:86F0H         LINE#         2280
  C:86F0H         LINE#         2282
  C:86F0H         LINE#         2284
  C:86F0H         LINE#         2286
  C:86F0H         LINE#         2292
  C:86F0H         LINE#         2295
  C:86F0H         LINE#         2297
  C:86F0H         LINE#         2300
  C:86F0H         LINE#         2302
  C:86F6H         LINE#         2306
  -------         ENDPROC       CHECK_OTHER_COM
  -------         PROC          _PARITY
  D:0007H         SYMBOL        ino
  -------         DO            
  D:0006H         SYMBOL        noofones
  D:0005H         SYMBOL        mask
  -------         ENDDO         
  C:A3CEH         LINE#         2328
  C:A3CEH         LINE#         2329
  C:A3CEH         LINE#         2330
  C:A3D0H         LINE#         2333
  C:A3D2H         LINE#         2335
  C:A3D5H         LINE#         2336
  C:A3D5H         LINE#         2337
  C:A3D8H         LINE#         2338
  C:A3D8H         LINE#         2339
  C:A3D9H         LINE#         2340
  C:A3D9H         LINE#         2341
  C:A3DDH         LINE#         2342
  C:A3DFH         LINE#         2345
  C:A3E3H         LINE#         2348
  -------         ENDPROC       _PARITY
  -------         PROC          ADT75_INIT
  -------         DO            
  X:03D2H         SYMBOL        Ctemp
  X:03D3H         SYMBOL        Dtemp
  -------         ENDDO         
  C:A104H         LINE#         2359
  C:A104H         LINE#         2360
  C:A104H         LINE#         2362
  C:A109H         LINE#         2363
  C:A10DH         LINE#         2368
  C:A118H         LINE#         2369
  C:A121H         LINE#         2370
  C:A12AH         LINE#         2382
  C:A12CH         LINE#         2384
  -------         ENDPROC       ADT75_INIT
  -------         PROC          _RESETDEVICE
  D:0001H         SYMBOL        addr
BL51 BANKED LINKER/LOCATER V6.22                                                      11/30/2015  09:53:45  PAGE 117


  -------         DO            
  D:0006H         SYMBOL        temp
  -------         ENDDO         
  C:A524H         LINE#         2387
  C:A524H         LINE#         2388
  C:A524H         LINE#         2390
  C:A527H         LINE#         2391
  C:A52BH         LINE#         2392
  -------         ENDPROC       _RESETDEVICE
  -------         PROC          _SETBAUDRATE
  X:0007H         SYMBOL        addr
  X:0008H         SYMBOL        baudrate
  -------         DO            
  X:000CH         SYMBOL        divisor
  X:0010H         SYMBOL        prescaler
  D:0001H         SYMBOL        temp_lcr
  -------         ENDDO         
  C:8077H         LINE#         2402
  C:807CH         LINE#         2403
  C:807CH         LINE#         2419
  C:8088H         LINE#         2420
  C:808BH         LINE#         2421
  C:808DH         LINE#         2422
  C:8090H         LINE#         2423
  C:8090H         LINE#         2427
  C:80DAH         LINE#         2439
  C:80E6H         LINE#         2441
  C:80EFH         LINE#         2443
  C:80F2H         LINE#         2445
  C:80F5H         LINE#         2447
  C:8107H         LINE#         2449
  C:8126H         LINE#         2456
  C:8129H         LINE#         2457
  C:812CH         LINE#         2459
  C:8130H         LINE#         2476
  -------         ENDPROC       _SETBAUDRATE
  -------         PROC          _SETLINE
  D:0001H         SYMBOL        addr
  X:0008H         SYMBOL        data_length
  X:0009H         SYMBOL        parity_select
  X:000AH         SYMBOL        stop_length
  -------         DO            
  D:0006H         SYMBOL        temp_lcr
  -------         ENDDO         
  C:8DF6H         LINE#         2478
  C:8DFEH         LINE#         2479
  C:8DFEH         LINE#         2481
  C:8E03H         LINE#         2482
  C:8E07H         LINE#         2487
  C:8E1AH         LINE#         2488
  C:8E1AH         LINE#         2489
  C:8E1AH         LINE#         2490
  C:8E1AH         LINE#         2491
  C:8E1EH         LINE#         2492
  C:8E20H         LINE#         2493
  C:8E20H         LINE#         2494
  C:8E24H         LINE#         2495
BL51 BANKED LINKER/LOCATER V6.22                                                      11/30/2015  09:53:45  PAGE 118


  C:8E26H         LINE#         2496
  C:8E26H         LINE#         2499
  C:8E26H         LINE#         2500
  C:8E2AH         LINE#         2501
  C:8E2AH         LINE#         2502
  C:8E2AH         LINE#         2504
  C:8E31H         LINE#         2505
  C:8E35H         LINE#         2506
  C:8E35H         LINE#         2508
  C:8E44H         LINE#         2509
  C:8E44H         LINE#         2510
  C:8E44H         LINE#         2511
  C:8E44H         LINE#         2512
  C:8E48H         LINE#         2513
  C:8E4AH         LINE#         2514
  C:8E4AH         LINE#         2515
  C:8E4EH         LINE#         2516
  C:8E50H         LINE#         2517
  C:8E50H         LINE#         2518
  C:8E54H         LINE#         2519
  C:8E54H         LINE#         2520
  C:8E54H         LINE#         2521
  C:8E54H         LINE#         2522
  C:8E54H         LINE#         2523
  C:8E54H         LINE#         2524
  C:8E54H         LINE#         2526
  -------         ENDPROC       _SETLINE
  -------         PROC          _GPIOSETPORTMODE
  D:0007H         SYMBOL        addr
  D:0005H         SYMBOL        port_io
  C:A5DBH         LINE#         2574
  C:A5DBH         LINE#         2575
  C:A5DBH         LINE#         2577
  -------         ENDPROC       _GPIOSETPORTMODE
  -------         PROC          _GPIOSETPORTSTATE
  D:0007H         SYMBOL        addr
  D:0005H         SYMBOL        port_state
  C:A5E4H         LINE#         2582
  C:A5E4H         LINE#         2583
  C:A5E4H         LINE#         2584
  -------         ENDPROC       _GPIOSETPORTSTATE
  -------         PROC          _GPIOGETPORTSTATE
  D:0007H         SYMBOL        addr
  C:A621H         LINE#         2587
  C:A621H         LINE#         2588
  C:A621H         LINE#         2593
  C:A626H         LINE#         2595
  -------         ENDPROC       _GPIOGETPORTSTATE
  -------         PROC          _FIFOAVAILABLEDATA
  D:0007H         SYMBOL        addr
  C:A627H         LINE#         2597
  C:A627H         LINE#         2598
  C:A627H         LINE#         2603
  C:A62CH         LINE#         2604
  -------         ENDPROC       _FIFOAVAILABLEDATA
  -------         PROC          _FIFOAVAILABLESPACE
  D:0007H         SYMBOL        addr
BL51 BANKED LINKER/LOCATER V6.22                                                      11/30/2015  09:53:45  PAGE 119


  C:A62DH         LINE#         2606
  C:A62DH         LINE#         2607
  C:A62DH         LINE#         2613
  C:A632H         LINE#         2615
  -------         ENDPROC       _FIFOAVAILABLESPACE
  -------         PROC          _ENABLETRANSMIT
  D:0001H         SYMBOL        addr
  X:03E7H         SYMBOL        OnOff
  -------         DO            
  D:0006H         SYMBOL        temp_efcr
  -------         ENDDO         
  C:A2B2H         LINE#         2617
  C:A2B7H         LINE#         2618
  C:A2B7H         LINE#         2620
  C:A2BAH         LINE#         2621
  C:A2BDH         LINE#         2622
  C:A2C1H         LINE#         2623
  C:A2C3H         LINE#         2624
  C:A2C7H         LINE#         2625
  C:A2C7H         LINE#         2626
  -------         ENDPROC       _ENABLETRANSMIT
  -------         PROC          _FLUSH
  D:0001H         SYMBOL        addr
  -------         DO            
  D:0007H         SYMBOL        tmp_lsr
  -------         ENDDO         
  C:A598H         LINE#         2632
  C:A59AH         LINE#         2633
  C:A59AH         LINE#         2636
  C:A59AH         LINE#         2641
  C:A59CH         LINE#         2643
  C:A5A2H         LINE#         2646
  -------         ENDPROC       _FLUSH
  -------         PROC          _PING
  D:0001H         SYMBOL        addr
  C:A293H         LINE#         2649
  C:A295H         LINE#         2650
  C:A295H         LINE#         2652
  C:A297H         LINE#         2654
  C:A29EH         LINE#         2658
  C:A2A1H         LINE#         2659
  C:A2A1H         LINE#         2661
  C:A2A5H         LINE#         2663
  C:A2ACH         LINE#         2667
  C:A2AFH         LINE#         2668
  C:A2AFH         LINE#         2674
  C:A2B1H         LINE#         2676
  -------         ENDPROC       _PING
  -------         PROC          _WRITEBYTE
  D:0007H         SYMBOL        addr
  D:0005H         SYMBOL        val
  C:A5EDH         LINE#         2681
  C:A5EDH         LINE#         2682
  C:A5EDH         LINE#         2704
  -------         ENDPROC       _WRITEBYTE
  -------         PROC          _READBYTE
  D:0007H         SYMBOL        addr
BL51 BANKED LINKER/LOCATER V6.22                                                      11/30/2015  09:53:45  PAGE 120


  -------         DO            
  X:0012H         SYMBOL        val
  -------         ENDDO         
  C:A569H         LINE#         2710
  C:A569H         LINE#         2711
  C:A569H         LINE#         2714
  C:A573H         LINE#         2715
  C:A575H         LINE#         2741
  -------         ENDPROC       _READBYTE
  -------         PROC          _TW2835_GET
  X:03A8H         SYMBOL        page
  X:03A9H         SYMBOL        start
  X:03AAH         SYMBOL        count
  -------         DO            
  X:03ABH         SYMBOL        x
  X:03ACH         SYMBOL        loop
  X:03ADH         SYMBOL        step
  D:0006H         SYMBOL        val
  -------         ENDDO         
  C:83F6H         LINE#         2743
  C:8401H         LINE#         2744
  C:8401H         LINE#         2745
  C:8408H         LINE#         2746
  C:8409H         LINE#         2749
  C:840AH         LINE#         2750
  C:840AH         LINE#         2775
  C:840BH         LINE#         2776
  C:840BH         LINE#         2777
  C:840FH         LINE#         2778
  C:840FH         LINE#         2780
  C:8444H         LINE#         2781
  C:845DH         LINE#         2782
  C:8464H         LINE#         2783
  C:8467H         LINE#         2784
  C:8473H         LINE#         2785
  C:8482H         LINE#         2786
  -------         ENDPROC       _TW2835_GET
  -------         PROC          _PEEK
  X:03E8H         SYMBOL        addr
  C:A5A3H         LINE#         2815
  C:A5A8H         LINE#         2816
  C:A5A8H         LINE#         2825
  C:A5ACH         LINE#         2827
  -------         ENDPROC       _PEEK
  -------         PROC          _SET_INT
  X:03E9H         SYMBOL        addr
  C:A38AH         LINE#         2830
  C:A38FH         LINE#         2831
  C:A38FH         LINE#         2834
  C:A391H         LINE#         2835
  C:A393H         LINE#         2836
  C:A395H         LINE#         2838
  C:A397H         LINE#         2839
  C:A399H         LINE#         2840
  C:A39BH         LINE#         2842
  C:A39DH         LINE#         2843
  C:A39FH         LINE#         2844
BL51 BANKED LINKER/LOCATER V6.22                                                      11/30/2015  09:53:45  PAGE 121


  C:A3A1H         LINE#         2845
  -------         ENDPROC       _SET_INT
  -------         PROC          MCTRL_SET
  C:A5F6H         LINE#         2848
  C:A5F6H         LINE#         2849
  C:A5F6H         LINE#         2852
  C:A5F8H         LINE#         2853
  C:A5FAH         LINE#         2854
  C:A5FCH         LINE#         2855
  C:A5FEH         LINE#         2856
  -------         ENDPROC       MCTRL_SET
  -------         ENDMOD        NED

  -------         MODULE        ?C?COPY
  C:2668H         PUBLIC        ?C?COPY
  -------         ENDMOD        ?C?COPY

  -------         MODULE        ?C?CLDPTR
  C:268EH         PUBLIC        ?C?CLDPTR
  -------         ENDMOD        ?C?CLDPTR

  -------         MODULE        ?C?CLDOPTR
  C:26A7H         PUBLIC        ?C?CLDOPTR
  -------         ENDMOD        ?C?CLDOPTR

  -------         MODULE        ?C?CSTPTR
  C:26D4H         PUBLIC        ?C?CSTPTR
  -------         ENDMOD        ?C?CSTPTR

  -------         MODULE        ?C?IMUL
  C:26E6H         PUBLIC        ?C?IMUL
  -------         ENDMOD        ?C?IMUL

  -------         MODULE        ?C?UIDIV
  C:26F8H         PUBLIC        ?C?UIDIV
  -------         ENDMOD        ?C?UIDIV

  -------         MODULE        ?C?IILDX
  C:274DH         PUBLIC        ?C?IILDX
  -------         ENDMOD        ?C?IILDX

  -------         MODULE        ?C?ILDIX
  C:2763H         PUBLIC        ?C?ILDIX
  -------         ENDMOD        ?C?ILDIX

  -------         MODULE        ?C?ILDPTR
  C:2779H         PUBLIC        ?C?ILDPTR
  -------         ENDMOD        ?C?ILDPTR

  -------         MODULE        ?C?IILDOPTR
  C:27A4H         PUBLIC        ?C?IILDOPTR
  -------         ENDMOD        ?C?IILDOPTR

  -------         MODULE        ?C?LMUL
  C:27F1H         PUBLIC        ?C?LMUL
  -------         ENDMOD        ?C?LMUL

BL51 BANKED LINKER/LOCATER V6.22                                                      11/30/2015  09:53:45  PAGE 122


  -------         MODULE        ?C?ULDIV
  C:287CH         PUBLIC        ?C?ULDIV
  -------         ENDMOD        ?C?ULDIV

  -------         MODULE        ?C?SLDIV
  C:98ADH         PUBLIC        ?C?SLDIV
  -------         ENDMOD        ?C?SLDIV

  -------         MODULE        ?C?ULCMP
  C:290EH         PUBLIC        ?C?ULCMP
  -------         ENDMOD        ?C?ULCMP

  -------         MODULE        ?C?ULSHR
  C:291FH         PUBLIC        ?C?ULSHR
  -------         ENDMOD        ?C?ULSHR

  -------         MODULE        ?C?LSTXDATA
  C:2932H         PUBLIC        ?C?LSTXDATA
  -------         ENDMOD        ?C?LSTXDATA

  -------         MODULE        ?C?LSTKXDATA
  C:293EH         PUBLIC        ?C?LSTKXDATA
  -------         ENDMOD        ?C?LSTKXDATA

  -------         MODULE        ?C?PLDPTR
  C:296FH         PUBLIC        ?C?PLDPTR
  -------         ENDMOD        ?C?PLDPTR

  -------         MODULE        ?C?PSTPTR
  C:298FH         PUBLIC        ?C?PSTPTR
  -------         ENDMOD        ?C?PSTPTR

  -------         MODULE        ?C?CCASE
  C:29DEH         PUBLIC        ?C?CCASE
  -------         ENDMOD        ?C?CCASE

  -------         MODULE        ?C?ICASE
  C:2A04H         PUBLIC        ?C?ICASE
  -------         ENDMOD        ?C?ICASE

  -------         MODULE        PRINTF
  X:0012H         PUBLIC        ?_PRINTF517?BYTE
  X:0012H         PUBLIC        ?_PRINTF?BYTE
  X:0012H         PUBLIC        ?_SPRINTF517?BYTE
  X:0012H         PUBLIC        ?_SPRINTF?BYTE
  C:4819H         PUBLIC        _PRINTF
  C:4819H         PUBLIC        _PRINTF517
  C:4813H         PUBLIC        _SPRINTF
  C:4813H         PUBLIC        _SPRINTF517
  -------         ENDMOD        PRINTF

  -------         MODULE        PUTS
  C:A0DAH         PUBLIC        _PUTS
  -------         ENDMOD        PUTS

  -------         MODULE        SCANF
  X:01DDH         PUBLIC        ?_SCANF517?BYTE
BL51 BANKED LINKER/LOCATER V6.22                                                      11/30/2015  09:53:45  PAGE 123


  X:01DDH         PUBLIC        ?_SCANF?BYTE
  X:01DDH         PUBLIC        ?_SSCANF517?BYTE
  X:01DDH         PUBLIC        ?_SSCANF?BYTE
  C:4BA0H         PUBLIC        _SCANF
  C:4BA0H         PUBLIC        _SCANF517
  C:4B9CH         PUBLIC        _SSCANF
  C:4B9CH         PUBLIC        _SSCANF517
  -------         ENDMOD        SCANF

  -------         MODULE        ?C?STRCMP
  C:2BAFH         PUBLIC        ?C?STRCMP
  -------         ENDMOD        ?C?STRCMP

  -------         MODULE        STRLEN
  C:A3E4H         PUBLIC        _STRLEN
  -------         ENDMOD        STRLEN

  -------         MODULE        ATOI
  C:7D26H         PUBLIC        _atoi
  -------         ENDMOD        ATOI

  -------         MODULE        ?C?ISTPTR
  C:2BCCH         PUBLIC        ?C?ISTPTR
  -------         ENDMOD        ?C?ISTPTR

  -------         MODULE        ?C?LNEG
  C:2BEBH         PUBLIC        ?C?LNEG
  -------         ENDMOD        ?C?LNEG

  -------         MODULE        ?C?LSTPTR
  C:2BF9H         PUBLIC        ?C?LSTPTR
  -------         ENDMOD        ?C?LSTPTR

  -------         MODULE        ?C?PLDIDATA
  C:2C13H         PUBLIC        ?C?PLDIDATA
  -------         ENDMOD        ?C?PLDIDATA

  -------         MODULE        ?C?PSTIDATA
  C:2C1CH         PUBLIC        ?C?PSTIDATA
  -------         ENDMOD        ?C?PSTIDATA

  -------         MODULE        ?C?PLDXDATA
  C:2C25H         PUBLIC        ?C?PLDXDATA
  -------         ENDMOD        ?C?PLDXDATA

  -------         MODULE        ?C?PLDIXDATA
  C:2C2EH         PUBLIC        ?C?PLDIXDATA
  -------         ENDMOD        ?C?PLDIXDATA

  -------         MODULE        ?C?PILDXDATA
  C:2C45H         PUBLIC        ?C?PILDXDATA
  -------         ENDMOD        ?C?PILDXDATA

  -------         MODULE        ?C?PSTXDATA
  C:2C5CH         PUBLIC        ?C?PSTXDATA
  -------         ENDMOD        ?C?PSTXDATA

BL51 BANKED LINKER/LOCATER V6.22                                                      11/30/2015  09:53:45  PAGE 124


  -------         MODULE        ?C?PLDPDATA
  C:2C65H         PUBLIC        ?C?PLDPDATA
  -------         ENDMOD        ?C?PLDPDATA

  -------         MODULE        ?C?PSTPDATA
  C:2C6EH         PUBLIC        ?C?PSTPDATA
  -------         ENDMOD        ?C?PSTPDATA

  -------         MODULE        ?C?PLDCODE
  C:2C77H         PUBLIC        ?C?PLDCODE
  -------         ENDMOD        ?C?PLDCODE

  -------         MODULE        PUTCHAR
  C:A155H         PUBLIC        _PUTCHAR
  -------         ENDMOD        PUTCHAR

  -------         MODULE        GETCHAR
  B:0024H.4       PUBLIC        ?C?CHARLOADED
  X:03EAH         PUBLIC        ?_UNGETCHAR?BYTE
  C:A435H         PUBLIC        GETCHAR
  -------         ENDMOD        GETCHAR

  -------         MODULE        UNGETC
  C:A607H         PUBLIC        _UNGETCHAR
  -------         ENDMOD        UNGETC

  -------         MODULE        ISDIGIT
  C:A533H         PUBLIC        _isdigit
  -------         ENDMOD        ISDIGIT

  -------         MODULE        ISSPACE
  C:A449H         PUBLIC        _isspace
  -------         ENDMOD        ISSPACE

  -------         MODULE        ?C?LSTIDATA
  C:2C83H         PUBLIC        ?C?LSTIDATA
  -------         ENDMOD        ?C?LSTIDATA

  -------         MODULE        ?C?LSTPDATA
  C:2C8FH         PUBLIC        ?C?LSTPDATA
  -------         ENDMOD        ?C?LSTPDATA

  -------         MODULE        _GETKEY
  C:A5ADH         PUBLIC        _GETKEY
  -------         ENDMOD        _GETKEY

*** WARNING L16: UNCALLED SEGMENT, IGNORED FOR OVERLAY PROCESS
    SEGMENT: ?PR?_MONIREADPAGEBUFFER?COMMANDSHELL

*** WARNING L16: UNCALLED SEGMENT, IGNORED FOR OVERLAY PROCESS
    SEGMENT: ?PR?_MONIREADONEBUFFER?COMMANDSHELL

*** WARNING L16: UNCALLED SEGMENT, IGNORED FOR OVERLAY PROCESS
    SEGMENT: ?PR?_MONIWRITEONEBUFFER?COMMANDSHELL

*** WARNING L16: UNCALLED SEGMENT, IGNORED FOR OVERLAY PROCESS
    SEGMENT: ?PR?_MONIREADASICBYTE?COMMANDSHELL
BL51 BANKED LINKER/LOCATER V6.22                                                      11/30/2015  09:53:45  PAGE 125



*** WARNING L16: UNCALLED SEGMENT, IGNORED FOR OVERLAY PROCESS
    SEGMENT: ?PR?_MONIAUDIOMIXING?COMMANDSHELL

*** WARNING L16: UNCALLED SEGMENT, IGNORED FOR OVERLAY PROCESS
    SEGMENT: ?PR?MONIAUDIOMUTE?COMMANDSHELL

*** WARNING L16: UNCALLED SEGMENT, IGNORED FOR OVERLAY PROCESS
    SEGMENT: ?PR?_MONIAUDIOGAIN?COMMANDSHELL

*** WARNING L16: UNCALLED SEGMENT, IGNORED FOR OVERLAY PROCESS
    SEGMENT: ?PR?_MONIAUDIOLIVE?COMMANDSHELL

*** WARNING L16: UNCALLED SEGMENT, IGNORED FOR OVERLAY PROCESS
    SEGMENT: ?PR?MONIREGISTERDUMP?COMMANDSHELL

*** WARNING L16: UNCALLED SEGMENT, IGNORED FOR OVERLAY PROCESS
    SEGMENT: ?PR?_MONIVIDEOMIXWIN?COMMANDSHELL

*** WARNING L16: UNCALLED SEGMENT, IGNORED FOR OVERLAY PROCESS
    SEGMENT: ?PR?_MONIVIDEOMIXATTR?COMMANDSHELL

*** WARNING L16: UNCALLED SEGMENT, IGNORED FOR OVERLAY PROCESS
    SEGMENT: ?PR?MONIVIDEOAUTODETECT?COMMANDSHELL

*** WARNING L16: UNCALLED SEGMENT, IGNORED FOR OVERLAY PROCESS
    SEGMENT: ?PR?_MONISETVIDEOFORMAT?COMMANDSHELL

*** WARNING L16: UNCALLED SEGMENT, IGNORED FOR OVERLAY PROCESS
    SEGMENT: ?PR?_MONISHOWSODSTR?COMMANDSHELL

*** WARNING L16: UNCALLED SEGMENT, IGNORED FOR OVERLAY PROCESS
    SEGMENT: ?PR?PCT_AUDIOACTIONFORHS?COMMANDSHELL

*** WARNING L16: UNCALLED SEGMENT, IGNORED FOR OVERLAY PROCESS
    SEGMENT: ?PR?MONIHSCOMMDISSCROLL?COMMANDSHELL

*** WARNING L16: UNCALLED SEGMENT, IGNORED FOR OVERLAY PROCESS
    SEGMENT: ?PR?MONIHSCOMMVERSION?COMMANDSHELL

*** WARNING L16: UNCALLED SEGMENT, IGNORED FOR OVERLAY PROCESS
    SEGMENT: ?PR?NEWLINE?MAIN

*** WARNING L16: UNCALLED SEGMENT, IGNORED FOR OVERLAY PROCESS
    SEGMENT: ?PR?_PUTSP?MAIN

*** WARNING L16: UNCALLED SEGMENT, IGNORED FOR OVERLAY PROCESS
    SEGMENT: ?PR?_CHKSTARTCOMMSHELL?MAIN

*** WARNING L16: UNCALLED SEGMENT, IGNORED FOR OVERLAY PROCESS
    SEGMENT: ?PR?_PCT_SHOWSPEAKICON?OSDACTION_

*** WARNING L16: UNCALLED SEGMENT, IGNORED FOR OVERLAY PROCESS
    SEGMENT: ?PR?PCT_SHOWVLOSS?OSDACTION_

*** WARNING L16: UNCALLED SEGMENT, IGNORED FOR OVERLAY PROCESS
    SEGMENT: ?PR?PCT_AUDIOREGLIST?TW28XX_AUDIO
BL51 BANKED LINKER/LOCATER V6.22                                                      11/30/2015  09:53:45  PAGE 126



*** WARNING L16: UNCALLED SEGMENT, IGNORED FOR OVERLAY PROCESS
    SEGMENT: ?PR?PCT_VIDEOLASTMODIFY?TW28XX_VIDEO

*** WARNING L16: UNCALLED SEGMENT, IGNORED FOR OVERLAY PROCESS
    SEGMENT: ?PR?_PCT_WINATTRCLEAR?TW28XX_VIDEO

*** WARNING L16: UNCALLED SEGMENT, IGNORED FOR OVERLAY PROCESS
    SEGMENT: ?PR?I2C_100KHZ?NED

*** WARNING L16: UNCALLED SEGMENT, IGNORED FOR OVERLAY PROCESS
    SEGMENT: ?PR?I2CSTART2?NED

*** WARNING L16: UNCALLED SEGMENT, IGNORED FOR OVERLAY PROCESS
    SEGMENT: ?PR?I2CSTOP2?NED

*** WARNING L16: UNCALLED SEGMENT, IGNORED FOR OVERLAY PROCESS
    SEGMENT: ?PR?_I2CWRITEDATA2?NED

*** WARNING L16: UNCALLED SEGMENT, IGNORED FOR OVERLAY PROCESS
    SEGMENT: ?PR?I2CREADDATA2?NED

*** WARNING L16: UNCALLED SEGMENT, IGNORED FOR OVERLAY PROCESS
    SEGMENT: ?PR?I2CREADDATAWITHACK2?NED

*** WARNING L16: UNCALLED SEGMENT, IGNORED FOR OVERLAY PROCESS
    SEGMENT: ?PR?_READI2C2?NED

*** WARNING L16: UNCALLED SEGMENT, IGNORED FOR OVERLAY PROCESS
    SEGMENT: ?PR?I2C_ACK?NED

*** WARNING L16: UNCALLED SEGMENT, IGNORED FOR OVERLAY PROCESS
    SEGMENT: ?PR?I2C_ACK2?NED

*** WARNING L16: UNCALLED SEGMENT, IGNORED FOR OVERLAY PROCESS
    SEGMENT: ?PR?_SET_CHANNEL?NED

*** WARNING L16: UNCALLED SEGMENT, IGNORED FOR OVERLAY PROCESS
    SEGMENT: ?PR?SEND_CAMERA_VER?NED

*** WARNING L16: UNCALLED SEGMENT, IGNORED FOR OVERLAY PROCESS
    SEGMENT: ?PR?_GET_CAMERA_IRD?NED

*** WARNING L16: UNCALLED SEGMENT, IGNORED FOR OVERLAY PROCESS
    SEGMENT: ?PR?GET_DVR_VER?NED

*** WARNING L16: UNCALLED SEGMENT, IGNORED FOR OVERLAY PROCESS
    SEGMENT: ?PR?SENT_DVR_VER?NED

*** WARNING L16: UNCALLED SEGMENT, IGNORED FOR OVERLAY PROCESS
    SEGMENT: ?PR?GET_DVR_YEAR?NED

*** WARNING L16: UNCALLED SEGMENT, IGNORED FOR OVERLAY PROCESS
    SEGMENT: ?PR?SENT_DVR_YEAR?NED

*** WARNING L16: UNCALLED SEGMENT, IGNORED FOR OVERLAY PROCESS
    SEGMENT: ?PR?GET_DVR_MD?NED
BL51 BANKED LINKER/LOCATER V6.22                                                      11/30/2015  09:53:45  PAGE 127



*** WARNING L16: UNCALLED SEGMENT, IGNORED FOR OVERLAY PROCESS
    SEGMENT: ?PR?SENT_DVR_MDR?NED

*** WARNING L16: UNCALLED SEGMENT, IGNORED FOR OVERLAY PROCESS
    SEGMENT: ?PR?GET_DVR_HS?NED

*** WARNING L16: UNCALLED SEGMENT, IGNORED FOR OVERLAY PROCESS
    SEGMENT: ?PR?SENT_DVR_HS?NED

*** WARNING L16: UNCALLED SEGMENT, IGNORED FOR OVERLAY PROCESS
    SEGMENT: ?PR?_COMMAND_CHECK?NED

*** WARNING L16: UNCALLED SEGMENT, IGNORED FOR OVERLAY PROCESS
    SEGMENT: ?PR?_CHECK_STARTUP?NED

*** WARNING L16: UNCALLED SEGMENT, IGNORED FOR OVERLAY PROCESS
    SEGMENT: ?PR?_GET_DATA?NED

*** WARNING L16: UNCALLED SEGMENT, IGNORED FOR OVERLAY PROCESS
    SEGMENT: ?PR?_PARITY?NED

*** WARNING L16: UNCALLED SEGMENT, IGNORED FOR OVERLAY PROCESS
    SEGMENT: ?PR?ADT75_INIT?NED

*** WARNING L16: UNCALLED SEGMENT, IGNORED FOR OVERLAY PROCESS
    SEGMENT: ?PR?_FIFOAVAILABLEDATA?NED

*** WARNING L16: UNCALLED SEGMENT, IGNORED FOR OVERLAY PROCESS
    SEGMENT: ?PR?_FIFOAVAILABLESPACE?NED

*** WARNING L16: UNCALLED SEGMENT, IGNORED FOR OVERLAY PROCESS
    SEGMENT: ?PR?_ENABLETRANSMIT?NED

*** WARNING L16: UNCALLED SEGMENT, IGNORED FOR OVERLAY PROCESS
    SEGMENT: ?PR?_FLUSH?NED

*** WARNING L16: UNCALLED SEGMENT, IGNORED FOR OVERLAY PROCESS
    SEGMENT: ?PR?_PING?NED

*** WARNING L16: UNCALLED SEGMENT, IGNORED FOR OVERLAY PROCESS
    SEGMENT: ?PR?_TW2835_GET?NED

*** WARNING L16: UNCALLED SEGMENT, IGNORED FOR OVERLAY PROCESS
    SEGMENT: ?PR?_PEEK?NED

*** WARNING L16: UNCALLED SEGMENT, IGNORED FOR OVERLAY PROCESS
    SEGMENT: ?PR?_SET_INT?NED

Program Size: data=98.5 xdata=1003 code=42557
LINK/LOCATE RUN COMPLETE.  58 WARNING(S),  0 ERROR(S)
